Archive member included because of file (symbol)

c:/altera/11.1/nios2eds/bin/gnu/h-i686-mingw32/bin/../lib/gcc/nios2-elf/4.1.2\libgcc.a(_mul_sf.o)
                              obj/default/terasic_fat/FatFileSystem.o (__mulsf3)
c:/altera/11.1/nios2eds/bin/gnu/h-i686-mingw32/bin/../lib/gcc/nios2-elf/4.1.2\libgcc.a(_div_sf.o)
                              obj/default/terasic_fat/FatFileSystem.o (__divsf3)
c:/altera/11.1/nios2eds/bin/gnu/h-i686-mingw32/bin/../lib/gcc/nios2-elf/4.1.2\libgcc.a(_sf_to_df.o)
                              obj/default/terasic_fat/FatFileSystem.o (__extendsfdf2)
c:/altera/11.1/nios2eds/bin/gnu/h-i686-mingw32/bin/../lib/gcc/nios2-elf/4.1.2\libgcc.a(_thenan_sf.o)
                              c:/altera/11.1/nios2eds/bin/gnu/h-i686-mingw32/bin/../lib/gcc/nios2-elf/4.1.2\libgcc.a(_mul_sf.o) (__thenan_sf)
c:/altera/11.1/nios2eds/bin/gnu/h-i686-mingw32/bin/../lib/gcc/nios2-elf/4.1.2\libgcc.a(_usi_to_sf.o)
                              obj/default/terasic_fat/FatFileSystem.o (__floatunsisf)
c:/altera/11.1/nios2eds/bin/gnu/h-i686-mingw32/bin/../lib/gcc/nios2-elf/4.1.2\libgcc.a(_div_df.o)
                              obj/default/terasic_fat/FatFileSystem.o (__divdf3)
c:/altera/11.1/nios2eds/bin/gnu/h-i686-mingw32/bin/../lib/gcc/nios2-elf/4.1.2\libgcc.a(_make_df.o)
                              c:/altera/11.1/nios2eds/bin/gnu/h-i686-mingw32/bin/../lib/gcc/nios2-elf/4.1.2\libgcc.a(_sf_to_df.o) (__make_dp)
c:/altera/11.1/nios2eds/bin/gnu/h-i686-mingw32/bin/../lib/gcc/nios2-elf/4.1.2\libgcc.a(_df_to_sf.o)
                              obj/default/terasic_fat/FatFileSystem.o (__truncdfsf2)
c:/altera/11.1/nios2eds/bin/gnu/h-i686-mingw32/bin/../lib/gcc/nios2-elf/4.1.2\libgcc.a(_thenan_df.o)
                              c:/altera/11.1/nios2eds/bin/gnu/h-i686-mingw32/bin/../lib/gcc/nios2-elf/4.1.2\libgcc.a(_div_df.o) (__thenan_df)
c:/altera/11.1/nios2eds/bin/gnu/h-i686-mingw32/bin/../lib/gcc/nios2-elf/4.1.2\libgcc.a(lib2-divmod.o)
                              obj/default/main.o (__udivsi3)
c:/altera/11.1/nios2eds/bin/gnu/h-i686-mingw32/bin/../lib/gcc/nios2-elf/4.1.2\libgcc.a(_muldi3.o)
                              c:/altera/11.1/nios2eds/bin/gnu/h-i686-mingw32/bin/../lib/gcc/nios2-elf/4.1.2\libgcc.a(_mul_sf.o) (__muldi3)
c:/altera/11.1/nios2eds/bin/gnu/h-i686-mingw32/bin/../lib/gcc/nios2-elf/4.1.2\libgcc.a(_clzsi2.o)
                              c:/altera/11.1/nios2eds/bin/gnu/h-i686-mingw32/bin/../lib/gcc/nios2-elf/4.1.2\libgcc.a(_usi_to_sf.o) (__clzsi2)
c:/altera/11.1/nios2eds/bin/gnu/h-i686-mingw32/bin/../lib/gcc/nios2-elf/4.1.2\libgcc.a(_pack_sf.o)
                              c:/altera/11.1/nios2eds/bin/gnu/h-i686-mingw32/bin/../lib/gcc/nios2-elf/4.1.2\libgcc.a(_mul_sf.o) (__pack_f)
c:/altera/11.1/nios2eds/bin/gnu/h-i686-mingw32/bin/../lib/gcc/nios2-elf/4.1.2\libgcc.a(_unpack_sf.o)
                              c:/altera/11.1/nios2eds/bin/gnu/h-i686-mingw32/bin/../lib/gcc/nios2-elf/4.1.2\libgcc.a(_mul_sf.o) (__unpack_f)
c:/altera/11.1/nios2eds/bin/gnu/h-i686-mingw32/bin/../lib/gcc/nios2-elf/4.1.2\libgcc.a(_make_sf.o)
                              c:/altera/11.1/nios2eds/bin/gnu/h-i686-mingw32/bin/../lib/gcc/nios2-elf/4.1.2\libgcc.a(_df_to_sf.o) (__make_fp)
c:/altera/11.1/nios2eds/bin/gnu/h-i686-mingw32/bin/../lib/gcc/nios2-elf/4.1.2\libgcc.a(_pack_df.o)
                              c:/altera/11.1/nios2eds/bin/gnu/h-i686-mingw32/bin/../lib/gcc/nios2-elf/4.1.2\libgcc.a(_div_df.o) (__pack_d)
c:/altera/11.1/nios2eds/bin/gnu/h-i686-mingw32/bin/../lib/gcc/nios2-elf/4.1.2\libgcc.a(_unpack_df.o)
                              c:/altera/11.1/nios2eds/bin/gnu/h-i686-mingw32/bin/../lib/gcc/nios2-elf/4.1.2\libgcc.a(_div_df.o) (__unpack_d)
c:/altera/11.1/nios2eds/bin/gnu/h-i686-mingw32/bin/../lib/gcc/nios2-elf/4.1.2\libgcc.a(_clz.o)
                              c:/altera/11.1/nios2eds/bin/gnu/h-i686-mingw32/bin/../lib/gcc/nios2-elf/4.1.2\libgcc.a(_clzsi2.o) (__clz_tab)
c:/altera/11.1/nios2eds/bin/gnu/h-i686-mingw32/bin/../lib/gcc/nios2-elf/4.1.2/../../../../nios2-elf/lib\libc.a(lib_a-fclose.o)
                              obj/default/terasic_lib/LCD.o (fclose)
c:/altera/11.1/nios2eds/bin/gnu/h-i686-mingw32/bin/../lib/gcc/nios2-elf/4.1.2/../../../../nios2-elf/lib\libc.a(lib_a-fflush.o)
                              c:/altera/11.1/nios2eds/bin/gnu/h-i686-mingw32/bin/../lib/gcc/nios2-elf/4.1.2/../../../../nios2-elf/lib\libc.a(lib_a-fclose.o) (_fflush_r)
c:/altera/11.1/nios2eds/bin/gnu/h-i686-mingw32/bin/../lib/gcc/nios2-elf/4.1.2/../../../../nios2-elf/lib\libc.a(lib_a-findfp.o)
                              c:/altera/11.1/nios2eds/bin/gnu/h-i686-mingw32/bin/../lib/gcc/nios2-elf/4.1.2/../../../../nios2-elf/lib\libc.a(lib_a-fclose.o) (__sfp_lock_acquire)
c:/altera/11.1/nios2eds/bin/gnu/h-i686-mingw32/bin/../lib/gcc/nios2-elf/4.1.2/../../../../nios2-elf/lib\libc.a(lib_a-fopen.o)
                              obj/default/terasic_lib/LCD.o (fopen)
c:/altera/11.1/nios2eds/bin/gnu/h-i686-mingw32/bin/../lib/gcc/nios2-elf/4.1.2/../../../../nios2-elf/lib\libc.a(lib_a-freer.o)
                              c:/altera/11.1/nios2eds/bin/gnu/h-i686-mingw32/bin/../lib/gcc/nios2-elf/4.1.2/../../../../nios2-elf/lib\libc.a(lib_a-fclose.o) (_free_r)
c:/altera/11.1/nios2eds/bin/gnu/h-i686-mingw32/bin/../lib/gcc/nios2-elf/4.1.2/../../../../nios2-elf/lib\libc.a(lib_a-fseek.o)
                              c:/altera/11.1/nios2eds/bin/gnu/h-i686-mingw32/bin/../lib/gcc/nios2-elf/4.1.2/../../../../nios2-elf/lib\libc.a(lib_a-fopen.o) (_fseek_r)
c:/altera/11.1/nios2eds/bin/gnu/h-i686-mingw32/bin/../lib/gcc/nios2-elf/4.1.2/../../../../nios2-elf/lib\libc.a(lib_a-fstatr.o)
                              c:/altera/11.1/nios2eds/bin/gnu/h-i686-mingw32/bin/../lib/gcc/nios2-elf/4.1.2/../../../../nios2-elf/lib\libc.a(lib_a-fseek.o) (_fstat_r)
c:/altera/11.1/nios2eds/bin/gnu/h-i686-mingw32/bin/../lib/gcc/nios2-elf/4.1.2/../../../../nios2-elf/lib\libc.a(lib_a-fwalk.o)
                              c:/altera/11.1/nios2eds/bin/gnu/h-i686-mingw32/bin/../lib/gcc/nios2-elf/4.1.2/../../../../nios2-elf/lib\libc.a(lib_a-fflush.o) (_fwalk_reent)
c:/altera/11.1/nios2eds/bin/gnu/h-i686-mingw32/bin/../lib/gcc/nios2-elf/4.1.2/../../../../nios2-elf/lib\libc.a(lib_a-fwrite.o)
                              obj/default/terasic_lib/LCD.o (fwrite)
c:/altera/11.1/nios2eds/bin/gnu/h-i686-mingw32/bin/../lib/gcc/nios2-elf/4.1.2/../../../../nios2-elf/lib\libc.a(lib_a-impure.o)
                              c:/altera/11.1/nios2eds/bin/gnu/h-i686-mingw32/bin/../lib/gcc/nios2-elf/4.1.2/../../../../nios2-elf/lib\libc.a(lib_a-fclose.o) (_impure_ptr)
c:/altera/11.1/nios2eds/bin/gnu/h-i686-mingw32/bin/../lib/gcc/nios2-elf/4.1.2/../../../../nios2-elf/lib\libc.a(lib_a-int_errno.o)
                              c:/altera/11.1/nios2eds/bin/gnu/h-i686-mingw32/bin/../lib/gcc/nios2-elf/4.1.2/../../../../nios2-elf/lib\libc.a(lib_a-fstatr.o) (errno)
c:/altera/11.1/nios2eds/bin/gnu/h-i686-mingw32/bin/../lib/gcc/nios2-elf/4.1.2/../../../../nios2-elf/lib\libc.a(lib_a-makebuf.o)
                              c:/altera/11.1/nios2eds/bin/gnu/h-i686-mingw32/bin/../lib/gcc/nios2-elf/4.1.2/../../../../nios2-elf/lib\libc.a(lib_a-fseek.o) (__smakebuf_r)
c:/altera/11.1/nios2eds/bin/gnu/h-i686-mingw32/bin/../lib/gcc/nios2-elf/4.1.2/../../../../nios2-elf/lib\libc.a(lib_a-malloc.o)
                              obj/default/terasic_fat/FatFileSystem.o (free)
c:/altera/11.1/nios2eds/bin/gnu/h-i686-mingw32/bin/../lib/gcc/nios2-elf/4.1.2/../../../../nios2-elf/lib\libc.a(lib_a-mallocr.o)
                              c:/altera/11.1/nios2eds/bin/gnu/h-i686-mingw32/bin/../lib/gcc/nios2-elf/4.1.2/../../../../nios2-elf/lib\libc.a(lib_a-findfp.o) (_malloc_r)
c:/altera/11.1/nios2eds/bin/gnu/h-i686-mingw32/bin/../lib/gcc/nios2-elf/4.1.2/../../../../nios2-elf/lib\libc.a(lib_a-memcpy.o)
                              obj/default/terasic_fat/FatFileSystem.o (memcpy)
c:/altera/11.1/nios2eds/bin/gnu/h-i686-mingw32/bin/../lib/gcc/nios2-elf/4.1.2/../../../../nios2-elf/lib\libc.a(lib_a-memset.o)
                              obj/default/main.o (memset)
c:/altera/11.1/nios2eds/bin/gnu/h-i686-mingw32/bin/../lib/gcc/nios2-elf/4.1.2/../../../../nios2-elf/lib\libc.a(lib_a-openr.o)
                              c:/altera/11.1/nios2eds/bin/gnu/h-i686-mingw32/bin/../lib/gcc/nios2-elf/4.1.2/../../../../nios2-elf/lib\libc.a(lib_a-fopen.o) (_open_r)
c:/altera/11.1/nios2eds/bin/gnu/h-i686-mingw32/bin/../lib/gcc/nios2-elf/4.1.2/../../../../nios2-elf/lib\libc.a(lib_a-printf.o)
                              obj/default/main.o (printf)
c:/altera/11.1/nios2eds/bin/gnu/h-i686-mingw32/bin/../lib/gcc/nios2-elf/4.1.2/../../../../nios2-elf/lib\libc.a(lib_a-putchar.o)
                              obj/default/main.o (putchar)
c:/altera/11.1/nios2eds/bin/gnu/h-i686-mingw32/bin/../lib/gcc/nios2-elf/4.1.2/../../../../nios2-elf/lib\libc.a(lib_a-puts.o)
                              obj/default/main.o (puts)
c:/altera/11.1/nios2eds/bin/gnu/h-i686-mingw32/bin/../lib/gcc/nios2-elf/4.1.2/../../../../nios2-elf/lib\libc.a(lib_a-refill.o)
                              c:/altera/11.1/nios2eds/bin/gnu/h-i686-mingw32/bin/../lib/gcc/nios2-elf/4.1.2/../../../../nios2-elf/lib\libc.a(lib_a-fseek.o) (__srefill_r)
c:/altera/11.1/nios2eds/bin/gnu/h-i686-mingw32/bin/../lib/gcc/nios2-elf/4.1.2/../../../../nios2-elf/lib\libc.a(lib_a-sbrkr.o)
                              c:/altera/11.1/nios2eds/bin/gnu/h-i686-mingw32/bin/../lib/gcc/nios2-elf/4.1.2/../../../../nios2-elf/lib\libc.a(lib_a-freer.o) (_sbrk_r)
c:/altera/11.1/nios2eds/bin/gnu/h-i686-mingw32/bin/../lib/gcc/nios2-elf/4.1.2/../../../../nios2-elf/lib\libc.a(lib_a-sprintf.o)
                              obj/default/main.o (sprintf)
c:/altera/11.1/nios2eds/bin/gnu/h-i686-mingw32/bin/../lib/gcc/nios2-elf/4.1.2/../../../../nios2-elf/lib\libc.a(lib_a-stdio.o)
                              c:/altera/11.1/nios2eds/bin/gnu/h-i686-mingw32/bin/../lib/gcc/nios2-elf/4.1.2/../../../../nios2-elf/lib\libc.a(lib_a-findfp.o) (__sclose)
c:/altera/11.1/nios2eds/bin/gnu/h-i686-mingw32/bin/../lib/gcc/nios2-elf/4.1.2/../../../../nios2-elf/lib\libc.a(lib_a-strcasecmp.o)
                              obj/default/terasic_fat/FatFileSystem.o (strcasecmp)
c:/altera/11.1/nios2eds/bin/gnu/h-i686-mingw32/bin/../lib/gcc/nios2-elf/4.1.2/../../../../nios2-elf/lib\libc.a(lib_a-strcmp.o)
                              obj/default/terasic_fat/FatFileSystem.o (strcmp)
c:/altera/11.1/nios2eds/bin/gnu/h-i686-mingw32/bin/../lib/gcc/nios2-elf/4.1.2/../../../../nios2-elf/lib\libc.a(lib_a-strcpy.o)
                              obj/default/main.o (strcpy)
c:/altera/11.1/nios2eds/bin/gnu/h-i686-mingw32/bin/../lib/gcc/nios2-elf/4.1.2/../../../../nios2-elf/lib\libc.a(lib_a-strlen.o)
                              obj/default/main.o (strlen)
c:/altera/11.1/nios2eds/bin/gnu/h-i686-mingw32/bin/../lib/gcc/nios2-elf/4.1.2/../../../../nios2-elf/lib\libc.a(lib_a-vfprintf.o)
                              c:/altera/11.1/nios2eds/bin/gnu/h-i686-mingw32/bin/../lib/gcc/nios2-elf/4.1.2/../../../../nios2-elf/lib\libc.a(lib_a-printf.o) (___vfprintf_internal_r)
c:/altera/11.1/nios2eds/bin/gnu/h-i686-mingw32/bin/../lib/gcc/nios2-elf/4.1.2/../../../../nios2-elf/lib\libc.a(lib_a-vsnprintf.o)
                              obj/default/terasic_lib/debug.o (vsnprintf)
c:/altera/11.1/nios2eds/bin/gnu/h-i686-mingw32/bin/../lib/gcc/nios2-elf/4.1.2/../../../../nios2-elf/lib\libc.a(lib_a-writer.o)
                              c:/altera/11.1/nios2eds/bin/gnu/h-i686-mingw32/bin/../lib/gcc/nios2-elf/4.1.2/../../../../nios2-elf/lib\libc.a(lib_a-stdio.o) (_write_r)
c:/altera/11.1/nios2eds/bin/gnu/h-i686-mingw32/bin/../lib/gcc/nios2-elf/4.1.2/../../../../nios2-elf/lib\libc.a(lib_a-wsetup.o)
                              c:/altera/11.1/nios2eds/bin/gnu/h-i686-mingw32/bin/../lib/gcc/nios2-elf/4.1.2/../../../../nios2-elf/lib\libc.a(lib_a-vfprintf.o) (__swsetup_r)
c:/altera/11.1/nios2eds/bin/gnu/h-i686-mingw32/bin/../lib/gcc/nios2-elf/4.1.2/../../../../nios2-elf/lib\libc.a(lib_a-closer.o)
                              c:/altera/11.1/nios2eds/bin/gnu/h-i686-mingw32/bin/../lib/gcc/nios2-elf/4.1.2/../../../../nios2-elf/lib\libc.a(lib_a-stdio.o) (_close_r)
c:/altera/11.1/nios2eds/bin/gnu/h-i686-mingw32/bin/../lib/gcc/nios2-elf/4.1.2/../../../../nios2-elf/lib\libc.a(lib_a-ctype_.o)
                              c:/altera/11.1/nios2eds/bin/gnu/h-i686-mingw32/bin/../lib/gcc/nios2-elf/4.1.2/../../../../nios2-elf/lib\libc.a(lib_a-strcasecmp.o) (__ctype_ptr)
c:/altera/11.1/nios2eds/bin/gnu/h-i686-mingw32/bin/../lib/gcc/nios2-elf/4.1.2/../../../../nios2-elf/lib\libc.a(lib_a-dtoa.o)
                              c:/altera/11.1/nios2eds/bin/gnu/h-i686-mingw32/bin/../lib/gcc/nios2-elf/4.1.2/../../../../nios2-elf/lib\libc.a(lib_a-vfprintf.o) (_dtoa_r)
c:/altera/11.1/nios2eds/bin/gnu/h-i686-mingw32/bin/../lib/gcc/nios2-elf/4.1.2/../../../../nios2-elf/lib\libc.a(lib_a-flags.o)
                              c:/altera/11.1/nios2eds/bin/gnu/h-i686-mingw32/bin/../lib/gcc/nios2-elf/4.1.2/../../../../nios2-elf/lib\libc.a(lib_a-fopen.o) (__sflags)
c:/altera/11.1/nios2eds/bin/gnu/h-i686-mingw32/bin/../lib/gcc/nios2-elf/4.1.2/../../../../nios2-elf/lib\libc.a(lib_a-fvwrite.o)
                              c:/altera/11.1/nios2eds/bin/gnu/h-i686-mingw32/bin/../lib/gcc/nios2-elf/4.1.2/../../../../nios2-elf/lib\libc.a(lib_a-fwrite.o) (__sfvwrite_r)
c:/altera/11.1/nios2eds/bin/gnu/h-i686-mingw32/bin/../lib/gcc/nios2-elf/4.1.2/../../../../nios2-elf/lib\libc.a(lib_a-isattyr.o)
                              c:/altera/11.1/nios2eds/bin/gnu/h-i686-mingw32/bin/../lib/gcc/nios2-elf/4.1.2/../../../../nios2-elf/lib\libc.a(lib_a-makebuf.o) (_isatty_r)
c:/altera/11.1/nios2eds/bin/gnu/h-i686-mingw32/bin/../lib/gcc/nios2-elf/4.1.2/../../../../nios2-elf/lib\libc.a(lib_a-locale.o)
                              c:/altera/11.1/nios2eds/bin/gnu/h-i686-mingw32/bin/../lib/gcc/nios2-elf/4.1.2/../../../../nios2-elf/lib\libc.a(lib_a-vfprintf.o) (_localeconv_r)
c:/altera/11.1/nios2eds/bin/gnu/h-i686-mingw32/bin/../lib/gcc/nios2-elf/4.1.2/../../../../nios2-elf/lib\libc.a(lib_a-lseekr.o)
                              c:/altera/11.1/nios2eds/bin/gnu/h-i686-mingw32/bin/../lib/gcc/nios2-elf/4.1.2/../../../../nios2-elf/lib\libc.a(lib_a-stdio.o) (_lseek_r)
c:/altera/11.1/nios2eds/bin/gnu/h-i686-mingw32/bin/../lib/gcc/nios2-elf/4.1.2/../../../../nios2-elf/lib\libc.a(lib_a-memchr.o)
                              c:/altera/11.1/nios2eds/bin/gnu/h-i686-mingw32/bin/../lib/gcc/nios2-elf/4.1.2/../../../../nios2-elf/lib\libc.a(lib_a-vfprintf.o) (memchr)
c:/altera/11.1/nios2eds/bin/gnu/h-i686-mingw32/bin/../lib/gcc/nios2-elf/4.1.2/../../../../nios2-elf/lib\libc.a(lib_a-memmove.o)
                              c:/altera/11.1/nios2eds/bin/gnu/h-i686-mingw32/bin/../lib/gcc/nios2-elf/4.1.2/../../../../nios2-elf/lib\libc.a(lib_a-fvwrite.o) (memmove)
c:/altera/11.1/nios2eds/bin/gnu/h-i686-mingw32/bin/../lib/gcc/nios2-elf/4.1.2/../../../../nios2-elf/lib\libc.a(lib_a-mprec.o)
                              c:/altera/11.1/nios2eds/bin/gnu/h-i686-mingw32/bin/../lib/gcc/nios2-elf/4.1.2/../../../../nios2-elf/lib\libc.a(lib_a-dtoa.o) (_Bfree)
c:/altera/11.1/nios2eds/bin/gnu/h-i686-mingw32/bin/../lib/gcc/nios2-elf/4.1.2/../../../../nios2-elf/lib\libc.a(lib_a-putc.o)
                              c:/altera/11.1/nios2eds/bin/gnu/h-i686-mingw32/bin/../lib/gcc/nios2-elf/4.1.2/../../../../nios2-elf/lib\libc.a(lib_a-putchar.o) (_putc_r)
c:/altera/11.1/nios2eds/bin/gnu/h-i686-mingw32/bin/../lib/gcc/nios2-elf/4.1.2/../../../../nios2-elf/lib\libc.a(lib_a-readr.o)
                              c:/altera/11.1/nios2eds/bin/gnu/h-i686-mingw32/bin/../lib/gcc/nios2-elf/4.1.2/../../../../nios2-elf/lib\libc.a(lib_a-stdio.o) (_read_r)
c:/altera/11.1/nios2eds/bin/gnu/h-i686-mingw32/bin/../lib/gcc/nios2-elf/4.1.2/../../../../nios2-elf/lib\libc.a(lib_a-reallocr.o)
                              c:/altera/11.1/nios2eds/bin/gnu/h-i686-mingw32/bin/../lib/gcc/nios2-elf/4.1.2/../../../../nios2-elf/lib\libc.a(lib_a-fvwrite.o) (_realloc_r)
c:/altera/11.1/nios2eds/bin/gnu/h-i686-mingw32/bin/../lib/gcc/nios2-elf/4.1.2/../../../../nios2-elf/lib\libc.a(lib_a-s_isinfd.o)
                              c:/altera/11.1/nios2eds/bin/gnu/h-i686-mingw32/bin/../lib/gcc/nios2-elf/4.1.2/../../../../nios2-elf/lib\libc.a(lib_a-vfprintf.o) (__isinfd)
c:/altera/11.1/nios2eds/bin/gnu/h-i686-mingw32/bin/../lib/gcc/nios2-elf/4.1.2/../../../../nios2-elf/lib\libc.a(lib_a-s_isnand.o)
                              c:/altera/11.1/nios2eds/bin/gnu/h-i686-mingw32/bin/../lib/gcc/nios2-elf/4.1.2/../../../../nios2-elf/lib\libc.a(lib_a-vfprintf.o) (__isnand)
c:/altera/11.1/nios2eds/bin/gnu/h-i686-mingw32/bin/../lib/gcc/nios2-elf/4.1.2/../../../../nios2-elf/lib\libc.a(lib_a-wbuf.o)
                              c:/altera/11.1/nios2eds/bin/gnu/h-i686-mingw32/bin/../lib/gcc/nios2-elf/4.1.2/../../../../nios2-elf/lib\libc.a(lib_a-putc.o) (__swbuf_r)
c:/altera/11.1/nios2eds/bin/gnu/h-i686-mingw32/bin/../lib/gcc/nios2-elf/4.1.2/../../../../nios2-elf/lib\libc.a(lib_a-callocr.o)
                              c:/altera/11.1/nios2eds/bin/gnu/h-i686-mingw32/bin/../lib/gcc/nios2-elf/4.1.2/../../../../nios2-elf/lib\libc.a(lib_a-mprec.o) (_calloc_r)
c:/altera/11.1/nios2eds/bin/gnu/h-i686-mingw32/bin/../lib/gcc/nios2-elf/4.1.2\libgcc.a(_udivdi3.o)
                              c:/altera/11.1/nios2eds/bin/gnu/h-i686-mingw32/bin/../lib/gcc/nios2-elf/4.1.2/../../../../nios2-elf/lib\libc.a(lib_a-vfprintf.o) (__udivdi3)
c:/altera/11.1/nios2eds/bin/gnu/h-i686-mingw32/bin/../lib/gcc/nios2-elf/4.1.2\libgcc.a(_umoddi3.o)
                              c:/altera/11.1/nios2eds/bin/gnu/h-i686-mingw32/bin/../lib/gcc/nios2-elf/4.1.2/../../../../nios2-elf/lib\libc.a(lib_a-vfprintf.o) (__umoddi3)
c:/altera/11.1/nios2eds/bin/gnu/h-i686-mingw32/bin/../lib/gcc/nios2-elf/4.1.2\libgcc.a(_addsub_df.o)
                              c:/altera/11.1/nios2eds/bin/gnu/h-i686-mingw32/bin/../lib/gcc/nios2-elf/4.1.2/../../../../nios2-elf/lib\libc.a(lib_a-dtoa.o) (__subdf3)
c:/altera/11.1/nios2eds/bin/gnu/h-i686-mingw32/bin/../lib/gcc/nios2-elf/4.1.2\libgcc.a(_mul_df.o)
                              c:/altera/11.1/nios2eds/bin/gnu/h-i686-mingw32/bin/../lib/gcc/nios2-elf/4.1.2/../../../../nios2-elf/lib\libc.a(lib_a-dtoa.o) (__muldf3)
c:/altera/11.1/nios2eds/bin/gnu/h-i686-mingw32/bin/../lib/gcc/nios2-elf/4.1.2\libgcc.a(_eq_df.o)
                              c:/altera/11.1/nios2eds/bin/gnu/h-i686-mingw32/bin/../lib/gcc/nios2-elf/4.1.2/../../../../nios2-elf/lib\libc.a(lib_a-vfprintf.o) (__eqdf2)
c:/altera/11.1/nios2eds/bin/gnu/h-i686-mingw32/bin/../lib/gcc/nios2-elf/4.1.2\libgcc.a(_ne_df.o)
                              c:/altera/11.1/nios2eds/bin/gnu/h-i686-mingw32/bin/../lib/gcc/nios2-elf/4.1.2/../../../../nios2-elf/lib\libc.a(lib_a-vfprintf.o) (__nedf2)
c:/altera/11.1/nios2eds/bin/gnu/h-i686-mingw32/bin/../lib/gcc/nios2-elf/4.1.2\libgcc.a(_gt_df.o)
                              c:/altera/11.1/nios2eds/bin/gnu/h-i686-mingw32/bin/../lib/gcc/nios2-elf/4.1.2/../../../../nios2-elf/lib\libc.a(lib_a-dtoa.o) (__gtdf2)
c:/altera/11.1/nios2eds/bin/gnu/h-i686-mingw32/bin/../lib/gcc/nios2-elf/4.1.2\libgcc.a(_ge_df.o)
                              c:/altera/11.1/nios2eds/bin/gnu/h-i686-mingw32/bin/../lib/gcc/nios2-elf/4.1.2/../../../../nios2-elf/lib\libc.a(lib_a-dtoa.o) (__gedf2)
c:/altera/11.1/nios2eds/bin/gnu/h-i686-mingw32/bin/../lib/gcc/nios2-elf/4.1.2\libgcc.a(_lt_df.o)
                              c:/altera/11.1/nios2eds/bin/gnu/h-i686-mingw32/bin/../lib/gcc/nios2-elf/4.1.2/../../../../nios2-elf/lib\libc.a(lib_a-vfprintf.o) (__ltdf2)
c:/altera/11.1/nios2eds/bin/gnu/h-i686-mingw32/bin/../lib/gcc/nios2-elf/4.1.2\libgcc.a(_si_to_df.o)
                              c:/altera/11.1/nios2eds/bin/gnu/h-i686-mingw32/bin/../lib/gcc/nios2-elf/4.1.2/../../../../nios2-elf/lib\libc.a(lib_a-dtoa.o) (__floatsidf)
c:/altera/11.1/nios2eds/bin/gnu/h-i686-mingw32/bin/../lib/gcc/nios2-elf/4.1.2\libgcc.a(_df_to_si.o)
                              c:/altera/11.1/nios2eds/bin/gnu/h-i686-mingw32/bin/../lib/gcc/nios2-elf/4.1.2/../../../../nios2-elf/lib\libc.a(lib_a-dtoa.o) (__fixdfsi)
c:/altera/11.1/nios2eds/bin/gnu/h-i686-mingw32/bin/../lib/gcc/nios2-elf/4.1.2\libgcc.a(_usi_to_df.o)
                              c:/altera/11.1/nios2eds/bin/gnu/h-i686-mingw32/bin/../lib/gcc/nios2-elf/4.1.2/../../../../nios2-elf/lib\libc.a(lib_a-dtoa.o) (__floatunsidf)
c:/altera/11.1/nios2eds/bin/gnu/h-i686-mingw32/bin/../lib/gcc/nios2-elf/4.1.2\libgcc.a(_fpcmp_parts_df.o)
                              c:/altera/11.1/nios2eds/bin/gnu/h-i686-mingw32/bin/../lib/gcc/nios2-elf/4.1.2\libgcc.a(_eq_df.o) (__fpcmp_parts_d)
../DE2_SD_Card_Audio_bsp/\libhal_bsp.a(alt_close.o)
                              c:/altera/11.1/nios2eds/bin/gnu/h-i686-mingw32/bin/../lib/gcc/nios2-elf/4.1.2/../../../../nios2-elf/lib\libc.a(lib_a-closer.o) (close)
../DE2_SD_Card_Audio_bsp/\libhal_bsp.a(alt_dev.o)
                              ../DE2_SD_Card_Audio_bsp/\libhal_bsp.a(alt_close.o) (alt_fd_list)
../DE2_SD_Card_Audio_bsp/\libhal_bsp.a(alt_errno.o)
                              ../DE2_SD_Card_Audio_bsp/\libhal_bsp.a(alt_close.o) (alt_errno)
../DE2_SD_Card_Audio_bsp/\libhal_bsp.a(alt_fstat.o)
                              c:/altera/11.1/nios2eds/bin/gnu/h-i686-mingw32/bin/../lib/gcc/nios2-elf/4.1.2/../../../../nios2-elf/lib\libc.a(lib_a-fstatr.o) (fstat)
../DE2_SD_Card_Audio_bsp/\libhal_bsp.a(alt_irq_register.o)
                              obj/default/main.o (alt_irq_register)
../DE2_SD_Card_Audio_bsp/\libhal_bsp.a(alt_irq_vars.o)
                              ../DE2_SD_Card_Audio_bsp/\libhal_bsp.a(alt_irq_register.o) (alt_irq_active)
../DE2_SD_Card_Audio_bsp/\libhal_bsp.a(alt_isatty.o)
                              c:/altera/11.1/nios2eds/bin/gnu/h-i686-mingw32/bin/../lib/gcc/nios2-elf/4.1.2/../../../../nios2-elf/lib\libc.a(lib_a-isattyr.o) (isatty)
../DE2_SD_Card_Audio_bsp/\libhal_bsp.a(alt_load.o)
                              ../DE2_SD_Card_Audio_bsp//obj/HAL/src/crt0.o (alt_load)
../DE2_SD_Card_Audio_bsp/\libhal_bsp.a(alt_lseek.o)
                              c:/altera/11.1/nios2eds/bin/gnu/h-i686-mingw32/bin/../lib/gcc/nios2-elf/4.1.2/../../../../nios2-elf/lib\libc.a(lib_a-lseekr.o) (lseek)
../DE2_SD_Card_Audio_bsp/\libhal_bsp.a(alt_main.o)
                              ../DE2_SD_Card_Audio_bsp//obj/HAL/src/crt0.o (alt_main)
../DE2_SD_Card_Audio_bsp/\libhal_bsp.a(alt_malloc_lock.o)
                              c:/altera/11.1/nios2eds/bin/gnu/h-i686-mingw32/bin/../lib/gcc/nios2-elf/4.1.2/../../../../nios2-elf/lib\libc.a(lib_a-freer.o) (__malloc_lock)
../DE2_SD_Card_Audio_bsp/\libhal_bsp.a(alt_open.o)
                              c:/altera/11.1/nios2eds/bin/gnu/h-i686-mingw32/bin/../lib/gcc/nios2-elf/4.1.2/../../../../nios2-elf/lib\libc.a(lib_a-openr.o) (open)
../DE2_SD_Card_Audio_bsp/\libhal_bsp.a(alt_read.o)
                              c:/altera/11.1/nios2eds/bin/gnu/h-i686-mingw32/bin/../lib/gcc/nios2-elf/4.1.2/../../../../nios2-elf/lib\libc.a(lib_a-readr.o) (read)
../DE2_SD_Card_Audio_bsp/\libhal_bsp.a(alt_release_fd.o)
                              ../DE2_SD_Card_Audio_bsp/\libhal_bsp.a(alt_close.o) (alt_release_fd)
../DE2_SD_Card_Audio_bsp/\libhal_bsp.a(alt_sbrk.o)
                              c:/altera/11.1/nios2eds/bin/gnu/h-i686-mingw32/bin/../lib/gcc/nios2-elf/4.1.2/../../../../nios2-elf/lib\libc.a(lib_a-sbrkr.o) (sbrk)
../DE2_SD_Card_Audio_bsp/\libhal_bsp.a(alt_tick.o)
                              obj/default/main.o (_alt_tick_rate)
../DE2_SD_Card_Audio_bsp/\libhal_bsp.a(alt_usleep.o)
                              obj/default/main.o (usleep)
../DE2_SD_Card_Audio_bsp/\libhal_bsp.a(alt_write.o)
                              c:/altera/11.1/nios2eds/bin/gnu/h-i686-mingw32/bin/../lib/gcc/nios2-elf/4.1.2/../../../../nios2-elf/lib\libc.a(lib_a-writer.o) (write)
../DE2_SD_Card_Audio_bsp/\libhal_bsp.a(alt_sys_init.o)
                              ../DE2_SD_Card_Audio_bsp/\libhal_bsp.a(alt_main.o) (alt_irq_init)
../DE2_SD_Card_Audio_bsp/\libhal_bsp.a(altera_avalon_cfi_flash.o)
                              ../DE2_SD_Card_Audio_bsp/\libhal_bsp.a(alt_sys_init.o) (alt_flash_cfi_init)
../DE2_SD_Card_Audio_bsp/\libhal_bsp.a(altera_avalon_cfi_flash_table.o)
                              ../DE2_SD_Card_Audio_bsp/\libhal_bsp.a(altera_avalon_cfi_flash.o) (alt_set_flash_width_func)
../DE2_SD_Card_Audio_bsp/\libhal_bsp.a(altera_avalon_epcs_flash_controller.o)
                              ../DE2_SD_Card_Audio_bsp/\libhal_bsp.a(alt_sys_init.o) (alt_epcs_flash_init)
../DE2_SD_Card_Audio_bsp/\libhal_bsp.a(altera_avalon_jtag_uart_fd.o)
                              ../DE2_SD_Card_Audio_bsp/\libhal_bsp.a(alt_sys_init.o) (altera_avalon_jtag_uart_read_fd)
../DE2_SD_Card_Audio_bsp/\libhal_bsp.a(altera_avalon_jtag_uart_init.o)
                              ../DE2_SD_Card_Audio_bsp/\libhal_bsp.a(alt_sys_init.o) (altera_avalon_jtag_uart_init)
../DE2_SD_Card_Audio_bsp/\libhal_bsp.a(altera_avalon_jtag_uart_ioctl.o)
                              ../DE2_SD_Card_Audio_bsp/\libhal_bsp.a(altera_avalon_jtag_uart_fd.o) (altera_avalon_jtag_uart_ioctl)
../DE2_SD_Card_Audio_bsp/\libhal_bsp.a(altera_avalon_jtag_uart_read.o)
                              ../DE2_SD_Card_Audio_bsp/\libhal_bsp.a(altera_avalon_jtag_uart_fd.o) (altera_avalon_jtag_uart_read)
../DE2_SD_Card_Audio_bsp/\libhal_bsp.a(altera_avalon_jtag_uart_write.o)
                              ../DE2_SD_Card_Audio_bsp/\libhal_bsp.a(altera_avalon_jtag_uart_fd.o) (altera_avalon_jtag_uart_write)
../DE2_SD_Card_Audio_bsp/\libhal_bsp.a(altera_avalon_lcd_16207.o)
                              ../DE2_SD_Card_Audio_bsp/\libhal_bsp.a(alt_sys_init.o) (altera_avalon_lcd_16207_init)
../DE2_SD_Card_Audio_bsp/\libhal_bsp.a(altera_avalon_lcd_16207_fd.o)
                              ../DE2_SD_Card_Audio_bsp/\libhal_bsp.a(alt_sys_init.o) (altera_avalon_lcd_16207_write_fd)
../DE2_SD_Card_Audio_bsp/\libhal_bsp.a(altera_avalon_timer_sc.o)
                              ../DE2_SD_Card_Audio_bsp/\libhal_bsp.a(alt_sys_init.o) (alt_avalon_timer_sc_init)
../DE2_SD_Card_Audio_bsp/\libhal_bsp.a(altera_avalon_timer_vars.o)
                              ../DE2_SD_Card_Audio_bsp/\libhal_bsp.a(alt_sys_init.o) (altera_avalon_timer_ts_base)
../DE2_SD_Card_Audio_bsp/\libhal_bsp.a(altera_avalon_uart_fd.o)
                              ../DE2_SD_Card_Audio_bsp/\libhal_bsp.a(alt_sys_init.o) (altera_avalon_uart_read_fd)
../DE2_SD_Card_Audio_bsp/\libhal_bsp.a(altera_avalon_uart_init.o)
                              ../DE2_SD_Card_Audio_bsp/\libhal_bsp.a(alt_sys_init.o) (altera_avalon_uart_init)
../DE2_SD_Card_Audio_bsp/\libhal_bsp.a(altera_avalon_uart_read.o)
                              ../DE2_SD_Card_Audio_bsp/\libhal_bsp.a(altera_avalon_uart_fd.o) (altera_avalon_uart_read)
../DE2_SD_Card_Audio_bsp/\libhal_bsp.a(altera_avalon_uart_write.o)
                              ../DE2_SD_Card_Audio_bsp/\libhal_bsp.a(altera_avalon_uart_fd.o) (altera_avalon_uart_write)
../DE2_SD_Card_Audio_bsp/\libhal_bsp.a(epcs_commands.o)
                              ../DE2_SD_Card_Audio_bsp/\libhal_bsp.a(altera_avalon_epcs_flash_controller.o) (epcs_sector_erase)
../DE2_SD_Card_Audio_bsp/\libhal_bsp.a(alt_alarm_start.o)
                              ../DE2_SD_Card_Audio_bsp/\libhal_bsp.a(altera_avalon_jtag_uart_init.o) (alt_alarm_start)
../DE2_SD_Card_Audio_bsp/\libhal_bsp.a(alt_busy_sleep.o)
                              ../DE2_SD_Card_Audio_bsp/\libhal_bsp.a(alt_usleep.o) (alt_busy_sleep)
../DE2_SD_Card_Audio_bsp/\libhal_bsp.a(alt_dcache_flush.o)
                              ../DE2_SD_Card_Audio_bsp/\libhal_bsp.a(altera_avalon_cfi_flash.o) (alt_dcache_flush)
../DE2_SD_Card_Audio_bsp/\libhal_bsp.a(alt_dcache_flush_all.o)
                              ../DE2_SD_Card_Audio_bsp/\libhal_bsp.a(alt_load.o) (alt_dcache_flush_all)
../DE2_SD_Card_Audio_bsp/\libhal_bsp.a(alt_dev_llist_insert.o)
                              ../DE2_SD_Card_Audio_bsp/\libhal_bsp.a(alt_sys_init.o) (alt_dev_llist_insert)
../DE2_SD_Card_Audio_bsp/\libhal_bsp.a(alt_do_ctors.o)
                              ../DE2_SD_Card_Audio_bsp/\libhal_bsp.a(alt_main.o) (_do_ctors)
../DE2_SD_Card_Audio_bsp/\libhal_bsp.a(alt_do_dtors.o)
                              ../DE2_SD_Card_Audio_bsp/\libhal_bsp.a(alt_main.o) (_do_dtors)
../DE2_SD_Card_Audio_bsp/\libhal_bsp.a(alt_find_dev.o)
                              ../DE2_SD_Card_Audio_bsp/\libhal_bsp.a(alt_open.o) (alt_find_dev)
../DE2_SD_Card_Audio_bsp/\libhal_bsp.a(alt_find_file.o)
                              ../DE2_SD_Card_Audio_bsp/\libhal_bsp.a(alt_open.o) (alt_find_file)
../DE2_SD_Card_Audio_bsp/\libhal_bsp.a(alt_flash_dev.o)
                              ../DE2_SD_Card_Audio_bsp/\libhal_bsp.a(altera_avalon_cfi_flash.o) (alt_flash_dev_list)
../DE2_SD_Card_Audio_bsp/\libhal_bsp.a(alt_get_fd.o)
                              ../DE2_SD_Card_Audio_bsp/\libhal_bsp.a(alt_open.o) (alt_get_fd)
../DE2_SD_Card_Audio_bsp/\libhal_bsp.a(alt_icache_flush_all.o)
                              ../DE2_SD_Card_Audio_bsp/\libhal_bsp.a(alt_load.o) (alt_icache_flush_all)
../DE2_SD_Card_Audio_bsp/\libhal_bsp.a(alt_iic.o)
                              ../DE2_SD_Card_Audio_bsp/\libhal_bsp.a(altera_avalon_jtag_uart_init.o) (alt_ic_isr_register)
../DE2_SD_Card_Audio_bsp/\libhal_bsp.a(alt_iic_isr_register.o)
                              ../DE2_SD_Card_Audio_bsp/\libhal_bsp.a(alt_iic.o) (alt_iic_isr_register)
../DE2_SD_Card_Audio_bsp/\libhal_bsp.a(alt_io_redirect.o)
                              ../DE2_SD_Card_Audio_bsp/\libhal_bsp.a(alt_main.o) (alt_io_redirect)
../DE2_SD_Card_Audio_bsp/\libhal_bsp.a(alt_irq_entry.o)
                              ../DE2_SD_Card_Audio_bsp/\libhal_bsp.a(alt_irq_register.o) (alt_irq_entry)
../DE2_SD_Card_Audio_bsp/\libhal_bsp.a(alt_irq_handler.o)
                              ../DE2_SD_Card_Audio_bsp/\libhal_bsp.a(alt_irq_register.o) (alt_irq_handler)
../DE2_SD_Card_Audio_bsp/\libhal_bsp.a(altera_nios2_qsys_irq.o)
                              ../DE2_SD_Card_Audio_bsp/\libhal_bsp.a(alt_sys_init.o) (altera_nios2_qsys_irq_init)
../DE2_SD_Card_Audio_bsp/\libhal_bsp.a(altera_avalon_cfi_flash_amd.o)
                              ../DE2_SD_Card_Audio_bsp/\libhal_bsp.a(altera_avalon_cfi_flash_table.o) (alt_program_amd)
../DE2_SD_Card_Audio_bsp/\libhal_bsp.a(altera_avalon_cfi_flash_intel.o)
                              ../DE2_SD_Card_Audio_bsp/\libhal_bsp.a(altera_avalon_cfi_flash_table.o) (alt_program_intel)
../DE2_SD_Card_Audio_bsp/\libhal_bsp.a(altera_avalon_spi.o)
                              ../DE2_SD_Card_Audio_bsp/\libhal_bsp.a(epcs_commands.o) (alt_avalon_spi_command)
../DE2_SD_Card_Audio_bsp/\libhal_bsp.a(alt_exception_entry.o)
                              ../DE2_SD_Card_Audio_bsp/\libhal_bsp.a(alt_irq_entry.o) (alt_exception)
../DE2_SD_Card_Audio_bsp/\libhal_bsp.a(alt_icache_flush.o)
                              ../DE2_SD_Card_Audio_bsp/\libhal_bsp.a(alt_icache_flush_all.o) (alt_icache_flush)
c:/altera/11.1/nios2eds/bin/gnu/h-i686-mingw32/bin/../lib/gcc/nios2-elf/4.1.2/../../../../nios2-elf/lib\libc.a(lib_a-atexit.o)
                              ../DE2_SD_Card_Audio_bsp/\libhal_bsp.a(alt_main.o) (atexit)
c:/altera/11.1/nios2eds/bin/gnu/h-i686-mingw32/bin/../lib/gcc/nios2-elf/4.1.2/../../../../nios2-elf/lib\libc.a(lib_a-exit.o)
                              ../DE2_SD_Card_Audio_bsp/\libhal_bsp.a(alt_main.o) (exit)
c:/altera/11.1/nios2eds/bin/gnu/h-i686-mingw32/bin/../lib/gcc/nios2-elf/4.1.2/../../../../nios2-elf/lib\libc.a(lib_a-memcmp.o)
                              ../DE2_SD_Card_Audio_bsp/\libhal_bsp.a(altera_avalon_cfi_flash.o) (memcmp)
c:/altera/11.1/nios2eds/bin/gnu/h-i686-mingw32/bin/../lib/gcc/nios2-elf/4.1.2/../../../../nios2-elf/lib\libc.a(lib_a-__atexit.o)
                              c:/altera/11.1/nios2eds/bin/gnu/h-i686-mingw32/bin/../lib/gcc/nios2-elf/4.1.2/../../../../nios2-elf/lib\libc.a(lib_a-atexit.o) (__register_exitproc)
c:/altera/11.1/nios2eds/bin/gnu/h-i686-mingw32/bin/../lib/gcc/nios2-elf/4.1.2/../../../../nios2-elf/lib\libc.a(lib_a-__call_atexit.o)
                              c:/altera/11.1/nios2eds/bin/gnu/h-i686-mingw32/bin/../lib/gcc/nios2-elf/4.1.2/../../../../nios2-elf/lib\libc.a(lib_a-exit.o) (__call_exitprocs)
../DE2_SD_Card_Audio_bsp/\libhal_bsp.a(alt_exit.o)
                              c:/altera/11.1/nios2eds/bin/gnu/h-i686-mingw32/bin/../lib/gcc/nios2-elf/4.1.2/../../../../nios2-elf/lib\libc.a(lib_a-exit.o) (_exit)

Allocating common symbols
Common symbol       size              file

alt_irq             0x100             ../DE2_SD_Card_Audio_bsp/\libhal_bsp.a(alt_irq_handler.o)
errno               0x4               c:/altera/11.1/nios2eds/bin/gnu/h-i686-mingw32/bin/../lib/gcc/nios2-elf/4.1.2/../../../../nios2-elf/lib\libc.a(lib_a-int_errno.o)
_atexit0            0x190             c:/altera/11.1/nios2eds/bin/gnu/h-i686-mingw32/bin/../lib/gcc/nios2-elf/4.1.2/../../../../nios2-elf/lib\libc.a(lib_a-atexit.o)

Memory Configuration

Name             Origin             Length             Attributes
cfi_flash_0      0x00000000         0x00400000
sram_0           0x00600000         0x00080000
epcs_controller  0x00681800         0x00000800
reset            0x01000000         0x00000020
sdram_0          0x01000020         0x007fffe0
*default*        0x00000000         0xffffffff

Linker script and memory map

LOAD ../DE2_SD_Card_Audio_bsp//obj/HAL/src/crt0.o
LOAD obj/default/main.o
LOAD obj/default/terasic_fat/FatFileSystem.o
LOAD obj/default/terasic_fat/FatInternal.o
LOAD obj/default/terasic_lib/AUDIO.o
LOAD obj/default/terasic_lib/I2C.o
LOAD obj/default/terasic_lib/LCD.o
LOAD obj/default/terasic_lib/LED.o
LOAD obj/default/terasic_lib/SEG7.o
LOAD obj/default/terasic_lib/WaveLib.o
LOAD obj/default/terasic_lib/debug.o
LOAD obj/default/terasic_sdcard/crc16.o
LOAD obj/default/terasic_sdcard/crc7.o
LOAD obj/default/terasic_sdcard/sd_hal.o
LOAD obj/default/terasic_sdcard/sd_lib.o
LOAD obj/default/terasic_sdcard/sd_protocol.o
LOAD c:/altera/11.1/nios2eds/bin/gnu/h-i686-mingw32/bin/../lib/gcc/nios2-elf/4.1.2/../../../../nios2-elf/lib\libstdc++.a
LOAD c:/altera/11.1/nios2eds/bin/gnu/h-i686-mingw32/bin/../lib/gcc/nios2-elf/4.1.2/../../../../nios2-elf/lib\libm.a
LOAD c:/altera/11.1/nios2eds/bin/gnu/h-i686-mingw32/bin/../lib/gcc/nios2-elf/4.1.2\libgcc.a
START GROUP
LOAD c:/altera/11.1/nios2eds/bin/gnu/h-i686-mingw32/bin/../lib/gcc/nios2-elf/4.1.2/../../../../nios2-elf/lib\libc.a
LOAD c:/altera/11.1/nios2eds/bin/gnu/h-i686-mingw32/bin/../lib/gcc/nios2-elf/4.1.2\libgcc.a
LOAD ../DE2_SD_Card_Audio_bsp/\libhal_bsp.a
END GROUP
LOAD c:/altera/11.1/nios2eds/bin/gnu/h-i686-mingw32/bin/../lib/gcc/nios2-elf/4.1.2\libgcc.a
                0x00000000                __alt_mem_cfi_flash_0 = 0x0
                0x00600000                __alt_mem_sram_0 = 0x600000
                0x00681800                __alt_mem_epcs_controller = 0x681800
                0x01000000                __alt_mem_sdram_0 = 0x1000000

.entry          0x01000000       0x20
 *(.entry)
 .entry         0x01000000       0x20 ../DE2_SD_Card_Audio_bsp//obj/HAL/src/crt0.o
                0x01000000                __reset

.exceptions     0x01000020      0x194
                0x01000020                PROVIDE (__ram_exceptions_start, ABSOLUTE (.))
                0x01000020                . = ALIGN (0x20)
 *(.irq)
 *(.exceptions.entry.label)
 .exceptions.entry.label
                0x01000020        0x0 ../DE2_SD_Card_Audio_bsp/\libhal_bsp.a(alt_irq_entry.o)
                0x01000020                alt_irq_entry
 .exceptions.entry.label
                0x01000020        0x0 ../DE2_SD_Card_Audio_bsp/\libhal_bsp.a(alt_exception_entry.o)
                0x01000020                alt_exception
 *(.exceptions.entry.user)
 *(.exceptions.entry)
 .exceptions.entry
                0x01000020       0x54 ../DE2_SD_Card_Audio_bsp/\libhal_bsp.a(alt_exception_entry.o)
 *(.exceptions.irqtest.user)
 *(.exceptions.irqtest)
 .exceptions.irqtest
                0x01000074       0x10 ../DE2_SD_Card_Audio_bsp/\libhal_bsp.a(alt_irq_entry.o)
 *(.exceptions.irqhandler.user)
 *(.exceptions.irqhandler)
 .exceptions.irqhandler
                0x01000084        0x4 ../DE2_SD_Card_Audio_bsp/\libhal_bsp.a(alt_irq_entry.o)
 *(.exceptions.irqreturn.user)
 *(.exceptions.irqreturn)
 .exceptions.irqreturn
                0x01000088        0x4 ../DE2_SD_Card_Audio_bsp/\libhal_bsp.a(alt_irq_entry.o)
 *(.exceptions.notirq.label)
 .exceptions.notirq.label
                0x0100008c        0x0 ../DE2_SD_Card_Audio_bsp/\libhal_bsp.a(alt_irq_entry.o)
 *(.exceptions.notirq.user)
 *(.exceptions.notirq)
 .exceptions.notirq
                0x0100008c        0x8 ../DE2_SD_Card_Audio_bsp/\libhal_bsp.a(alt_exception_entry.o)
 *(.exceptions.soft.user)
 *(.exceptions.soft)
 *(.exceptions.unknown.user)
 *(.exceptions.unknown)
 .exceptions.unknown
                0x01000094        0x4 ../DE2_SD_Card_Audio_bsp/\libhal_bsp.a(alt_exception_entry.o)
 *(.exceptions.exit.label)
 .exceptions.exit.label
                0x01000098        0x0 ../DE2_SD_Card_Audio_bsp/\libhal_bsp.a(alt_irq_entry.o)
 .exceptions.exit.label
                0x01000098        0x0 ../DE2_SD_Card_Audio_bsp/\libhal_bsp.a(alt_exception_entry.o)
 *(.exceptions.exit.user)
 *(.exceptions.exit)
 .exceptions.exit
                0x01000098       0x54 ../DE2_SD_Card_Audio_bsp/\libhal_bsp.a(alt_exception_entry.o)
 *(.exceptions)
 .exceptions    0x010000ec       0xc8 ../DE2_SD_Card_Audio_bsp/\libhal_bsp.a(alt_irq_handler.o)
                0x010000ec                alt_irq_handler
                0x010001b4                PROVIDE (__ram_exceptions_end, ABSOLUTE (.))
                0x01000020                PROVIDE (__flash_exceptions_start, LOADADDR (.exceptions))

.text           0x010001b4    0x1b9b0
                0x010001b4                PROVIDE (stext, ABSOLUTE (.))
 *(.interp)
 *(.hash)
 *(.dynsym)
 *(.dynstr)
 *(.gnu.version)
 *(.gnu.version_d)
 *(.gnu.version_r)
 *(.rel.init)
 *(.rela.init)
 *(.rel.text .rel.text.* .rel.gnu.linkonce.t.*)
 *(.rela.text .rela.text.* .rela.gnu.linkonce.t.*)
 *(.rel.fini)
 *(.rela.fini)
 *(.rel.rodata .rel.rodata.* .rel.gnu.linkonce.r.*)
 *(.rela.rodata .rela.rodata.* .rela.gnu.linkonce.r.*)
 *(.rel.data .rel.data.* .rel.gnu.linkonce.d.*)
 *(.rela.data .rela.data.* .rela.gnu.linkonce.d.*)
 *(.rel.tdata .rel.tdata.* .rel.gnu.linkonce.td.*)
 *(.rela.tdata .rela.tdata.* .rela.gnu.linkonce.td.*)
 *(.rel.tbss .rel.tbss.* .rel.gnu.linkonce.tb.*)
 *(.rela.tbss .rela.tbss.* .rela.gnu.linkonce.tb.*)
 *(.rel.ctors)
 *(.rela.ctors)
 *(.rel.dtors)
 *(.rela.dtors)
 *(.rel.got)
 *(.rela.got)
 *(.rel.sdata .rel.sdata.* .rel.gnu.linkonce.s.*)
 *(.rela.sdata .rela.sdata.* .rela.gnu.linkonce.s.*)
 *(.rel.sbss .rel.sbss.* .rel.gnu.linkonce.sb.*)
 *(.rela.sbss .rela.sbss.* .rela.gnu.linkonce.sb.*)
 *(.rel.sdata2 .rel.sdata2.* .rel.gnu.linkonce.s2.*)
 *(.rela.sdata2 .rela.sdata2.* .rela.gnu.linkonce.s2.*)
 *(.rel.sbss2 .rel.sbss2.* .rel.gnu.linkonce.sb2.*)
 *(.rela.sbss2 .rela.sbss2.* .rela.gnu.linkonce.sb2.*)
 *(.rel.bss .rel.bss.* .rel.gnu.linkonce.b.*)
 *(.rela.bss .rela.bss.* .rela.gnu.linkonce.b.*)
 *(.rel.plt)
 *(.rela.plt)
 *(.rel.dyn)
 *(.init)
 *(.plt)
 *(.text .stub .text.* .gnu.linkonce.t.*)
 .text          0x010001b4       0x4c ../DE2_SD_Card_Audio_bsp//obj/HAL/src/crt0.o
                0x010001b4                _start
 .text          0x01000200     0x1980 obj/default/main.o
                0x01000200                welcome_display
                0x01000268                demo_introduce
                0x01000304                update_status
                0x010003a0                DisplayTime
                0x010003f4                lcd_open
                0x0100041c                lcd_display
                0x01000450                led_display
                0x01000480                led_display_count
                0x010004b0                wait_sdcard_insert
                0x01000554                is_supporrted_sample_rate
                0x010005e0                build_wave_play_list
                0x010009d0                waveplay_start
                0x01000c4c                waveplay_execute
                0x01000f84                waveplay_stop
                0x01000fa0                handle_key
                0x01001198                IRDA_init
                0x010011e4                handle_IrDA
                0x010014f4                Fat_Test
                0x010017b8                main
 .text          0x01001b80     0x14e4 obj/default/terasic_fat/FatFileSystem.o
                0x01001b80                Fat_Mount
                0x01001bc8                Fat_Unmount
                0x01001c14                Fat_Type
                0x01001c84                Fat_FileBrowseBegin
                0x01001d00                Fat_FileBrowseNext
                0x010021f8                Fat_FileCount
                0x01002260                fatSameLongFilename
                0x01002300                fatComposeShortFilename
                0x010024d8                Fat_FileExist
                0x01002588                Fat_FileOpen
                0x010027c0                Fat_FileSize
                0x01002810                Fat_FileRead
                0x01002ce8                Fat_FileSeek
                0x01002e0c                Fat_FileClose
                0x01002e50                Fat_SpeedTest
 .text          0x01003064     0x1824 obj/default/terasic_fat/FatInternal.o
                0x01003064                fat16ClusterType
                0x0100311c                fat32ClusterType
                0x010031f0                fatNextCluster
                0x01003348                fatFindUnusedCluster
                0x010034c0                fatDelClusterList
                0x010036a4                fatDumpDate
                0x01003728                fatDumpTime
                0x010037ac                fatIsLastDir
                0x010037fc                fatIsValidDir
                0x010038a4                fatIsUnusedDir
                0x010038f4                fatDump
                0x01004004                fatArray2Value
                0x01004090                fatReadSecter
                0x01004120                fatFindDirectory
                0x010041c0                fatFindUnusedDirectory
                0x010042d4                fatMount
                0x010046a4                SD_ReadBlock512
                0x010046e0                SD_WriteBlock512
                0x0100471c                fatMountSdcard
 .text          0x01004888      0xd98 obj/default/terasic_lib/AUDIO.o
                0x01004888                AUDIO_Init
                0x01004a4c                AUDIO_InterfaceActive
                0x01004a8c                AUDIO_MicBoost
                0x01004b04                AUDIO_AdcEnableHighPassFilter
                0x01004b7c                AUDIO_DacDeemphasisControl
                0x01004c34                AUDIO_DacEnableZeroCross
                0x01004d14                AUDIO_DacEnableSoftMute
                0x01004da0                AUDIO_MicMute
                0x01004e2c                AUDIO_LineInMute
                0x01004f0c                AUDIO_SetInputSource
                0x01004f98                AUDIO_SetSampleRate
                0x01005084                AUDIO_SetLineInVol
                0x010051a0                AUDIO_SetLineOutVol
                0x010052bc                AUDIO_EnableByPass
                0x01005348                AUDIO_EnableSiteTone
                0x010053d4                aduio_RegWrite
                0x010054d0                AUDIO_DacFifoNotFull
                0x01005524                AUDIO_DacFifoSetData
                0x01005568                AUDIO_AdcFifoNotEmpty
                0x010055a0                AUDIO_AdcFifoGetData
                0x010055f4                AUDIO_FifoClear
 .text          0x01005620      0x718 obj/default/terasic_lib/I2C.o
                0x01005620                I2C_Write
                0x0100571c                I2C_Read
                0x01005844                I2C_MultipleRead
                0x010059c8                i2c_start
                0x01005a50                i2c_stop
                0x01005ac8                i2c_write
                0x01005bec                i2c_read
 .text          0x01005d38      0x184 obj/default/terasic_lib/LCD.o
                0x01005d38                LCD_Open
                0x01005d94                LCD_TextOut
                0x01005df8                LCD_Clear
                0x01005e80                LCD_Close
 .text          0x01005ebc      0x12c obj/default/terasic_lib/LED.o
                0x01005ebc                LED_AllOn
                0x01005ee8                LED_AllOff
                0x01005f14                LED_Display
                0x01005f64                LED_LightCount
 .text          0x01005fe8      0x2ec obj/default/terasic_lib/SEG7.o
                0x01005fe8                SEG7_Clear
                0x01006044                SEG7_Full
                0x010060a8                SEG7_Number
                0x01006120                SEG7_Hex
                0x010061f0                SEG7_Decimal
 .text          0x010062d4      0x534 obj/default/terasic_lib/WaveLib.o
                0x010062d4                waveGetChunkOffset
                0x01006408                WAVE_IsWaveFile
                0x0100655c                Wave_GetSampleRate
                0x010065f8                Wave_GetChannelNum
                0x01006680                Wave_GetSampleBitNum
                0x01006708                Wave_GetDataByteSize
                0x010067a4                Wave_GetWaveOffset
 .text          0x01006808      0x194 obj/default/terasic_lib/debug.o
                0x01006808                debug_output
                0x01006838                myprintf
                0x01006898                myprintf_hexarray
                0x01006918                myprintf_dwordarray
 .text          0x0100699c       0xa8 obj/default/terasic_sdcard/crc16.o
                0x0100699c                crc16
 .text          0x01006a44       0xc0 obj/default/terasic_sdcard/crc7.o
                0x01006a44                crc7_byte
                0x01006a90                crc7
 .text          0x01006b04      0x7b4 obj/default/terasic_sdcard/sd_hal.o
                0x01006b04                SDHAL_IsSupport4Bits
                0x01006b30                SDHAL_Init
                0x01006b94                SDHAL_SendCmd
                0x01006c88                SDHAL_GetResponse
                0x01006f28                SDHAL_ReadData
                0x01007080                SDHAL_WriteData
                0x0100725c                SDHAL_DummyClock
 .text          0x010072b8      0x4bc obj/default/terasic_sdcard/sd_lib.o
                0x010072b8                SDLIB_Init
                0x01007654                SDLIB_ReadBlock512
                0x010076e4                SDLIB_WriteBlock512
 .text          0x01007774     0x16f4 obj/default/terasic_sdcard/sd_protocol.o
                0x01007774                SD_Init
                0x0100779c                SD_IsSupport4Bits
                0x010077c4                SD_CMD0
                0x01007844                SD_CMD8
                0x010079d4                SD_CMD55
                0x01007b58                SD_ACMD41
                0x01007cfc                SD_CMD2
                0x01007ea0                SD_CMD3
                0x01008044                SD_CMD9
                0x01008218                SD_CMD10
                0x010083ec                SD_CMD7
                0x01008574                SD_CMD16
                0x01008714                SD_ACMD6
                0x010088ac                SD_ACMD42
                0x01008a28                SD_CMD17
                0x01008bcc                SD_CMD24
                0x01008d70                SD_ReadData
                0x01008db0                SD_WriteData
                0x01008df0                ArrayToU32
 .text          0x01008e68      0x1e0 c:/altera/11.1/nios2eds/bin/gnu/h-i686-mingw32/bin/../lib/gcc/nios2-elf/4.1.2\libgcc.a(_mul_sf.o)
                0x01008e68                __mulsf3
 .text          0x01009048      0x174 c:/altera/11.1/nios2eds/bin/gnu/h-i686-mingw32/bin/../lib/gcc/nios2-elf/4.1.2\libgcc.a(_div_sf.o)
                0x01009048                __divsf3
 .text          0x010091bc       0x54 c:/altera/11.1/nios2eds/bin/gnu/h-i686-mingw32/bin/../lib/gcc/nios2-elf/4.1.2\libgcc.a(_sf_to_df.o)
                0x010091bc                __extendsfdf2
 .text          0x01009210        0x0 c:/altera/11.1/nios2eds/bin/gnu/h-i686-mingw32/bin/../lib/gcc/nios2-elf/4.1.2\libgcc.a(_thenan_sf.o)
 .text          0x01009210       0xc0 c:/altera/11.1/nios2eds/bin/gnu/h-i686-mingw32/bin/../lib/gcc/nios2-elf/4.1.2\libgcc.a(_usi_to_sf.o)
                0x01009210                __floatunsisf
 .text          0x010092d0      0x258 c:/altera/11.1/nios2eds/bin/gnu/h-i686-mingw32/bin/../lib/gcc/nios2-elf/4.1.2\libgcc.a(_div_df.o)
                0x010092d0                __divdf3
 .text          0x01009528       0x38 c:/altera/11.1/nios2eds/bin/gnu/h-i686-mingw32/bin/../lib/gcc/nios2-elf/4.1.2\libgcc.a(_make_df.o)
                0x01009528                __make_dp
 .text          0x01009560       0x74 c:/altera/11.1/nios2eds/bin/gnu/h-i686-mingw32/bin/../lib/gcc/nios2-elf/4.1.2\libgcc.a(_df_to_sf.o)
                0x01009560                __truncdfsf2
 .text          0x010095d4        0x0 c:/altera/11.1/nios2eds/bin/gnu/h-i686-mingw32/bin/../lib/gcc/nios2-elf/4.1.2\libgcc.a(_thenan_df.o)
 .text          0x010095d4      0x14c c:/altera/11.1/nios2eds/bin/gnu/h-i686-mingw32/bin/../lib/gcc/nios2-elf/4.1.2\libgcc.a(lib2-divmod.o)
                0x01009650                __divsi3
                0x010096b0                __modsi3
                0x01009710                __udivsi3
                0x01009718                __umodsi3
 .text          0x01009720       0x98 c:/altera/11.1/nios2eds/bin/gnu/h-i686-mingw32/bin/../lib/gcc/nios2-elf/4.1.2\libgcc.a(_muldi3.o)
                0x01009720                __muldi3
 .text          0x010097b8       0x80 c:/altera/11.1/nios2eds/bin/gnu/h-i686-mingw32/bin/../lib/gcc/nios2-elf/4.1.2\libgcc.a(_clzsi2.o)
                0x010097b8                __clzsi2
 .text          0x01009838      0x160 c:/altera/11.1/nios2eds/bin/gnu/h-i686-mingw32/bin/../lib/gcc/nios2-elf/4.1.2\libgcc.a(_pack_sf.o)
                0x01009838                __pack_f
 .text          0x01009998       0xc8 c:/altera/11.1/nios2eds/bin/gnu/h-i686-mingw32/bin/../lib/gcc/nios2-elf/4.1.2\libgcc.a(_unpack_sf.o)
                0x01009998                __unpack_f
 .text          0x01009a60       0x2c c:/altera/11.1/nios2eds/bin/gnu/h-i686-mingw32/bin/../lib/gcc/nios2-elf/4.1.2\libgcc.a(_make_sf.o)
                0x01009a60                __make_fp
 .text          0x01009a8c      0x314 c:/altera/11.1/nios2eds/bin/gnu/h-i686-mingw32/bin/../lib/gcc/nios2-elf/4.1.2\libgcc.a(_pack_df.o)
                0x01009a8c                __pack_d
 .text          0x01009da0      0x138 c:/altera/11.1/nios2eds/bin/gnu/h-i686-mingw32/bin/../lib/gcc/nios2-elf/4.1.2\libgcc.a(_unpack_df.o)
                0x01009da0                __unpack_d
 .text          0x01009ed8        0x0 c:/altera/11.1/nios2eds/bin/gnu/h-i686-mingw32/bin/../lib/gcc/nios2-elf/4.1.2\libgcc.a(_clz.o)
 .text          0x01009ed8      0x124 c:/altera/11.1/nios2eds/bin/gnu/h-i686-mingw32/bin/../lib/gcc/nios2-elf/4.1.2/../../../../nios2-elf/lib\libc.a(lib_a-fclose.o)
                0x01009ed8                _fclose_r
                0x01009fe8                fclose
 .text          0x01009ffc      0x230 c:/altera/11.1/nios2eds/bin/gnu/h-i686-mingw32/bin/../lib/gcc/nios2-elf/4.1.2/../../../../nios2-elf/lib\libc.a(lib_a-fflush.o)
                0x01009ffc                _fflush_r
                0x0100a1f8                fflush
 .text          0x0100a22c      0x2c0 c:/altera/11.1/nios2eds/bin/gnu/h-i686-mingw32/bin/../lib/gcc/nios2-elf/4.1.2/../../../../nios2-elf/lib\libc.a(lib_a-findfp.o)
                0x0100a284                __sfp_lock_acquire
                0x0100a288                __sfp_lock_release
                0x0100a28c                __sinit_lock_acquire
                0x0100a290                __sinit_lock_release
                0x0100a294                __sinit
                0x0100a348                __fp_unlock_all
                0x0100a360                __fp_lock_all
                0x0100a378                _cleanup_r
                0x0100a384                _cleanup
                0x0100a394                __sfmoreglue
                0x0100a3fc                __sfp
 .text          0x0100a4ec      0x110 c:/altera/11.1/nios2eds/bin/gnu/h-i686-mingw32/bin/../lib/gcc/nios2-elf/4.1.2/../../../../nios2-elf/lib\libc.a(lib_a-fopen.o)
                0x0100a4ec                _fopen_r
                0x0100a5e0                fopen
 .text          0x0100a5fc      0x440 c:/altera/11.1/nios2eds/bin/gnu/h-i686-mingw32/bin/../lib/gcc/nios2-elf/4.1.2/../../../../nios2-elf/lib\libc.a(lib_a-freer.o)
                0x0100a5fc                _malloc_trim_r
                0x0100a728                _free_r
 .text          0x0100aa3c      0x460 c:/altera/11.1/nios2eds/bin/gnu/h-i686-mingw32/bin/../lib/gcc/nios2-elf/4.1.2/../../../../nios2-elf/lib\libc.a(lib_a-fseek.o)
                0x0100aa3c                _fseek_r
                0x0100ae78                fseek
 .text          0x0100ae9c       0x74 c:/altera/11.1/nios2eds/bin/gnu/h-i686-mingw32/bin/../lib/gcc/nios2-elf/4.1.2/../../../../nios2-elf/lib\libc.a(lib_a-fstatr.o)
                0x0100ae9c                _fstat_r
 .text          0x0100af10      0x180 c:/altera/11.1/nios2eds/bin/gnu/h-i686-mingw32/bin/../lib/gcc/nios2-elf/4.1.2/../../../../nios2-elf/lib\libc.a(lib_a-fwalk.o)
                0x0100af10                _fwalk_reent
                0x0100afd8                _fwalk
 .text          0x0100b090       0xdc c:/altera/11.1/nios2eds/bin/gnu/h-i686-mingw32/bin/../lib/gcc/nios2-elf/4.1.2/../../../../nios2-elf/lib\libc.a(lib_a-fwrite.o)
                0x0100b090                _fwrite_r
                0x0100b12c                fwrite
 .text          0x0100b16c        0x0 c:/altera/11.1/nios2eds/bin/gnu/h-i686-mingw32/bin/../lib/gcc/nios2-elf/4.1.2/../../../../nios2-elf/lib\libc.a(lib_a-impure.o)
 .text          0x0100b16c        0x0 c:/altera/11.1/nios2eds/bin/gnu/h-i686-mingw32/bin/../lib/gcc/nios2-elf/4.1.2/../../../../nios2-elf/lib\libc.a(lib_a-int_errno.o)
 .text          0x0100b16c      0x194 c:/altera/11.1/nios2eds/bin/gnu/h-i686-mingw32/bin/../lib/gcc/nios2-elf/4.1.2/../../../../nios2-elf/lib\libc.a(lib_a-makebuf.o)
                0x0100b16c                __smakebuf_r
 .text          0x0100b300       0x28 c:/altera/11.1/nios2eds/bin/gnu/h-i686-mingw32/bin/../lib/gcc/nios2-elf/4.1.2/../../../../nios2-elf/lib\libc.a(lib_a-malloc.o)
                0x0100b300                free
                0x0100b314                malloc
 .text          0x0100b328      0x740 c:/altera/11.1/nios2eds/bin/gnu/h-i686-mingw32/bin/../lib/gcc/nios2-elf/4.1.2/../../../../nios2-elf/lib\libc.a(lib_a-mallocr.o)
                0x0100b328                _malloc_r
 .text          0x0100ba68       0xa0 c:/altera/11.1/nios2eds/bin/gnu/h-i686-mingw32/bin/../lib/gcc/nios2-elf/4.1.2/../../../../nios2-elf/lib\libc.a(lib_a-memcpy.o)
                0x0100ba68                memcpy
 .text          0x0100bb08       0x98 c:/altera/11.1/nios2eds/bin/gnu/h-i686-mingw32/bin/../lib/gcc/nios2-elf/4.1.2/../../../../nios2-elf/lib\libc.a(lib_a-memset.o)
                0x0100bb08                memset
 .text          0x0100bba0       0x78 c:/altera/11.1/nios2eds/bin/gnu/h-i686-mingw32/bin/../lib/gcc/nios2-elf/4.1.2/../../../../nios2-elf/lib\libc.a(lib_a-openr.o)
                0x0100bba0                _open_r
 .text          0x0100bc18       0x78 c:/altera/11.1/nios2eds/bin/gnu/h-i686-mingw32/bin/../lib/gcc/nios2-elf/4.1.2/../../../../nios2-elf/lib\libc.a(lib_a-printf.o)
                0x0100bc18                printf
                0x0100bc5c                _printf_r
 .text          0x0100bc90       0x24 c:/altera/11.1/nios2eds/bin/gnu/h-i686-mingw32/bin/../lib/gcc/nios2-elf/4.1.2/../../../../nios2-elf/lib\libc.a(lib_a-putchar.o)
                0x0100bc90                putchar
                0x0100bcac                _putchar_r
 .text          0x0100bcb4       0xb4 c:/altera/11.1/nios2eds/bin/gnu/h-i686-mingw32/bin/../lib/gcc/nios2-elf/4.1.2/../../../../nios2-elf/lib\libc.a(lib_a-puts.o)
                0x0100bcb4                _puts_r
                0x0100bd54                puts
 .text          0x0100bd68      0x1e0 c:/altera/11.1/nios2eds/bin/gnu/h-i686-mingw32/bin/../lib/gcc/nios2-elf/4.1.2/../../../../nios2-elf/lib\libc.a(lib_a-refill.o)
                0x0100bd68                __srefill_r
 .text          0x0100bf48       0x70 c:/altera/11.1/nios2eds/bin/gnu/h-i686-mingw32/bin/../lib/gcc/nios2-elf/4.1.2/../../../../nios2-elf/lib\libc.a(lib_a-sbrkr.o)
                0x0100bf48                _sbrk_r
 .text          0x0100bfb8       0xd4 c:/altera/11.1/nios2eds/bin/gnu/h-i686-mingw32/bin/../lib/gcc/nios2-elf/4.1.2/../../../../nios2-elf/lib\libc.a(lib_a-sprintf.o)
                0x0100bfb8                sprintf
                0x0100c02c                _sprintf_r
 .text          0x0100c08c      0x14c c:/altera/11.1/nios2eds/bin/gnu/h-i686-mingw32/bin/../lib/gcc/nios2-elf/4.1.2/../../../../nios2-elf/lib\libc.a(lib_a-stdio.o)
                0x0100c08c                __sclose
                0x0100c094                __sseek
                0x0100c0fc                __swrite
                0x0100c178                __sread
 .text          0x0100c1d8       0xb0 c:/altera/11.1/nios2eds/bin/gnu/h-i686-mingw32/bin/../lib/gcc/nios2-elf/4.1.2/../../../../nios2-elf/lib\libc.a(lib_a-strcasecmp.o)
                0x0100c1d8                strcasecmp
 .text          0x0100c288       0xbc c:/altera/11.1/nios2eds/bin/gnu/h-i686-mingw32/bin/../lib/gcc/nios2-elf/4.1.2/../../../../nios2-elf/lib\libc.a(lib_a-strcmp.o)
                0x0100c288                strcmp
 .text          0x0100c344       0x8c c:/altera/11.1/nios2eds/bin/gnu/h-i686-mingw32/bin/../lib/gcc/nios2-elf/4.1.2/../../../../nios2-elf/lib\libc.a(lib_a-strcpy.o)
                0x0100c344                strcpy
 .text          0x0100c3d0       0x74 c:/altera/11.1/nios2eds/bin/gnu/h-i686-mingw32/bin/../lib/gcc/nios2-elf/4.1.2/../../../../nios2-elf/lib\libc.a(lib_a-strlen.o)
                0x0100c3d0                strlen
 .text          0x0100c444     0x1f28 c:/altera/11.1/nios2eds/bin/gnu/h-i686-mingw32/bin/../lib/gcc/nios2-elf/4.1.2/../../../../nios2-elf/lib\libc.a(lib_a-vfprintf.o)
                0x0100c49c                ___vfprintf_internal_r
                0x0100e348                __vfprintf_internal
 .text          0x0100e36c       0xf4 c:/altera/11.1/nios2eds/bin/gnu/h-i686-mingw32/bin/../lib/gcc/nios2-elf/4.1.2/../../../../nios2-elf/lib\libc.a(lib_a-vsnprintf.o)
                0x0100e36c                _vsnprintf_r
                0x0100e420                vsnprintf
 .text          0x0100e460       0x78 c:/altera/11.1/nios2eds/bin/gnu/h-i686-mingw32/bin/../lib/gcc/nios2-elf/4.1.2/../../../../nios2-elf/lib\libc.a(lib_a-writer.o)
                0x0100e460                _write_r
 .text          0x0100e4d8      0x13c c:/altera/11.1/nios2eds/bin/gnu/h-i686-mingw32/bin/../lib/gcc/nios2-elf/4.1.2/../../../../nios2-elf/lib\libc.a(lib_a-wsetup.o)
                0x0100e4d8                __swsetup_r
 .text          0x0100e614       0x70 c:/altera/11.1/nios2eds/bin/gnu/h-i686-mingw32/bin/../lib/gcc/nios2-elf/4.1.2/../../../../nios2-elf/lib\libc.a(lib_a-closer.o)
                0x0100e614                _close_r
 .text          0x0100e684        0x0 c:/altera/11.1/nios2eds/bin/gnu/h-i686-mingw32/bin/../lib/gcc/nios2-elf/4.1.2/../../../../nios2-elf/lib\libc.a(lib_a-ctype_.o)
 .text          0x0100e684     0x17cc c:/altera/11.1/nios2eds/bin/gnu/h-i686-mingw32/bin/../lib/gcc/nios2-elf/4.1.2/../../../../nios2-elf/lib\libc.a(lib_a-dtoa.o)
                0x0100e89c                _dtoa_r
 .text          0x0100fe50       0xa0 c:/altera/11.1/nios2eds/bin/gnu/h-i686-mingw32/bin/../lib/gcc/nios2-elf/4.1.2/../../../../nios2-elf/lib\libc.a(lib_a-flags.o)
                0x0100fe50                __sflags
 .text          0x0100fef0      0x49c c:/altera/11.1/nios2eds/bin/gnu/h-i686-mingw32/bin/../lib/gcc/nios2-elf/4.1.2/../../../../nios2-elf/lib\libc.a(lib_a-fvwrite.o)
                0x0100fef0                __sfvwrite_r
 .text          0x0101038c       0x70 c:/altera/11.1/nios2eds/bin/gnu/h-i686-mingw32/bin/../lib/gcc/nios2-elf/4.1.2/../../../../nios2-elf/lib\libc.a(lib_a-isattyr.o)
                0x0101038c                _isatty_r
 .text          0x010103fc       0xc4 c:/altera/11.1/nios2eds/bin/gnu/h-i686-mingw32/bin/../lib/gcc/nios2-elf/4.1.2/../../../../nios2-elf/lib\libc.a(lib_a-locale.o)
                0x010103fc                __locale_charset
                0x01010404                _localeconv_r
                0x01010410                localeconv
                0x01010420                _setlocale_r
                0x010104a4                setlocale
 .text          0x010104c0       0x78 c:/altera/11.1/nios2eds/bin/gnu/h-i686-mingw32/bin/../lib/gcc/nios2-elf/4.1.2/../../../../nios2-elf/lib\libc.a(lib_a-lseekr.o)
                0x010104c0                _lseek_r
 .text          0x01010538       0xe4 c:/altera/11.1/nios2eds/bin/gnu/h-i686-mingw32/bin/../lib/gcc/nios2-elf/4.1.2/../../../../nios2-elf/lib\libc.a(lib_a-memchr.o)
                0x01010538                memchr
 .text          0x0101061c       0xe0 c:/altera/11.1/nios2eds/bin/gnu/h-i686-mingw32/bin/../lib/gcc/nios2-elf/4.1.2/../../../../nios2-elf/lib\libc.a(lib_a-memmove.o)
                0x0101061c                memmove
 .text          0x010106fc      0xff4 c:/altera/11.1/nios2eds/bin/gnu/h-i686-mingw32/bin/../lib/gcc/nios2-elf/4.1.2/../../../../nios2-elf/lib\libc.a(lib_a-mprec.o)
                0x010106fc                _Bfree
                0x01010724                __hi0bits
                0x01010794                __lo0bits
                0x01010858                __mcmp
                0x010108b8                __ulp
                0x01010938                __b2d
                0x01010a58                __ratio
                0x01010b08                _mprec_log10
                0x01010b9c                __copybits
                0x01010bf4                __any_on
                0x01010c7c                _Balloc
                0x01010d38                __d2b
                0x01010eb4                __mdiff
                0x01011040                __lshift
                0x0101118c                __multiply
                0x01011374                __i2b
                0x010113b0                __multadd
                0x010114b0                __pow5mult
                0x010115d0                __s2b
 .text          0x010116f0      0x1ec c:/altera/11.1/nios2eds/bin/gnu/h-i686-mingw32/bin/../lib/gcc/nios2-elf/4.1.2/../../../../nios2-elf/lib\libc.a(lib_a-putc.o)
                0x010116f0                putc
                0x010117f4                _putc_r
 .text          0x010118dc       0x78 c:/altera/11.1/nios2eds/bin/gnu/h-i686-mingw32/bin/../lib/gcc/nios2-elf/4.1.2/../../../../nios2-elf/lib\libc.a(lib_a-readr.o)
                0x010118dc                _read_r
 .text          0x01011954      0x5f4 c:/altera/11.1/nios2eds/bin/gnu/h-i686-mingw32/bin/../lib/gcc/nios2-elf/4.1.2/../../../../nios2-elf/lib\libc.a(lib_a-reallocr.o)
                0x01011954                _realloc_r
 .text          0x01011f48       0x40 c:/altera/11.1/nios2eds/bin/gnu/h-i686-mingw32/bin/../lib/gcc/nios2-elf/4.1.2/../../../../nios2-elf/lib\libc.a(lib_a-s_isinfd.o)
                0x01011f48                __isinfd
 .text          0x01011f88       0x30 c:/altera/11.1/nios2eds/bin/gnu/h-i686-mingw32/bin/../lib/gcc/nios2-elf/4.1.2/../../../../nios2-elf/lib\libc.a(lib_a-s_isnand.o)
                0x01011f88                __isnand
 .text          0x01011fb8      0x14c c:/altera/11.1/nios2eds/bin/gnu/h-i686-mingw32/bin/../lib/gcc/nios2-elf/4.1.2/../../../../nios2-elf/lib\libc.a(lib_a-wbuf.o)
                0x01011fb8                __swbuf_r
                0x010120e8                __swbuf
 .text          0x01012104       0xb4 c:/altera/11.1/nios2eds/bin/gnu/h-i686-mingw32/bin/../lib/gcc/nios2-elf/4.1.2/../../../../nios2-elf/lib\libc.a(lib_a-callocr.o)
                0x01012104                _calloc_r
 .text          0x010121b8      0x5dc c:/altera/11.1/nios2eds/bin/gnu/h-i686-mingw32/bin/../lib/gcc/nios2-elf/4.1.2\libgcc.a(_udivdi3.o)
                0x010121b8                __udivdi3
 .text          0x01012794      0x5b0 c:/altera/11.1/nios2eds/bin/gnu/h-i686-mingw32/bin/../lib/gcc/nios2-elf/4.1.2\libgcc.a(_umoddi3.o)
                0x01012794                __umoddi3
 .text          0x01012d44      0x504 c:/altera/11.1/nios2eds/bin/gnu/h-i686-mingw32/bin/../lib/gcc/nios2-elf/4.1.2\libgcc.a(_addsub_df.o)
                0x01013154                __subdf3
                0x010131d4                __adddf3
 .text          0x01013248      0x3c4 c:/altera/11.1/nios2eds/bin/gnu/h-i686-mingw32/bin/../lib/gcc/nios2-elf/4.1.2\libgcc.a(_mul_df.o)
                0x01013248                __muldf3
 .text          0x0101360c       0x88 c:/altera/11.1/nios2eds/bin/gnu/h-i686-mingw32/bin/../lib/gcc/nios2-elf/4.1.2\libgcc.a(_eq_df.o)
                0x0101360c                __eqdf2
 .text          0x01013694       0x88 c:/altera/11.1/nios2eds/bin/gnu/h-i686-mingw32/bin/../lib/gcc/nios2-elf/4.1.2\libgcc.a(_ne_df.o)
                0x01013694                __nedf2
 .text          0x0101371c       0x88 c:/altera/11.1/nios2eds/bin/gnu/h-i686-mingw32/bin/../lib/gcc/nios2-elf/4.1.2\libgcc.a(_gt_df.o)
                0x0101371c                __gtdf2
 .text          0x010137a4       0x88 c:/altera/11.1/nios2eds/bin/gnu/h-i686-mingw32/bin/../lib/gcc/nios2-elf/4.1.2\libgcc.a(_ge_df.o)
                0x010137a4                __gedf2
 .text          0x0101382c       0x88 c:/altera/11.1/nios2eds/bin/gnu/h-i686-mingw32/bin/../lib/gcc/nios2-elf/4.1.2\libgcc.a(_lt_df.o)
                0x0101382c                __ltdf2
 .text          0x010138b4       0xf8 c:/altera/11.1/nios2eds/bin/gnu/h-i686-mingw32/bin/../lib/gcc/nios2-elf/4.1.2\libgcc.a(_si_to_df.o)
                0x010138b4                __floatsidf
 .text          0x010139ac       0xd8 c:/altera/11.1/nios2eds/bin/gnu/h-i686-mingw32/bin/../lib/gcc/nios2-elf/4.1.2\libgcc.a(_df_to_si.o)
                0x010139ac                __fixdfsi
 .text          0x01013a84      0x194 c:/altera/11.1/nios2eds/bin/gnu/h-i686-mingw32/bin/../lib/gcc/nios2-elf/4.1.2\libgcc.a(_usi_to_df.o)
                0x01013a84                __floatunsidf
 .text          0x01013c18       0xc8 c:/altera/11.1/nios2eds/bin/gnu/h-i686-mingw32/bin/../lib/gcc/nios2-elf/4.1.2\libgcc.a(_fpcmp_parts_df.o)
                0x01013c18                __fpcmp_parts_d
 .text          0x01013ce0      0x15c ../DE2_SD_Card_Audio_bsp/\libhal_bsp.a(alt_close.o)
                0x01013ce0                close
 .text          0x01013e3c       0x2c ../DE2_SD_Card_Audio_bsp/\libhal_bsp.a(alt_dev.o)
 .text          0x01013e68        0x0 ../DE2_SD_Card_Audio_bsp/\libhal_bsp.a(alt_errno.o)
 .text          0x01013e68      0x134 ../DE2_SD_Card_Audio_bsp/\libhal_bsp.a(alt_fstat.o)
                0x01013e68                fstat
 .text          0x01013f9c      0x1c0 ../DE2_SD_Card_Audio_bsp/\libhal_bsp.a(alt_irq_register.o)
                0x01013f9c                alt_irq_register
 .text          0x0101415c        0x0 ../DE2_SD_Card_Audio_bsp/\libhal_bsp.a(alt_irq_vars.o)
 .text          0x0101415c      0x120 ../DE2_SD_Card_Audio_bsp/\libhal_bsp.a(alt_isatty.o)
                0x0101415c                isatty
 .text          0x0101427c       0xec ../DE2_SD_Card_Audio_bsp/\libhal_bsp.a(alt_load.o)
                0x0101427c                alt_load
 .text          0x01014368      0x150 ../DE2_SD_Card_Audio_bsp/\libhal_bsp.a(alt_lseek.o)
                0x01014368                lseek
 .text          0x010144b8       0x6c ../DE2_SD_Card_Audio_bsp/\libhal_bsp.a(alt_main.o)
                0x010144b8                alt_main
 .text          0x01014524       0x40 ../DE2_SD_Card_Audio_bsp/\libhal_bsp.a(alt_malloc_lock.o)
                0x01014524                __malloc_lock
                0x01014544                __malloc_unlock
 .text          0x01014564      0x2c4 ../DE2_SD_Card_Audio_bsp/\libhal_bsp.a(alt_open.o)
                0x01014640                open
 .text          0x01014828      0x180 ../DE2_SD_Card_Audio_bsp/\libhal_bsp.a(alt_read.o)
                0x01014828                read
 .text          0x010149a8       0x60 ../DE2_SD_Card_Audio_bsp/\libhal_bsp.a(alt_release_fd.o)
                0x010149a8                alt_release_fd
 .text          0x01014a08       0xbc ../DE2_SD_Card_Audio_bsp/\libhal_bsp.a(alt_sbrk.o)
                0x01014a08                sbrk
 .text          0x01014ac4      0x1a4 ../DE2_SD_Card_Audio_bsp/\libhal_bsp.a(alt_tick.o)
                0x01014ac4                alt_alarm_stop
                0x01014b5c                alt_tick
 .text          0x01014c68       0x30 ../DE2_SD_Card_Audio_bsp/\libhal_bsp.a(alt_usleep.o)
                0x01014c68                usleep
 .text          0x01014c98      0x180 ../DE2_SD_Card_Audio_bsp/\libhal_bsp.a(alt_write.o)
                0x01014c98                write
 .text          0x01014e18      0x140 ../DE2_SD_Card_Audio_bsp/\libhal_bsp.a(alt_sys_init.o)
                0x01014e18                alt_irq_init
                0x01014e4c                alt_sys_init
 .text          0x01014f58      0x8c8 ../DE2_SD_Card_Audio_bsp/\libhal_bsp.a(altera_avalon_cfi_flash.o)
                0x01014f58                alt_flash_cfi_init
                0x0101502c                alt_flash_cfi_write
                0x010152ec                alt_flash_cfi_get_info
                0x0101537c                alt_flash_cfi_read
                0x010153e4                alt_write_value_to_flash
                0x01015548                alt_flash_program_block
 .text          0x01015820     0x1448 ../DE2_SD_Card_Audio_bsp/\libhal_bsp.a(altera_avalon_cfi_flash_table.o)
                0x01015820                alt_read_query_entry_8bit
                0x01015860                alt_read_query_entry_16bit
                0x010158a4                alt_read_query_entry_32bit
                0x010158ec                alt_write_flash_command_8bit_device_8bit_mode
                0x01015928                alt_write_flash_command_16bit_device_8bit_mode
                0x010159a4                alt_write_flash_command_32bit_device_8bit_mode
                0x010159ec                alt_write_flash_command_16bit_device_16bit_mode
                0x01015a30                alt_write_flash_command_32bit_device_16bit_mode
                0x01015a78                alt_write_flash_command_32bit_device_32bit_mode
                0x01015ac0                alt_write_native_8bit
                0x01015af4                alt_write_native_16bit
                0x01015b28                alt_write_native_32bit
                0x01015b58                alt_set_flash_width_func
                0x01015d38                alt_set_flash_algorithm_func
                0x01015e60                alt_read_cfi_table
                0x010163e0                alt_read_cfi_width
                0x01016b8c                alt_check_primary_table
 .text          0x01016c68      0x934 ../DE2_SD_Card_Audio_bsp/\libhal_bsp.a(altera_avalon_epcs_flash_controller.o)
                0x01016c68                alt_epcs_flash_init
                0x01016fe8                alt_epcs_flash_write
                0x01017268                alt_epcs_flash_get_info
                0x010172f8                alt_epcs_flash_erase_block
                0x01017400                alt_epcs_flash_write_block
                0x01017510                alt_epcs_flash_read
 .text          0x0101759c      0x148 ../DE2_SD_Card_Audio_bsp/\libhal_bsp.a(altera_avalon_jtag_uart_fd.o)
                0x0101759c                altera_avalon_jtag_uart_read_fd
                0x010175f4                altera_avalon_jtag_uart_write_fd
                0x0101764c                altera_avalon_jtag_uart_close_fd
                0x01017694                altera_avalon_jtag_uart_ioctl_fd
 .text          0x010176e4      0x40c ../DE2_SD_Card_Audio_bsp/\libhal_bsp.a(altera_avalon_jtag_uart_init.o)
                0x010176e4                altera_avalon_jtag_uart_init
                0x01017a7c                altera_avalon_jtag_uart_close
 .text          0x01017af0       0xf4 ../DE2_SD_Card_Audio_bsp/\libhal_bsp.a(altera_avalon_jtag_uart_ioctl.o)
                0x01017af0                altera_avalon_jtag_uart_ioctl
 .text          0x01017be4      0x224 ../DE2_SD_Card_Audio_bsp/\libhal_bsp.a(altera_avalon_jtag_uart_read.o)
                0x01017be4                altera_avalon_jtag_uart_read
 .text          0x01017e08      0x240 ../DE2_SD_Card_Audio_bsp/\libhal_bsp.a(altera_avalon_jtag_uart_write.o)
                0x01017e08                altera_avalon_jtag_uart_write
 .text          0x01018048      0xee8 ../DE2_SD_Card_Audio_bsp/\libhal_bsp.a(altera_avalon_lcd_16207.o)
                0x0101881c                altera_avalon_lcd_16207_write
                0x01018df4                altera_avalon_lcd_16207_init
 .text          0x01018f30       0x58 ../DE2_SD_Card_Audio_bsp/\libhal_bsp.a(altera_avalon_lcd_16207_fd.o)
                0x01018f30                altera_avalon_lcd_16207_write_fd
 .text          0x01018f88      0x100 ../DE2_SD_Card_Audio_bsp/\libhal_bsp.a(altera_avalon_timer_sc.o)
                0x01018ff8                alt_avalon_timer_sc_init
 .text          0x01019088        0x0 ../DE2_SD_Card_Audio_bsp/\libhal_bsp.a(altera_avalon_timer_vars.o)
 .text          0x01019088       0xf8 ../DE2_SD_Card_Audio_bsp/\libhal_bsp.a(altera_avalon_uart_fd.o)
                0x01019088                altera_avalon_uart_read_fd
                0x010190e0                altera_avalon_uart_write_fd
                0x01019138                altera_avalon_uart_close_fd
 .text          0x01019180      0x400 ../DE2_SD_Card_Audio_bsp/\libhal_bsp.a(altera_avalon_uart_init.o)
                0x01019180                altera_avalon_uart_init
                0x01019520                altera_avalon_uart_close
 .text          0x01019580      0x290 ../DE2_SD_Card_Audio_bsp/\libhal_bsp.a(altera_avalon_uart_read.o)
                0x01019580                altera_avalon_uart_read
 .text          0x01019810      0x228 ../DE2_SD_Card_Audio_bsp/\libhal_bsp.a(altera_avalon_uart_write.o)
                0x01019810                altera_avalon_uart_write
 .text          0x01019a38      0x460 ../DE2_SD_Card_Audio_bsp/\libhal_bsp.a(epcs_commands.o)
                0x01019a38                epcs_read_status_register
                0x01019a98                epcs_sector_erase
                0x01019b84                epcs_read_buffer
                0x01019c38                epcs_write_enable
                0x01019c88                epcs_write_status_register
                0x01019cec                epcs_write_buffer
                0x01019dc4                epcs_read_electronic_signature
                0x01019e30                epcs_read_device_id
 .text          0x01019e98      0x154 ../DE2_SD_Card_Audio_bsp/\libhal_bsp.a(alt_alarm_start.o)
                0x01019e98                alt_alarm_start
 .text          0x01019fec      0x14c ../DE2_SD_Card_Audio_bsp/\libhal_bsp.a(alt_busy_sleep.o)
                0x01019fec                alt_busy_sleep
 .text          0x0101a138       0x78 ../DE2_SD_Card_Audio_bsp/\libhal_bsp.a(alt_dcache_flush.o)
                0x0101a138                alt_dcache_flush
 .text          0x0101a1b0       0x44 ../DE2_SD_Card_Audio_bsp/\libhal_bsp.a(alt_dcache_flush_all.o)
                0x0101a1b0                alt_dcache_flush_all
 .text          0x0101a1f4      0x114 ../DE2_SD_Card_Audio_bsp/\libhal_bsp.a(alt_dev_llist_insert.o)
                0x0101a1f4                alt_dev_llist_insert
 .text          0x0101a308       0x64 ../DE2_SD_Card_Audio_bsp/\libhal_bsp.a(alt_do_ctors.o)
                0x0101a308                _do_ctors
 .text          0x0101a36c       0x64 ../DE2_SD_Card_Audio_bsp/\libhal_bsp.a(alt_do_dtors.o)
                0x0101a36c                _do_dtors
 .text          0x0101a3d0       0x94 ../DE2_SD_Card_Audio_bsp/\libhal_bsp.a(alt_find_dev.o)
                0x0101a3d0                alt_find_dev
 .text          0x0101a464      0x120 ../DE2_SD_Card_Audio_bsp/\libhal_bsp.a(alt_find_file.o)
                0x0101a464                alt_find_file
 .text          0x0101a584       0xd0 ../DE2_SD_Card_Audio_bsp/\libhal_bsp.a(alt_flash_dev.o)
                0x0101a584                alt_flash_open_dev
                0x0101a600                alt_flash_close_dev
 .text          0x0101a654       0xb8 ../DE2_SD_Card_Audio_bsp/\libhal_bsp.a(alt_get_fd.o)
                0x0101a654                alt_get_fd
 .text          0x0101a70c       0x30 ../DE2_SD_Card_Audio_bsp/\libhal_bsp.a(alt_icache_flush_all.o)
                0x0101a70c                alt_icache_flush_all
 .text          0x0101a73c      0x1d4 ../DE2_SD_Card_Audio_bsp/\libhal_bsp.a(alt_iic.o)
                0x0101a73c                alt_ic_isr_register
                0x0101a78c                alt_ic_irq_enable
                0x0101a828                alt_ic_irq_disable
                0x0101a8c8                alt_ic_irq_enabled
 .text          0x0101a910       0xf8 ../DE2_SD_Card_Audio_bsp/\libhal_bsp.a(alt_iic_isr_register.o)
                0x0101a910                alt_iic_isr_register
 .text          0x0101aa08      0x13c ../DE2_SD_Card_Audio_bsp/\libhal_bsp.a(alt_io_redirect.o)
                0x0101aacc                alt_io_redirect
 .text          0x0101ab44        0x0 ../DE2_SD_Card_Audio_bsp/\libhal_bsp.a(alt_irq_entry.o)
 .text          0x0101ab44        0x0 ../DE2_SD_Card_Audio_bsp/\libhal_bsp.a(alt_irq_handler.o)
 .text          0x0101ab44       0x20 ../DE2_SD_Card_Audio_bsp/\libhal_bsp.a(altera_nios2_qsys_irq.o)
                0x0101ab44                altera_nios2_qsys_irq_init
 .text          0x0101ab64      0x460 ../DE2_SD_Card_Audio_bsp/\libhal_bsp.a(altera_avalon_cfi_flash_amd.o)
                0x0101ab64                alt_program_amd
                0x0101abcc                alt_erase_block_amd
 .text          0x0101afc4      0x460 ../DE2_SD_Card_Audio_bsp/\libhal_bsp.a(altera_avalon_cfi_flash_intel.o)
                0x0101afc4                alt_program_intel
                0x0101b048                alt_erase_block_intel
 .text          0x0101b424      0x238 ../DE2_SD_Card_Audio_bsp/\libhal_bsp.a(altera_avalon_spi.o)
                0x0101b424                alt_avalon_spi_command
 .text          0x0101b65c        0x0 ../DE2_SD_Card_Audio_bsp/\libhal_bsp.a(alt_exception_entry.o)
 .text          0x0101b65c       0x90 ../DE2_SD_Card_Audio_bsp/\libhal_bsp.a(alt_icache_flush.o)
                0x0101b65c                alt_icache_flush
 .text          0x0101b6ec       0x14 c:/altera/11.1/nios2eds/bin/gnu/h-i686-mingw32/bin/../lib/gcc/nios2-elf/4.1.2/../../../../nios2-elf/lib\libc.a(lib_a-atexit.o)
                0x0101b6ec                atexit
 .text          0x0101b700       0x38 c:/altera/11.1/nios2eds/bin/gnu/h-i686-mingw32/bin/../lib/gcc/nios2-elf/4.1.2/../../../../nios2-elf/lib\libc.a(lib_a-exit.o)
                0x0101b700                exit
 .text          0x0101b738       0x74 c:/altera/11.1/nios2eds/bin/gnu/h-i686-mingw32/bin/../lib/gcc/nios2-elf/4.1.2/../../../../nios2-elf/lib\libc.a(lib_a-memcmp.o)
                0x0101b738                memcmp
 .text          0x0101b7ac      0x134 c:/altera/11.1/nios2eds/bin/gnu/h-i686-mingw32/bin/../lib/gcc/nios2-elf/4.1.2/../../../../nios2-elf/lib\libc.a(lib_a-__atexit.o)
                0x0101b7ac                __register_exitproc
 .text          0x0101b8e0      0x1b4 c:/altera/11.1/nios2eds/bin/gnu/h-i686-mingw32/bin/../lib/gcc/nios2-elf/4.1.2/../../../../nios2-elf/lib\libc.a(lib_a-__call_atexit.o)
                0x0101b8e4                __call_exitprocs
 .text          0x0101ba94       0x60 ../DE2_SD_Card_Audio_bsp/\libhal_bsp.a(alt_exit.o)
                0x0101bad4                _exit
 *(.gnu.warning.*)
 *(.fini)
                0x0101baf4                PROVIDE (__etext, ABSOLUTE (.))
                0x0101baf4                PROVIDE (_etext, ABSOLUTE (.))
                0x0101baf4                PROVIDE (etext, ABSOLUTE (.))
 *(.eh_frame_hdr)
                0x0101baf4                . = ALIGN (0x4)
                0x0101baf4                PROVIDE (__preinit_array_start, ABSOLUTE (.))
 *(.preinit_array)
                0x0101baf4                PROVIDE (__preinit_array_end, ABSOLUTE (.))
                0x0101baf4                PROVIDE (__init_array_start, ABSOLUTE (.))
 *(.init_array)
                0x0101baf4                PROVIDE (__init_array_end, ABSOLUTE (.))
                0x0101baf4                PROVIDE (__fini_array_start, ABSOLUTE (.))
 *(.fini_array)
                0x0101baf4                PROVIDE (__fini_array_end, ABSOLUTE (.))
 *(.eh_frame)
 .eh_frame      0x0101baf4       0x40 c:/altera/11.1/nios2eds/bin/gnu/h-i686-mingw32/bin/../lib/gcc/nios2-elf/4.1.2\libgcc.a(_udivdi3.o)
 .eh_frame      0x0101bb34       0x2c c:/altera/11.1/nios2eds/bin/gnu/h-i686-mingw32/bin/../lib/gcc/nios2-elf/4.1.2\libgcc.a(_umoddi3.o)
                                 0x40 (size before relaxing)
 *(.gcc_except_table)
 *(.dynamic)
                0x0101bb60                PROVIDE (__CTOR_LIST__, ABSOLUTE (.))
 *(.ctors)
 *(SORT(.ctors.*))
 .ctors.65535   0x0101bb60        0x4 c:/altera/11.1/nios2eds/bin/gnu/h-i686-mingw32/bin/../lib/gcc/nios2-elf/4.1.2/../../../../nios2-elf/lib\libc.a(lib_a-__call_atexit.o)
                0x0101bb64                PROVIDE (__CTOR_END__, ABSOLUTE (.))
                0x0101bb64                PROVIDE (__DTOR_LIST__, ABSOLUTE (.))
 *(.dtors)
 *(SORT(.dtors.*))
                0x0101bb64                PROVIDE (__DTOR_END__, ABSOLUTE (.))
 *(.jcr)
                0x0101bb64                . = ALIGN (0x4)

.rodata         0x0101bb64     0x1308
                0x0101bb64                PROVIDE (__ram_rodata_start, ABSOLUTE (.))
                0x0101bb64                . = ALIGN (0x4)
 *(.rodata .rodata.* .gnu.linkonce.r.*)
 .rodata        0x0101bb64      0x4d0 obj/default/main.o
 .rodata        0x0101c034       0xa8 obj/default/terasic_fat/FatFileSystem.o
 .rodata        0x0101c0dc      0x2dc obj/default/terasic_fat/FatInternal.o
 .rodata        0x0101c3b8       0xd4 obj/default/terasic_lib/AUDIO.o
 .rodata        0x0101c48c       0x88 obj/default/terasic_lib/I2C.o
 .rodata        0x0101c514       0x30 obj/default/terasic_lib/LCD.o
 .rodata        0x0101c544       0x10 obj/default/terasic_lib/debug.o
 .rodata        0x0101c554      0x200 obj/default/terasic_sdcard/crc16.o
 .rodata        0x0101c754      0x100 obj/default/terasic_sdcard/crc7.o
 .rodata        0x0101c854       0x10 c:/altera/11.1/nios2eds/bin/gnu/h-i686-mingw32/bin/../lib/gcc/nios2-elf/4.1.2\libgcc.a(_thenan_sf.o)
                0x0101c854                __thenan_sf
 .rodata        0x0101c864       0x14 c:/altera/11.1/nios2eds/bin/gnu/h-i686-mingw32/bin/../lib/gcc/nios2-elf/4.1.2\libgcc.a(_thenan_df.o)
                0x0101c864                __thenan_df
 .rodata        0x0101c878      0x100 c:/altera/11.1/nios2eds/bin/gnu/h-i686-mingw32/bin/../lib/gcc/nios2-elf/4.1.2\libgcc.a(_clz.o)
                0x0101c878                __clz_tab
 .rodata.str1.4
                0x0101c978        0x2 c:/altera/11.1/nios2eds/bin/gnu/h-i686-mingw32/bin/../lib/gcc/nios2-elf/4.1.2/../../../../nios2-elf/lib\libc.a(lib_a-impure.o)
                                  0x4 (size before relaxing)
 *fill*         0x0101c97a        0x2 00
 .rodata.str1.4
                0x0101c97c        0x2 c:/altera/11.1/nios2eds/bin/gnu/h-i686-mingw32/bin/../lib/gcc/nios2-elf/4.1.2/../../../../nios2-elf/lib\libc.a(lib_a-puts.o)
                                  0x4 (size before relaxing)
 *fill*         0x0101c97e        0x2 00
 .rodata.str1.4
                0x0101c980       0x5e c:/altera/11.1/nios2eds/bin/gnu/h-i686-mingw32/bin/../lib/gcc/nios2-elf/4.1.2/../../../../nios2-elf/lib\libc.a(lib_a-vfprintf.o)
                                 0x60 (size before relaxing)
 .rodata        0x0101c9de       0x20 c:/altera/11.1/nios2eds/bin/gnu/h-i686-mingw32/bin/../lib/gcc/nios2-elf/4.1.2/../../../../nios2-elf/lib\libc.a(lib_a-vfprintf.o)
 .rodata        0x0101c9fe      0x281 c:/altera/11.1/nios2eds/bin/gnu/h-i686-mingw32/bin/../lib/gcc/nios2-elf/4.1.2/../../../../nios2-elf/lib\libc.a(lib_a-ctype_.o)
                0x0101c9fe                _ctype_
 *fill*         0x0101cc7f        0x1 00
 .rodata.str1.4
                0x0101cc80       0x10 c:/altera/11.1/nios2eds/bin/gnu/h-i686-mingw32/bin/../lib/gcc/nios2-elf/4.1.2/../../../../nios2-elf/lib\libc.a(lib_a-dtoa.o)
                                 0x14 (size before relaxing)
 .rodata.str1.4
                0x0101cc90       0x10 c:/altera/11.1/nios2eds/bin/gnu/h-i686-mingw32/bin/../lib/gcc/nios2-elf/4.1.2/../../../../nios2-elf/lib\libc.a(lib_a-locale.o)
                                 0x18 (size before relaxing)
 .rodata        0x0101cca0       0x30 c:/altera/11.1/nios2eds/bin/gnu/h-i686-mingw32/bin/../lib/gcc/nios2-elf/4.1.2/../../../../nios2-elf/lib\libc.a(lib_a-locale.o)
 .rodata        0x0101ccd0      0x124 c:/altera/11.1/nios2eds/bin/gnu/h-i686-mingw32/bin/../lib/gcc/nios2-elf/4.1.2/../../../../nios2-elf/lib\libc.a(lib_a-mprec.o)
                0x0101ccd0                __mprec_tens
                0x0101cd98                __mprec_bigtens
                0x0101cdc0                __mprec_tinytens
 .rodata        0x0101cdf4        0xc ../DE2_SD_Card_Audio_bsp/\libhal_bsp.a(alt_dev.o)
 .rodata        0x0101ce00       0x14 ../DE2_SD_Card_Audio_bsp/\libhal_bsp.a(alt_main.o)
 .rodata        0x0101ce14       0x58 ../DE2_SD_Card_Audio_bsp/\libhal_bsp.a(alt_sys_init.o)
 *(.rodata1)
                0x0101ce6c                . = ALIGN (0x4)
                0x0101ce6c                PROVIDE (__ram_rodata_end, ABSOLUTE (.))
                0x0101bb64                PROVIDE (__flash_rodata_start, LOADADDR (.rodata))

.rwdata         0x0101ce6c     0x1e08 load address 0x0101ec74
                0x0101ce6c                PROVIDE (__ram_rwdata_start, ABSOLUTE (.))
                0x0101ce6c                . = ALIGN (0x4)
 *(.got.plt)
 *(.got)
 *(.data1)
 *(.data .data.* .gnu.linkonce.d.*)
 .data          0x0101ce6c        0x0 ../DE2_SD_Card_Audio_bsp//obj/HAL/src/crt0.o
 .data          0x0101ce6c        0x0 obj/default/main.o
 .data          0x0101ce6c        0x0 obj/default/terasic_fat/FatFileSystem.o
 .data          0x0101ce6c        0x0 obj/default/terasic_fat/FatInternal.o
 .data          0x0101ce6c        0x0 obj/default/terasic_lib/AUDIO.o
 .data          0x0101ce6c        0x0 obj/default/terasic_lib/I2C.o
 .data          0x0101ce6c        0x0 obj/default/terasic_lib/LCD.o
 .data          0x0101ce6c        0x0 obj/default/terasic_lib/LED.o
 .data          0x0101ce6c       0x10 obj/default/terasic_lib/SEG7.o
 .data          0x0101ce7c        0x0 obj/default/terasic_lib/WaveLib.o
 .data          0x0101ce7c        0x0 obj/default/terasic_lib/debug.o
 .data          0x0101ce7c        0x0 obj/default/terasic_sdcard/crc16.o
 .data          0x0101ce7c        0x0 obj/default/terasic_sdcard/crc7.o
 .data          0x0101ce7c        0x0 obj/default/terasic_sdcard/sd_hal.o
 .data          0x0101ce7c        0x0 obj/default/terasic_sdcard/sd_lib.o
 .data          0x0101ce7c        0x0 obj/default/terasic_sdcard/sd_protocol.o
 .data          0x0101ce7c        0x0 c:/altera/11.1/nios2eds/bin/gnu/h-i686-mingw32/bin/../lib/gcc/nios2-elf/4.1.2\libgcc.a(_mul_sf.o)
 .data          0x0101ce7c        0x0 c:/altera/11.1/nios2eds/bin/gnu/h-i686-mingw32/bin/../lib/gcc/nios2-elf/4.1.2\libgcc.a(_div_sf.o)
 .data          0x0101ce7c        0x0 c:/altera/11.1/nios2eds/bin/gnu/h-i686-mingw32/bin/../lib/gcc/nios2-elf/4.1.2\libgcc.a(_sf_to_df.o)
 .data          0x0101ce7c        0x0 c:/altera/11.1/nios2eds/bin/gnu/h-i686-mingw32/bin/../lib/gcc/nios2-elf/4.1.2\libgcc.a(_thenan_sf.o)
 .data          0x0101ce7c        0x0 c:/altera/11.1/nios2eds/bin/gnu/h-i686-mingw32/bin/../lib/gcc/nios2-elf/4.1.2\libgcc.a(_usi_to_sf.o)
 .data          0x0101ce7c        0x0 c:/altera/11.1/nios2eds/bin/gnu/h-i686-mingw32/bin/../lib/gcc/nios2-elf/4.1.2\libgcc.a(_div_df.o)
 .data          0x0101ce7c        0x0 c:/altera/11.1/nios2eds/bin/gnu/h-i686-mingw32/bin/../lib/gcc/nios2-elf/4.1.2\libgcc.a(_make_df.o)
 .data          0x0101ce7c        0x0 c:/altera/11.1/nios2eds/bin/gnu/h-i686-mingw32/bin/../lib/gcc/nios2-elf/4.1.2\libgcc.a(_df_to_sf.o)
 .data          0x0101ce7c        0x0 c:/altera/11.1/nios2eds/bin/gnu/h-i686-mingw32/bin/../lib/gcc/nios2-elf/4.1.2\libgcc.a(_thenan_df.o)
 .data          0x0101ce7c        0x0 c:/altera/11.1/nios2eds/bin/gnu/h-i686-mingw32/bin/../lib/gcc/nios2-elf/4.1.2\libgcc.a(lib2-divmod.o)
 .data          0x0101ce7c        0x0 c:/altera/11.1/nios2eds/bin/gnu/h-i686-mingw32/bin/../lib/gcc/nios2-elf/4.1.2\libgcc.a(_muldi3.o)
 .data          0x0101ce7c        0x0 c:/altera/11.1/nios2eds/bin/gnu/h-i686-mingw32/bin/../lib/gcc/nios2-elf/4.1.2\libgcc.a(_clzsi2.o)
 .data          0x0101ce7c        0x0 c:/altera/11.1/nios2eds/bin/gnu/h-i686-mingw32/bin/../lib/gcc/nios2-elf/4.1.2\libgcc.a(_pack_sf.o)
 .data          0x0101ce7c        0x0 c:/altera/11.1/nios2eds/bin/gnu/h-i686-mingw32/bin/../lib/gcc/nios2-elf/4.1.2\libgcc.a(_unpack_sf.o)
 .data          0x0101ce7c        0x0 c:/altera/11.1/nios2eds/bin/gnu/h-i686-mingw32/bin/../lib/gcc/nios2-elf/4.1.2\libgcc.a(_make_sf.o)
 .data          0x0101ce7c        0x0 c:/altera/11.1/nios2eds/bin/gnu/h-i686-mingw32/bin/../lib/gcc/nios2-elf/4.1.2\libgcc.a(_pack_df.o)
 .data          0x0101ce7c        0x0 c:/altera/11.1/nios2eds/bin/gnu/h-i686-mingw32/bin/../lib/gcc/nios2-elf/4.1.2\libgcc.a(_unpack_df.o)
 .data          0x0101ce7c        0x0 c:/altera/11.1/nios2eds/bin/gnu/h-i686-mingw32/bin/../lib/gcc/nios2-elf/4.1.2\libgcc.a(_clz.o)
 .data          0x0101ce7c        0x0 c:/altera/11.1/nios2eds/bin/gnu/h-i686-mingw32/bin/../lib/gcc/nios2-elf/4.1.2/../../../../nios2-elf/lib\libc.a(lib_a-fclose.o)
 .data          0x0101ce7c        0x0 c:/altera/11.1/nios2eds/bin/gnu/h-i686-mingw32/bin/../lib/gcc/nios2-elf/4.1.2/../../../../nios2-elf/lib\libc.a(lib_a-fflush.o)
 .data          0x0101ce7c        0x0 c:/altera/11.1/nios2eds/bin/gnu/h-i686-mingw32/bin/../lib/gcc/nios2-elf/4.1.2/../../../../nios2-elf/lib\libc.a(lib_a-findfp.o)
 .data          0x0101ce7c        0x0 c:/altera/11.1/nios2eds/bin/gnu/h-i686-mingw32/bin/../lib/gcc/nios2-elf/4.1.2/../../../../nios2-elf/lib\libc.a(lib_a-fopen.o)
 .data          0x0101ce7c        0x0 c:/altera/11.1/nios2eds/bin/gnu/h-i686-mingw32/bin/../lib/gcc/nios2-elf/4.1.2/../../../../nios2-elf/lib\libc.a(lib_a-freer.o)
 .data          0x0101ce7c        0x0 c:/altera/11.1/nios2eds/bin/gnu/h-i686-mingw32/bin/../lib/gcc/nios2-elf/4.1.2/../../../../nios2-elf/lib\libc.a(lib_a-fseek.o)
 .data          0x0101ce7c        0x0 c:/altera/11.1/nios2eds/bin/gnu/h-i686-mingw32/bin/../lib/gcc/nios2-elf/4.1.2/../../../../nios2-elf/lib\libc.a(lib_a-fstatr.o)
 .data          0x0101ce7c        0x0 c:/altera/11.1/nios2eds/bin/gnu/h-i686-mingw32/bin/../lib/gcc/nios2-elf/4.1.2/../../../../nios2-elf/lib\libc.a(lib_a-fwalk.o)
 .data          0x0101ce7c        0x0 c:/altera/11.1/nios2eds/bin/gnu/h-i686-mingw32/bin/../lib/gcc/nios2-elf/4.1.2/../../../../nios2-elf/lib\libc.a(lib_a-fwrite.o)
 .data          0x0101ce7c      0x400 c:/altera/11.1/nios2eds/bin/gnu/h-i686-mingw32/bin/../lib/gcc/nios2-elf/4.1.2/../../../../nios2-elf/lib\libc.a(lib_a-impure.o)
 .data          0x0101d27c        0x0 c:/altera/11.1/nios2eds/bin/gnu/h-i686-mingw32/bin/../lib/gcc/nios2-elf/4.1.2/../../../../nios2-elf/lib\libc.a(lib_a-int_errno.o)
 .data          0x0101d27c        0x0 c:/altera/11.1/nios2eds/bin/gnu/h-i686-mingw32/bin/../lib/gcc/nios2-elf/4.1.2/../../../../nios2-elf/lib\libc.a(lib_a-makebuf.o)
 .data          0x0101d27c        0x0 c:/altera/11.1/nios2eds/bin/gnu/h-i686-mingw32/bin/../lib/gcc/nios2-elf/4.1.2/../../../../nios2-elf/lib\libc.a(lib_a-malloc.o)
 .data          0x0101d27c      0x408 c:/altera/11.1/nios2eds/bin/gnu/h-i686-mingw32/bin/../lib/gcc/nios2-elf/4.1.2/../../../../nios2-elf/lib\libc.a(lib_a-mallocr.o)
                0x0101d27c                __malloc_av_
 .data          0x0101d684        0x0 c:/altera/11.1/nios2eds/bin/gnu/h-i686-mingw32/bin/../lib/gcc/nios2-elf/4.1.2/../../../../nios2-elf/lib\libc.a(lib_a-memcpy.o)
 .data          0x0101d684        0x0 c:/altera/11.1/nios2eds/bin/gnu/h-i686-mingw32/bin/../lib/gcc/nios2-elf/4.1.2/../../../../nios2-elf/lib\libc.a(lib_a-memset.o)
 .data          0x0101d684        0x0 c:/altera/11.1/nios2eds/bin/gnu/h-i686-mingw32/bin/../lib/gcc/nios2-elf/4.1.2/../../../../nios2-elf/lib\libc.a(lib_a-openr.o)
 .data          0x0101d684        0x0 c:/altera/11.1/nios2eds/bin/gnu/h-i686-mingw32/bin/../lib/gcc/nios2-elf/4.1.2/../../../../nios2-elf/lib\libc.a(lib_a-printf.o)
 .data          0x0101d684        0x0 c:/altera/11.1/nios2eds/bin/gnu/h-i686-mingw32/bin/../lib/gcc/nios2-elf/4.1.2/../../../../nios2-elf/lib\libc.a(lib_a-putchar.o)
 .data          0x0101d684        0x0 c:/altera/11.1/nios2eds/bin/gnu/h-i686-mingw32/bin/../lib/gcc/nios2-elf/4.1.2/../../../../nios2-elf/lib\libc.a(lib_a-puts.o)
 .data          0x0101d684        0x0 c:/altera/11.1/nios2eds/bin/gnu/h-i686-mingw32/bin/../lib/gcc/nios2-elf/4.1.2/../../../../nios2-elf/lib\libc.a(lib_a-refill.o)
 .data          0x0101d684        0x0 c:/altera/11.1/nios2eds/bin/gnu/h-i686-mingw32/bin/../lib/gcc/nios2-elf/4.1.2/../../../../nios2-elf/lib\libc.a(lib_a-sbrkr.o)
 .data          0x0101d684        0x0 c:/altera/11.1/nios2eds/bin/gnu/h-i686-mingw32/bin/../lib/gcc/nios2-elf/4.1.2/../../../../nios2-elf/lib\libc.a(lib_a-sprintf.o)
 .data          0x0101d684        0x0 c:/altera/11.1/nios2eds/bin/gnu/h-i686-mingw32/bin/../lib/gcc/nios2-elf/4.1.2/../../../../nios2-elf/lib\libc.a(lib_a-stdio.o)
 .data          0x0101d684        0x0 c:/altera/11.1/nios2eds/bin/gnu/h-i686-mingw32/bin/../lib/gcc/nios2-elf/4.1.2/../../../../nios2-elf/lib\libc.a(lib_a-strcasecmp.o)
 .data          0x0101d684        0x0 c:/altera/11.1/nios2eds/bin/gnu/h-i686-mingw32/bin/../lib/gcc/nios2-elf/4.1.2/../../../../nios2-elf/lib\libc.a(lib_a-strcmp.o)
 .data          0x0101d684        0x0 c:/altera/11.1/nios2eds/bin/gnu/h-i686-mingw32/bin/../lib/gcc/nios2-elf/4.1.2/../../../../nios2-elf/lib\libc.a(lib_a-strcpy.o)
 .data          0x0101d684        0x0 c:/altera/11.1/nios2eds/bin/gnu/h-i686-mingw32/bin/../lib/gcc/nios2-elf/4.1.2/../../../../nios2-elf/lib\libc.a(lib_a-strlen.o)
 .data          0x0101d684        0x0 c:/altera/11.1/nios2eds/bin/gnu/h-i686-mingw32/bin/../lib/gcc/nios2-elf/4.1.2/../../../../nios2-elf/lib\libc.a(lib_a-vfprintf.o)
 .data          0x0101d684        0x0 c:/altera/11.1/nios2eds/bin/gnu/h-i686-mingw32/bin/../lib/gcc/nios2-elf/4.1.2/../../../../nios2-elf/lib\libc.a(lib_a-vsnprintf.o)
 .data          0x0101d684        0x0 c:/altera/11.1/nios2eds/bin/gnu/h-i686-mingw32/bin/../lib/gcc/nios2-elf/4.1.2/../../../../nios2-elf/lib\libc.a(lib_a-writer.o)
 .data          0x0101d684        0x0 c:/altera/11.1/nios2eds/bin/gnu/h-i686-mingw32/bin/../lib/gcc/nios2-elf/4.1.2/../../../../nios2-elf/lib\libc.a(lib_a-wsetup.o)
 .data          0x0101d684        0x0 c:/altera/11.1/nios2eds/bin/gnu/h-i686-mingw32/bin/../lib/gcc/nios2-elf/4.1.2/../../../../nios2-elf/lib\libc.a(lib_a-closer.o)
 .data          0x0101d684        0x0 c:/altera/11.1/nios2eds/bin/gnu/h-i686-mingw32/bin/../lib/gcc/nios2-elf/4.1.2/../../../../nios2-elf/lib\libc.a(lib_a-ctype_.o)
 .data          0x0101d684        0x0 c:/altera/11.1/nios2eds/bin/gnu/h-i686-mingw32/bin/../lib/gcc/nios2-elf/4.1.2/../../../../nios2-elf/lib\libc.a(lib_a-dtoa.o)
 .data          0x0101d684        0x0 c:/altera/11.1/nios2eds/bin/gnu/h-i686-mingw32/bin/../lib/gcc/nios2-elf/4.1.2/../../../../nios2-elf/lib\libc.a(lib_a-flags.o)
 .data          0x0101d684        0x0 c:/altera/11.1/nios2eds/bin/gnu/h-i686-mingw32/bin/../lib/gcc/nios2-elf/4.1.2/../../../../nios2-elf/lib\libc.a(lib_a-fvwrite.o)
 .data          0x0101d684        0x0 c:/altera/11.1/nios2eds/bin/gnu/h-i686-mingw32/bin/../lib/gcc/nios2-elf/4.1.2/../../../../nios2-elf/lib\libc.a(lib_a-isattyr.o)
 .data          0x0101d684        0xc c:/altera/11.1/nios2eds/bin/gnu/h-i686-mingw32/bin/../lib/gcc/nios2-elf/4.1.2/../../../../nios2-elf/lib\libc.a(lib_a-locale.o)
                0x0101d684                __lc_ctype
 .data          0x0101d690        0x0 c:/altera/11.1/nios2eds/bin/gnu/h-i686-mingw32/bin/../lib/gcc/nios2-elf/4.1.2/../../../../nios2-elf/lib\libc.a(lib_a-lseekr.o)
 .data          0x0101d690        0x0 c:/altera/11.1/nios2eds/bin/gnu/h-i686-mingw32/bin/../lib/gcc/nios2-elf/4.1.2/../../../../nios2-elf/lib\libc.a(lib_a-memchr.o)
 .data          0x0101d690        0x0 c:/altera/11.1/nios2eds/bin/gnu/h-i686-mingw32/bin/../lib/gcc/nios2-elf/4.1.2/../../../../nios2-elf/lib\libc.a(lib_a-memmove.o)
 .data          0x0101d690        0x0 c:/altera/11.1/nios2eds/bin/gnu/h-i686-mingw32/bin/../lib/gcc/nios2-elf/4.1.2/../../../../nios2-elf/lib\libc.a(lib_a-mprec.o)
 .data          0x0101d690        0x0 c:/altera/11.1/nios2eds/bin/gnu/h-i686-mingw32/bin/../lib/gcc/nios2-elf/4.1.2/../../../../nios2-elf/lib\libc.a(lib_a-putc.o)
 .data          0x0101d690        0x0 c:/altera/11.1/nios2eds/bin/gnu/h-i686-mingw32/bin/../lib/gcc/nios2-elf/4.1.2/../../../../nios2-elf/lib\libc.a(lib_a-readr.o)
 .data          0x0101d690        0x0 c:/altera/11.1/nios2eds/bin/gnu/h-i686-mingw32/bin/../lib/gcc/nios2-elf/4.1.2/../../../../nios2-elf/lib\libc.a(lib_a-reallocr.o)
 .data          0x0101d690        0x0 c:/altera/11.1/nios2eds/bin/gnu/h-i686-mingw32/bin/../lib/gcc/nios2-elf/4.1.2/../../../../nios2-elf/lib\libc.a(lib_a-s_isinfd.o)
 .data          0x0101d690        0x0 c:/altera/11.1/nios2eds/bin/gnu/h-i686-mingw32/bin/../lib/gcc/nios2-elf/4.1.2/../../../../nios2-elf/lib\libc.a(lib_a-s_isnand.o)
 .data          0x0101d690        0x0 c:/altera/11.1/nios2eds/bin/gnu/h-i686-mingw32/bin/../lib/gcc/nios2-elf/4.1.2/../../../../nios2-elf/lib\libc.a(lib_a-wbuf.o)
 .data          0x0101d690        0x0 c:/altera/11.1/nios2eds/bin/gnu/h-i686-mingw32/bin/../lib/gcc/nios2-elf/4.1.2/../../../../nios2-elf/lib\libc.a(lib_a-callocr.o)
 .data          0x0101d690        0x0 c:/altera/11.1/nios2eds/bin/gnu/h-i686-mingw32/bin/../lib/gcc/nios2-elf/4.1.2\libgcc.a(_udivdi3.o)
 .data          0x0101d690        0x0 c:/altera/11.1/nios2eds/bin/gnu/h-i686-mingw32/bin/../lib/gcc/nios2-elf/4.1.2\libgcc.a(_umoddi3.o)
 .data          0x0101d690        0x0 c:/altera/11.1/nios2eds/bin/gnu/h-i686-mingw32/bin/../lib/gcc/nios2-elf/4.1.2\libgcc.a(_addsub_df.o)
 .data          0x0101d690        0x0 c:/altera/11.1/nios2eds/bin/gnu/h-i686-mingw32/bin/../lib/gcc/nios2-elf/4.1.2\libgcc.a(_mul_df.o)
 .data          0x0101d690        0x0 c:/altera/11.1/nios2eds/bin/gnu/h-i686-mingw32/bin/../lib/gcc/nios2-elf/4.1.2\libgcc.a(_eq_df.o)
 .data          0x0101d690        0x0 c:/altera/11.1/nios2eds/bin/gnu/h-i686-mingw32/bin/../lib/gcc/nios2-elf/4.1.2\libgcc.a(_ne_df.o)
 .data          0x0101d690        0x0 c:/altera/11.1/nios2eds/bin/gnu/h-i686-mingw32/bin/../lib/gcc/nios2-elf/4.1.2\libgcc.a(_gt_df.o)
 .data          0x0101d690        0x0 c:/altera/11.1/nios2eds/bin/gnu/h-i686-mingw32/bin/../lib/gcc/nios2-elf/4.1.2\libgcc.a(_ge_df.o)
 .data          0x0101d690        0x0 c:/altera/11.1/nios2eds/bin/gnu/h-i686-mingw32/bin/../lib/gcc/nios2-elf/4.1.2\libgcc.a(_lt_df.o)
 .data          0x0101d690        0x0 c:/altera/11.1/nios2eds/bin/gnu/h-i686-mingw32/bin/../lib/gcc/nios2-elf/4.1.2\libgcc.a(_si_to_df.o)
 .data          0x0101d690        0x0 c:/altera/11.1/nios2eds/bin/gnu/h-i686-mingw32/bin/../lib/gcc/nios2-elf/4.1.2\libgcc.a(_df_to_si.o)
 .data          0x0101d690        0x0 c:/altera/11.1/nios2eds/bin/gnu/h-i686-mingw32/bin/../lib/gcc/nios2-elf/4.1.2\libgcc.a(_usi_to_df.o)
 .data          0x0101d690        0x0 c:/altera/11.1/nios2eds/bin/gnu/h-i686-mingw32/bin/../lib/gcc/nios2-elf/4.1.2\libgcc.a(_fpcmp_parts_df.o)
 .data          0x0101d690        0x0 ../DE2_SD_Card_Audio_bsp/\libhal_bsp.a(alt_close.o)
 .data          0x0101d690      0x1a8 ../DE2_SD_Card_Audio_bsp/\libhal_bsp.a(alt_dev.o)
                0x0101d690                alt_dev_null
                0x0101d6b8                alt_fd_list
 .data          0x0101d838        0x0 ../DE2_SD_Card_Audio_bsp/\libhal_bsp.a(alt_errno.o)
 .data          0x0101d838        0x0 ../DE2_SD_Card_Audio_bsp/\libhal_bsp.a(alt_fstat.o)
 .data          0x0101d838        0x0 ../DE2_SD_Card_Audio_bsp/\libhal_bsp.a(alt_irq_register.o)
 .data          0x0101d838        0x0 ../DE2_SD_Card_Audio_bsp/\libhal_bsp.a(alt_irq_vars.o)
 .data          0x0101d838        0x0 ../DE2_SD_Card_Audio_bsp/\libhal_bsp.a(alt_isatty.o)
 .data          0x0101d838        0x0 ../DE2_SD_Card_Audio_bsp/\libhal_bsp.a(alt_load.o)
 .data          0x0101d838        0x0 ../DE2_SD_Card_Audio_bsp/\libhal_bsp.a(alt_lseek.o)
 .data          0x0101d838        0x0 ../DE2_SD_Card_Audio_bsp/\libhal_bsp.a(alt_main.o)
 .data          0x0101d838        0x0 ../DE2_SD_Card_Audio_bsp/\libhal_bsp.a(alt_malloc_lock.o)
 .data          0x0101d838        0x0 ../DE2_SD_Card_Audio_bsp/\libhal_bsp.a(alt_open.o)
 .data          0x0101d838        0x0 ../DE2_SD_Card_Audio_bsp/\libhal_bsp.a(alt_read.o)
 .data          0x0101d838        0x0 ../DE2_SD_Card_Audio_bsp/\libhal_bsp.a(alt_release_fd.o)
 .data          0x0101d838        0x0 ../DE2_SD_Card_Audio_bsp/\libhal_bsp.a(alt_sbrk.o)
 .data          0x0101d838        0x0 ../DE2_SD_Card_Audio_bsp/\libhal_bsp.a(alt_tick.o)
 .data          0x0101d838        0x0 ../DE2_SD_Card_Audio_bsp/\libhal_bsp.a(alt_usleep.o)
 .data          0x0101d838        0x0 ../DE2_SD_Card_Audio_bsp/\libhal_bsp.a(alt_write.o)
 .data          0x0101d838     0x13e0 ../DE2_SD_Card_Audio_bsp/\libhal_bsp.a(alt_sys_init.o)
 .data          0x0101ec18        0x0 ../DE2_SD_Card_Audio_bsp/\libhal_bsp.a(altera_avalon_cfi_flash.o)
 .data          0x0101ec18        0x0 ../DE2_SD_Card_Audio_bsp/\libhal_bsp.a(altera_avalon_cfi_flash_table.o)
 .data          0x0101ec18        0x0 ../DE2_SD_Card_Audio_bsp/\libhal_bsp.a(altera_avalon_epcs_flash_controller.o)
 .data          0x0101ec18        0x0 ../DE2_SD_Card_Audio_bsp/\libhal_bsp.a(altera_avalon_jtag_uart_fd.o)
 .data          0x0101ec18        0x0 ../DE2_SD_Card_Audio_bsp/\libhal_bsp.a(altera_avalon_jtag_uart_init.o)
 .data          0x0101ec18        0x0 ../DE2_SD_Card_Audio_bsp/\libhal_bsp.a(altera_avalon_jtag_uart_ioctl.o)
 .data          0x0101ec18        0x0 ../DE2_SD_Card_Audio_bsp/\libhal_bsp.a(altera_avalon_jtag_uart_read.o)
 .data          0x0101ec18        0x0 ../DE2_SD_Card_Audio_bsp/\libhal_bsp.a(altera_avalon_jtag_uart_write.o)
 .data          0x0101ec18        0x0 ../DE2_SD_Card_Audio_bsp/\libhal_bsp.a(altera_avalon_lcd_16207.o)
 .data          0x0101ec18        0x0 ../DE2_SD_Card_Audio_bsp/\libhal_bsp.a(altera_avalon_lcd_16207_fd.o)
 .data          0x0101ec18        0x0 ../DE2_SD_Card_Audio_bsp/\libhal_bsp.a(altera_avalon_timer_sc.o)
 .data          0x0101ec18        0x0 ../DE2_SD_Card_Audio_bsp/\libhal_bsp.a(altera_avalon_timer_vars.o)
 .data          0x0101ec18        0x0 ../DE2_SD_Card_Audio_bsp/\libhal_bsp.a(altera_avalon_uart_fd.o)
 .data          0x0101ec18        0x0 ../DE2_SD_Card_Audio_bsp/\libhal_bsp.a(altera_avalon_uart_init.o)
 .data          0x0101ec18        0x0 ../DE2_SD_Card_Audio_bsp/\libhal_bsp.a(altera_avalon_uart_read.o)
 .data          0x0101ec18        0x0 ../DE2_SD_Card_Audio_bsp/\libhal_bsp.a(altera_avalon_uart_write.o)
 .data          0x0101ec18        0x0 ../DE2_SD_Card_Audio_bsp/\libhal_bsp.a(epcs_commands.o)
 .data          0x0101ec18        0x0 ../DE2_SD_Card_Audio_bsp/\libhal_bsp.a(alt_alarm_start.o)
 .data          0x0101ec18        0x0 ../DE2_SD_Card_Audio_bsp/\libhal_bsp.a(alt_busy_sleep.o)
 .data          0x0101ec18        0x0 ../DE2_SD_Card_Audio_bsp/\libhal_bsp.a(alt_dcache_flush.o)
 .data          0x0101ec18        0x0 ../DE2_SD_Card_Audio_bsp/\libhal_bsp.a(alt_dcache_flush_all.o)
 .data          0x0101ec18        0x0 ../DE2_SD_Card_Audio_bsp/\libhal_bsp.a(alt_dev_llist_insert.o)
 .data          0x0101ec18        0x0 ../DE2_SD_Card_Audio_bsp/\libhal_bsp.a(alt_do_ctors.o)
 .data          0x0101ec18        0x0 ../DE2_SD_Card_Audio_bsp/\libhal_bsp.a(alt_do_dtors.o)
 .data          0x0101ec18        0x0 ../DE2_SD_Card_Audio_bsp/\libhal_bsp.a(alt_find_dev.o)
 .data          0x0101ec18        0x0 ../DE2_SD_Card_Audio_bsp/\libhal_bsp.a(alt_find_file.o)
 .data          0x0101ec18        0x0 ../DE2_SD_Card_Audio_bsp/\libhal_bsp.a(alt_flash_dev.o)
 .data          0x0101ec18        0x0 ../DE2_SD_Card_Audio_bsp/\libhal_bsp.a(alt_get_fd.o)
 .data          0x0101ec18        0x0 ../DE2_SD_Card_Audio_bsp/\libhal_bsp.a(alt_icache_flush_all.o)
 .data          0x0101ec18        0x0 ../DE2_SD_Card_Audio_bsp/\libhal_bsp.a(alt_iic.o)
 .data          0x0101ec18        0x0 ../DE2_SD_Card_Audio_bsp/\libhal_bsp.a(alt_iic_isr_register.o)
 .data          0x0101ec18        0x0 ../DE2_SD_Card_Audio_bsp/\libhal_bsp.a(alt_io_redirect.o)
 .data          0x0101ec18        0x0 ../DE2_SD_Card_Audio_bsp/\libhal_bsp.a(alt_irq_entry.o)
 .data          0x0101ec18        0x0 ../DE2_SD_Card_Audio_bsp/\libhal_bsp.a(alt_irq_handler.o)
 .data          0x0101ec18        0x0 ../DE2_SD_Card_Audio_bsp/\libhal_bsp.a(altera_nios2_qsys_irq.o)
 .data          0x0101ec18        0x0 ../DE2_SD_Card_Audio_bsp/\libhal_bsp.a(altera_avalon_cfi_flash_amd.o)
 .data          0x0101ec18        0x0 ../DE2_SD_Card_Audio_bsp/\libhal_bsp.a(altera_avalon_cfi_flash_intel.o)
 .data          0x0101ec18        0x0 ../DE2_SD_Card_Audio_bsp/\libhal_bsp.a(altera_avalon_spi.o)
 .data          0x0101ec18        0x0 ../DE2_SD_Card_Audio_bsp/\libhal_bsp.a(alt_exception_entry.o)
 .data          0x0101ec18        0x0 ../DE2_SD_Card_Audio_bsp/\libhal_bsp.a(alt_icache_flush.o)
 .data          0x0101ec18        0x0 c:/altera/11.1/nios2eds/bin/gnu/h-i686-mingw32/bin/../lib/gcc/nios2-elf/4.1.2/../../../../nios2-elf/lib\libc.a(lib_a-atexit.o)
 .data          0x0101ec18        0x0 c:/altera/11.1/nios2eds/bin/gnu/h-i686-mingw32/bin/../lib/gcc/nios2-elf/4.1.2/../../../../nios2-elf/lib\libc.a(lib_a-exit.o)
 .data          0x0101ec18        0x0 c:/altera/11.1/nios2eds/bin/gnu/h-i686-mingw32/bin/../lib/gcc/nios2-elf/4.1.2/../../../../nios2-elf/lib\libc.a(lib_a-memcmp.o)
 .data          0x0101ec18        0x0 c:/altera/11.1/nios2eds/bin/gnu/h-i686-mingw32/bin/../lib/gcc/nios2-elf/4.1.2/../../../../nios2-elf/lib\libc.a(lib_a-__atexit.o)
 .data          0x0101ec18        0x0 c:/altera/11.1/nios2eds/bin/gnu/h-i686-mingw32/bin/../lib/gcc/nios2-elf/4.1.2/../../../../nios2-elf/lib\libc.a(lib_a-__call_atexit.o)
 .data          0x0101ec18        0x0 ../DE2_SD_Card_Audio_bsp/\libhal_bsp.a(alt_exit.o)
                0x01026c18                _gp = ABSOLUTE ((. + 0x8000))
                0x01026c18                PROVIDE (gp, _gp)
 *(.rwdata .rwdata.*)
 *(.sdata .sdata.* .gnu.linkonce.s.*)
 .sdata         0x0101ec18        0xc obj/default/main.o
 .sdata         0x0101ec24        0x8 c:/altera/11.1/nios2eds/bin/gnu/h-i686-mingw32/bin/../lib/gcc/nios2-elf/4.1.2/../../../../nios2-elf/lib\libc.a(lib_a-impure.o)
                0x0101ec24                _impure_ptr
                0x0101ec28                _global_impure_ptr
 .sdata         0x0101ec2c        0x8 c:/altera/11.1/nios2eds/bin/gnu/h-i686-mingw32/bin/../lib/gcc/nios2-elf/4.1.2/../../../../nios2-elf/lib\libc.a(lib_a-mallocr.o)
                0x0101ec2c                __malloc_trim_threshold
                0x0101ec30                __malloc_sbrk_base
 .sdata         0x0101ec34        0x4 c:/altera/11.1/nios2eds/bin/gnu/h-i686-mingw32/bin/../lib/gcc/nios2-elf/4.1.2/../../../../nios2-elf/lib\libc.a(lib_a-ctype_.o)
                0x0101ec34                __ctype_ptr
 .sdata         0x0101ec38        0x8 c:/altera/11.1/nios2eds/bin/gnu/h-i686-mingw32/bin/../lib/gcc/nios2-elf/4.1.2/../../../../nios2-elf/lib\libc.a(lib_a-locale.o)
                0x0101ec38                __mb_cur_max
 .sdata         0x0101ec40       0x14 ../DE2_SD_Card_Audio_bsp/\libhal_bsp.a(alt_dev.o)
                0x0101ec40                alt_fs_list
                0x0101ec48                alt_dev_list
                0x0101ec50                alt_max_fd
 .sdata         0x0101ec54        0x4 ../DE2_SD_Card_Audio_bsp/\libhal_bsp.a(alt_errno.o)
                0x0101ec54                alt_errno
 .sdata         0x0101ec58        0x4 ../DE2_SD_Card_Audio_bsp/\libhal_bsp.a(alt_irq_vars.o)
                0x0101ec58                alt_priority_mask
 .sdata         0x0101ec5c        0x4 ../DE2_SD_Card_Audio_bsp/\libhal_bsp.a(alt_sbrk.o)
 .sdata         0x0101ec60        0x8 ../DE2_SD_Card_Audio_bsp/\libhal_bsp.a(alt_tick.o)
                0x0101ec60                alt_alarm_list
 .sdata         0x0101ec68        0x4 ../DE2_SD_Card_Audio_bsp/\libhal_bsp.a(altera_avalon_lcd_16207.o)
 .sdata         0x0101ec6c        0x8 ../DE2_SD_Card_Audio_bsp/\libhal_bsp.a(alt_flash_dev.o)
                0x0101ec6c                alt_flash_dev_list
 *(.sdata2 .sdata2.* .gnu.linkonce.s2.*)
                0x0101ec74                . = ALIGN (0x4)
                0x0101ec74                _edata = ABSOLUTE (.)
                0x0101ec74                PROVIDE (edata, ABSOLUTE (.))
                0x0101ec74                PROVIDE (__ram_rwdata_end, ABSOLUTE (.))
                0x0101ec74                PROVIDE (__flash_rwdata_start, LOADADDR (.rwdata))

.bss            0x01020a7c     0x15ac
                0x01020a7c                __bss_start = ABSOLUTE (.)
                0x01020a7c                PROVIDE (__sbss_start, ABSOLUTE (.))
                0x01020a7c                PROVIDE (___sbss_start, ABSOLUTE (.))
 *(.dynsbss)
 *(.sbss .sbss.* .gnu.linkonce.sb.*)
 .sbss          0x01020a7c       0x14 obj/default/main.o
 .sbss          0x01020a90        0x4 obj/default/terasic_lib/LCD.o
 .sbss          0x01020a94        0x4 c:/altera/11.1/nios2eds/bin/gnu/h-i686-mingw32/bin/../lib/gcc/nios2-elf/4.1.2/../../../../nios2-elf/lib\libc.a(lib_a-int_errno.o)
                0x01020a94                errno
 .sbss          0x01020a98        0xc c:/altera/11.1/nios2eds/bin/gnu/h-i686-mingw32/bin/../lib/gcc/nios2-elf/4.1.2/../../../../nios2-elf/lib\libc.a(lib_a-mallocr.o)
                0x01020a98                __malloc_top_pad
                0x01020a9c                __malloc_max_sbrked_mem
                0x01020aa0                __malloc_max_total_mem
 .sbss          0x01020aa4        0xc c:/altera/11.1/nios2eds/bin/gnu/h-i686-mingw32/bin/../lib/gcc/nios2-elf/4.1.2/../../../../nios2-elf/lib\libc.a(lib_a-locale.o)
                0x01020aa4                __nlocale_changed
                0x01020aa8                __mlocale_changed
                0x01020aac                _PathLocale
 .sbss          0x01020ab0        0x4 ../DE2_SD_Card_Audio_bsp/\libhal_bsp.a(alt_irq_vars.o)
                0x01020ab0                alt_irq_active
 .sbss          0x01020ab4        0xc ../DE2_SD_Card_Audio_bsp/\libhal_bsp.a(alt_main.o)
                0x01020ab4                alt_argc
                0x01020ab8                alt_argv
                0x01020abc                alt_envp
 .sbss          0x01020ac0        0x8 ../DE2_SD_Card_Audio_bsp/\libhal_bsp.a(alt_tick.o)
                0x01020ac0                _alt_tick_rate
                0x01020ac4                _alt_nticks
 .sbss          0x01020ac8        0x8 ../DE2_SD_Card_Audio_bsp/\libhal_bsp.a(altera_avalon_timer_vars.o)
                0x01020ac8                altera_avalon_timer_ts_base
                0x01020acc                altera_avalon_timer_ts_freq
 *(.sbss2 .sbss2.* .gnu.linkonce.sb2.*)
 *(.scommon)
                0x01020ad0                PROVIDE (__sbss_end, ABSOLUTE (.))
                0x01020ad0                PROVIDE (___sbss_end, ABSOLUTE (.))
 *(.dynbss)
 *(.bss .bss.* .gnu.linkonce.b.*)
 .bss           0x01020ad0        0x0 ../DE2_SD_Card_Audio_bsp//obj/HAL/src/crt0.o
 .bss           0x01020ad0     0x1240 obj/default/main.o
 .bss           0x01021d10        0x0 obj/default/terasic_fat/FatFileSystem.o
 .bss           0x01021d10        0x0 obj/default/terasic_fat/FatInternal.o
 .bss           0x01021d10       0x28 obj/default/terasic_lib/AUDIO.o
 .bss           0x01021d38        0x0 obj/default/terasic_lib/I2C.o
 .bss           0x01021d38        0x0 obj/default/terasic_lib/LCD.o
 .bss           0x01021d38        0x0 obj/default/terasic_lib/LED.o
 .bss           0x01021d38        0x0 obj/default/terasic_lib/SEG7.o
 .bss           0x01021d38        0x0 obj/default/terasic_lib/WaveLib.o
 .bss           0x01021d38        0x0 obj/default/terasic_lib/debug.o
 .bss           0x01021d38        0x0 obj/default/terasic_sdcard/crc16.o
 .bss           0x01021d38        0x0 obj/default/terasic_sdcard/crc7.o
 .bss           0x01021d38        0x0 obj/default/terasic_sdcard/sd_hal.o
 .bss           0x01021d38       0x38 obj/default/terasic_sdcard/sd_lib.o
 .bss           0x01021d70        0x0 obj/default/terasic_sdcard/sd_protocol.o
 .bss           0x01021d70        0x0 c:/altera/11.1/nios2eds/bin/gnu/h-i686-mingw32/bin/../lib/gcc/nios2-elf/4.1.2\libgcc.a(_mul_sf.o)
 .bss           0x01021d70        0x0 c:/altera/11.1/nios2eds/bin/gnu/h-i686-mingw32/bin/../lib/gcc/nios2-elf/4.1.2\libgcc.a(_div_sf.o)
 .bss           0x01021d70        0x0 c:/altera/11.1/nios2eds/bin/gnu/h-i686-mingw32/bin/../lib/gcc/nios2-elf/4.1.2\libgcc.a(_sf_to_df.o)
 .bss           0x01021d70        0x0 c:/altera/11.1/nios2eds/bin/gnu/h-i686-mingw32/bin/../lib/gcc/nios2-elf/4.1.2\libgcc.a(_thenan_sf.o)
 .bss           0x01021d70        0x0 c:/altera/11.1/nios2eds/bin/gnu/h-i686-mingw32/bin/../lib/gcc/nios2-elf/4.1.2\libgcc.a(_usi_to_sf.o)
 .bss           0x01021d70        0x0 c:/altera/11.1/nios2eds/bin/gnu/h-i686-mingw32/bin/../lib/gcc/nios2-elf/4.1.2\libgcc.a(_div_df.o)
 .bss           0x01021d70        0x0 c:/altera/11.1/nios2eds/bin/gnu/h-i686-mingw32/bin/../lib/gcc/nios2-elf/4.1.2\libgcc.a(_make_df.o)
 .bss           0x01021d70        0x0 c:/altera/11.1/nios2eds/bin/gnu/h-i686-mingw32/bin/../lib/gcc/nios2-elf/4.1.2\libgcc.a(_df_to_sf.o)
 .bss           0x01021d70        0x0 c:/altera/11.1/nios2eds/bin/gnu/h-i686-mingw32/bin/../lib/gcc/nios2-elf/4.1.2\libgcc.a(_thenan_df.o)
 .bss           0x01021d70        0x0 c:/altera/11.1/nios2eds/bin/gnu/h-i686-mingw32/bin/../lib/gcc/nios2-elf/4.1.2\libgcc.a(lib2-divmod.o)
 .bss           0x01021d70        0x0 c:/altera/11.1/nios2eds/bin/gnu/h-i686-mingw32/bin/../lib/gcc/nios2-elf/4.1.2\libgcc.a(_muldi3.o)
 .bss           0x01021d70        0x0 c:/altera/11.1/nios2eds/bin/gnu/h-i686-mingw32/bin/../lib/gcc/nios2-elf/4.1.2\libgcc.a(_clzsi2.o)
 .bss           0x01021d70        0x0 c:/altera/11.1/nios2eds/bin/gnu/h-i686-mingw32/bin/../lib/gcc/nios2-elf/4.1.2\libgcc.a(_pack_sf.o)
 .bss           0x01021d70        0x0 c:/altera/11.1/nios2eds/bin/gnu/h-i686-mingw32/bin/../lib/gcc/nios2-elf/4.1.2\libgcc.a(_unpack_sf.o)
 .bss           0x01021d70        0x0 c:/altera/11.1/nios2eds/bin/gnu/h-i686-mingw32/bin/../lib/gcc/nios2-elf/4.1.2\libgcc.a(_make_sf.o)
 .bss           0x01021d70        0x0 c:/altera/11.1/nios2eds/bin/gnu/h-i686-mingw32/bin/../lib/gcc/nios2-elf/4.1.2\libgcc.a(_pack_df.o)
 .bss           0x01021d70        0x0 c:/altera/11.1/nios2eds/bin/gnu/h-i686-mingw32/bin/../lib/gcc/nios2-elf/4.1.2\libgcc.a(_unpack_df.o)
 .bss           0x01021d70        0x0 c:/altera/11.1/nios2eds/bin/gnu/h-i686-mingw32/bin/../lib/gcc/nios2-elf/4.1.2\libgcc.a(_clz.o)
 .bss           0x01021d70        0x0 c:/altera/11.1/nios2eds/bin/gnu/h-i686-mingw32/bin/../lib/gcc/nios2-elf/4.1.2/../../../../nios2-elf/lib\libc.a(lib_a-fclose.o)
 .bss           0x01021d70        0x0 c:/altera/11.1/nios2eds/bin/gnu/h-i686-mingw32/bin/../lib/gcc/nios2-elf/4.1.2/../../../../nios2-elf/lib\libc.a(lib_a-fflush.o)
 .bss           0x01021d70        0x0 c:/altera/11.1/nios2eds/bin/gnu/h-i686-mingw32/bin/../lib/gcc/nios2-elf/4.1.2/../../../../nios2-elf/lib\libc.a(lib_a-findfp.o)
 .bss           0x01021d70        0x0 c:/altera/11.1/nios2eds/bin/gnu/h-i686-mingw32/bin/../lib/gcc/nios2-elf/4.1.2/../../../../nios2-elf/lib\libc.a(lib_a-fopen.o)
 .bss           0x01021d70        0x0 c:/altera/11.1/nios2eds/bin/gnu/h-i686-mingw32/bin/../lib/gcc/nios2-elf/4.1.2/../../../../nios2-elf/lib\libc.a(lib_a-freer.o)
 .bss           0x01021d70        0x0 c:/altera/11.1/nios2eds/bin/gnu/h-i686-mingw32/bin/../lib/gcc/nios2-elf/4.1.2/../../../../nios2-elf/lib\libc.a(lib_a-fseek.o)
 .bss           0x01021d70        0x0 c:/altera/11.1/nios2eds/bin/gnu/h-i686-mingw32/bin/../lib/gcc/nios2-elf/4.1.2/../../../../nios2-elf/lib\libc.a(lib_a-fstatr.o)
 .bss           0x01021d70        0x0 c:/altera/11.1/nios2eds/bin/gnu/h-i686-mingw32/bin/../lib/gcc/nios2-elf/4.1.2/../../../../nios2-elf/lib\libc.a(lib_a-fwalk.o)
 .bss           0x01021d70        0x0 c:/altera/11.1/nios2eds/bin/gnu/h-i686-mingw32/bin/../lib/gcc/nios2-elf/4.1.2/../../../../nios2-elf/lib\libc.a(lib_a-fwrite.o)
 .bss           0x01021d70        0x0 c:/altera/11.1/nios2eds/bin/gnu/h-i686-mingw32/bin/../lib/gcc/nios2-elf/4.1.2/../../../../nios2-elf/lib\libc.a(lib_a-impure.o)
 .bss           0x01021d70        0x0 c:/altera/11.1/nios2eds/bin/gnu/h-i686-mingw32/bin/../lib/gcc/nios2-elf/4.1.2/../../../../nios2-elf/lib\libc.a(lib_a-int_errno.o)
 .bss           0x01021d70        0x0 c:/altera/11.1/nios2eds/bin/gnu/h-i686-mingw32/bin/../lib/gcc/nios2-elf/4.1.2/../../../../nios2-elf/lib\libc.a(lib_a-makebuf.o)
 .bss           0x01021d70        0x0 c:/altera/11.1/nios2eds/bin/gnu/h-i686-mingw32/bin/../lib/gcc/nios2-elf/4.1.2/../../../../nios2-elf/lib\libc.a(lib_a-malloc.o)
 .bss           0x01021d70       0x28 c:/altera/11.1/nios2eds/bin/gnu/h-i686-mingw32/bin/../lib/gcc/nios2-elf/4.1.2/../../../../nios2-elf/lib\libc.a(lib_a-mallocr.o)
                0x01021d70                __malloc_current_mallinfo
 .bss           0x01021d98        0x0 c:/altera/11.1/nios2eds/bin/gnu/h-i686-mingw32/bin/../lib/gcc/nios2-elf/4.1.2/../../../../nios2-elf/lib\libc.a(lib_a-memcpy.o)
 .bss           0x01021d98        0x0 c:/altera/11.1/nios2eds/bin/gnu/h-i686-mingw32/bin/../lib/gcc/nios2-elf/4.1.2/../../../../nios2-elf/lib\libc.a(lib_a-memset.o)
 .bss           0x01021d98        0x0 c:/altera/11.1/nios2eds/bin/gnu/h-i686-mingw32/bin/../lib/gcc/nios2-elf/4.1.2/../../../../nios2-elf/lib\libc.a(lib_a-openr.o)
 .bss           0x01021d98        0x0 c:/altera/11.1/nios2eds/bin/gnu/h-i686-mingw32/bin/../lib/gcc/nios2-elf/4.1.2/../../../../nios2-elf/lib\libc.a(lib_a-printf.o)
 .bss           0x01021d98        0x0 c:/altera/11.1/nios2eds/bin/gnu/h-i686-mingw32/bin/../lib/gcc/nios2-elf/4.1.2/../../../../nios2-elf/lib\libc.a(lib_a-putchar.o)
 .bss           0x01021d98        0x0 c:/altera/11.1/nios2eds/bin/gnu/h-i686-mingw32/bin/../lib/gcc/nios2-elf/4.1.2/../../../../nios2-elf/lib\libc.a(lib_a-puts.o)
 .bss           0x01021d98        0x0 c:/altera/11.1/nios2eds/bin/gnu/h-i686-mingw32/bin/../lib/gcc/nios2-elf/4.1.2/../../../../nios2-elf/lib\libc.a(lib_a-refill.o)
 .bss           0x01021d98        0x0 c:/altera/11.1/nios2eds/bin/gnu/h-i686-mingw32/bin/../lib/gcc/nios2-elf/4.1.2/../../../../nios2-elf/lib\libc.a(lib_a-sbrkr.o)
 .bss           0x01021d98        0x0 c:/altera/11.1/nios2eds/bin/gnu/h-i686-mingw32/bin/../lib/gcc/nios2-elf/4.1.2/../../../../nios2-elf/lib\libc.a(lib_a-sprintf.o)
 .bss           0x01021d98        0x0 c:/altera/11.1/nios2eds/bin/gnu/h-i686-mingw32/bin/../lib/gcc/nios2-elf/4.1.2/../../../../nios2-elf/lib\libc.a(lib_a-stdio.o)
 .bss           0x01021d98        0x0 c:/altera/11.1/nios2eds/bin/gnu/h-i686-mingw32/bin/../lib/gcc/nios2-elf/4.1.2/../../../../nios2-elf/lib\libc.a(lib_a-strcasecmp.o)
 .bss           0x01021d98        0x0 c:/altera/11.1/nios2eds/bin/gnu/h-i686-mingw32/bin/../lib/gcc/nios2-elf/4.1.2/../../../../nios2-elf/lib\libc.a(lib_a-strcmp.o)
 .bss           0x01021d98        0x0 c:/altera/11.1/nios2eds/bin/gnu/h-i686-mingw32/bin/../lib/gcc/nios2-elf/4.1.2/../../../../nios2-elf/lib\libc.a(lib_a-strcpy.o)
 .bss           0x01021d98        0x0 c:/altera/11.1/nios2eds/bin/gnu/h-i686-mingw32/bin/../lib/gcc/nios2-elf/4.1.2/../../../../nios2-elf/lib\libc.a(lib_a-strlen.o)
 .bss           0x01021d98        0x0 c:/altera/11.1/nios2eds/bin/gnu/h-i686-mingw32/bin/../lib/gcc/nios2-elf/4.1.2/../../../../nios2-elf/lib\libc.a(lib_a-vfprintf.o)
 .bss           0x01021d98        0x0 c:/altera/11.1/nios2eds/bin/gnu/h-i686-mingw32/bin/../lib/gcc/nios2-elf/4.1.2/../../../../nios2-elf/lib\libc.a(lib_a-vsnprintf.o)
 .bss           0x01021d98        0x0 c:/altera/11.1/nios2eds/bin/gnu/h-i686-mingw32/bin/../lib/gcc/nios2-elf/4.1.2/../../../../nios2-elf/lib\libc.a(lib_a-writer.o)
 .bss           0x01021d98        0x0 c:/altera/11.1/nios2eds/bin/gnu/h-i686-mingw32/bin/../lib/gcc/nios2-elf/4.1.2/../../../../nios2-elf/lib\libc.a(lib_a-wsetup.o)
 .bss           0x01021d98        0x0 c:/altera/11.1/nios2eds/bin/gnu/h-i686-mingw32/bin/../lib/gcc/nios2-elf/4.1.2/../../../../nios2-elf/lib\libc.a(lib_a-closer.o)
 .bss           0x01021d98        0x0 c:/altera/11.1/nios2eds/bin/gnu/h-i686-mingw32/bin/../lib/gcc/nios2-elf/4.1.2/../../../../nios2-elf/lib\libc.a(lib_a-ctype_.o)
 .bss           0x01021d98        0x0 c:/altera/11.1/nios2eds/bin/gnu/h-i686-mingw32/bin/../lib/gcc/nios2-elf/4.1.2/../../../../nios2-elf/lib\libc.a(lib_a-dtoa.o)
 .bss           0x01021d98        0x0 c:/altera/11.1/nios2eds/bin/gnu/h-i686-mingw32/bin/../lib/gcc/nios2-elf/4.1.2/../../../../nios2-elf/lib\libc.a(lib_a-flags.o)
 .bss           0x01021d98        0x0 c:/altera/11.1/nios2eds/bin/gnu/h-i686-mingw32/bin/../lib/gcc/nios2-elf/4.1.2/../../../../nios2-elf/lib\libc.a(lib_a-fvwrite.o)
 .bss           0x01021d98        0x0 c:/altera/11.1/nios2eds/bin/gnu/h-i686-mingw32/bin/../lib/gcc/nios2-elf/4.1.2/../../../../nios2-elf/lib\libc.a(lib_a-isattyr.o)
 .bss           0x01021d98        0x0 c:/altera/11.1/nios2eds/bin/gnu/h-i686-mingw32/bin/../lib/gcc/nios2-elf/4.1.2/../../../../nios2-elf/lib\libc.a(lib_a-locale.o)
 .bss           0x01021d98        0x0 c:/altera/11.1/nios2eds/bin/gnu/h-i686-mingw32/bin/../lib/gcc/nios2-elf/4.1.2/../../../../nios2-elf/lib\libc.a(lib_a-lseekr.o)
 .bss           0x01021d98        0x0 c:/altera/11.1/nios2eds/bin/gnu/h-i686-mingw32/bin/../lib/gcc/nios2-elf/4.1.2/../../../../nios2-elf/lib\libc.a(lib_a-memchr.o)
 .bss           0x01021d98        0x0 c:/altera/11.1/nios2eds/bin/gnu/h-i686-mingw32/bin/../lib/gcc/nios2-elf/4.1.2/../../../../nios2-elf/lib\libc.a(lib_a-memmove.o)
 .bss           0x01021d98        0x0 c:/altera/11.1/nios2eds/bin/gnu/h-i686-mingw32/bin/../lib/gcc/nios2-elf/4.1.2/../../../../nios2-elf/lib\libc.a(lib_a-mprec.o)
 .bss           0x01021d98        0x0 c:/altera/11.1/nios2eds/bin/gnu/h-i686-mingw32/bin/../lib/gcc/nios2-elf/4.1.2/../../../../nios2-elf/lib\libc.a(lib_a-putc.o)
 .bss           0x01021d98        0x0 c:/altera/11.1/nios2eds/bin/gnu/h-i686-mingw32/bin/../lib/gcc/nios2-elf/4.1.2/../../../../nios2-elf/lib\libc.a(lib_a-readr.o)
 .bss           0x01021d98        0x0 c:/altera/11.1/nios2eds/bin/gnu/h-i686-mingw32/bin/../lib/gcc/nios2-elf/4.1.2/../../../../nios2-elf/lib\libc.a(lib_a-reallocr.o)
 .bss           0x01021d98        0x0 c:/altera/11.1/nios2eds/bin/gnu/h-i686-mingw32/bin/../lib/gcc/nios2-elf/4.1.2/../../../../nios2-elf/lib\libc.a(lib_a-s_isinfd.o)
 .bss           0x01021d98        0x0 c:/altera/11.1/nios2eds/bin/gnu/h-i686-mingw32/bin/../lib/gcc/nios2-elf/4.1.2/../../../../nios2-elf/lib\libc.a(lib_a-s_isnand.o)
 .bss           0x01021d98        0x0 c:/altera/11.1/nios2eds/bin/gnu/h-i686-mingw32/bin/../lib/gcc/nios2-elf/4.1.2/../../../../nios2-elf/lib\libc.a(lib_a-wbuf.o)
 .bss           0x01021d98        0x0 c:/altera/11.1/nios2eds/bin/gnu/h-i686-mingw32/bin/../lib/gcc/nios2-elf/4.1.2/../../../../nios2-elf/lib\libc.a(lib_a-callocr.o)
 .bss           0x01021d98        0x0 c:/altera/11.1/nios2eds/bin/gnu/h-i686-mingw32/bin/../lib/gcc/nios2-elf/4.1.2\libgcc.a(_udivdi3.o)
 .bss           0x01021d98        0x0 c:/altera/11.1/nios2eds/bin/gnu/h-i686-mingw32/bin/../lib/gcc/nios2-elf/4.1.2\libgcc.a(_umoddi3.o)
 .bss           0x01021d98        0x0 c:/altera/11.1/nios2eds/bin/gnu/h-i686-mingw32/bin/../lib/gcc/nios2-elf/4.1.2\libgcc.a(_addsub_df.o)
 .bss           0x01021d98        0x0 c:/altera/11.1/nios2eds/bin/gnu/h-i686-mingw32/bin/../lib/gcc/nios2-elf/4.1.2\libgcc.a(_mul_df.o)
 .bss           0x01021d98        0x0 c:/altera/11.1/nios2eds/bin/gnu/h-i686-mingw32/bin/../lib/gcc/nios2-elf/4.1.2\libgcc.a(_eq_df.o)
 .bss           0x01021d98        0x0 c:/altera/11.1/nios2eds/bin/gnu/h-i686-mingw32/bin/../lib/gcc/nios2-elf/4.1.2\libgcc.a(_ne_df.o)
 .bss           0x01021d98        0x0 c:/altera/11.1/nios2eds/bin/gnu/h-i686-mingw32/bin/../lib/gcc/nios2-elf/4.1.2\libgcc.a(_gt_df.o)
 .bss           0x01021d98        0x0 c:/altera/11.1/nios2eds/bin/gnu/h-i686-mingw32/bin/../lib/gcc/nios2-elf/4.1.2\libgcc.a(_ge_df.o)
 .bss           0x01021d98        0x0 c:/altera/11.1/nios2eds/bin/gnu/h-i686-mingw32/bin/../lib/gcc/nios2-elf/4.1.2\libgcc.a(_lt_df.o)
 .bss           0x01021d98        0x0 c:/altera/11.1/nios2eds/bin/gnu/h-i686-mingw32/bin/../lib/gcc/nios2-elf/4.1.2\libgcc.a(_si_to_df.o)
 .bss           0x01021d98        0x0 c:/altera/11.1/nios2eds/bin/gnu/h-i686-mingw32/bin/../lib/gcc/nios2-elf/4.1.2\libgcc.a(_df_to_si.o)
 .bss           0x01021d98        0x0 c:/altera/11.1/nios2eds/bin/gnu/h-i686-mingw32/bin/../lib/gcc/nios2-elf/4.1.2\libgcc.a(_usi_to_df.o)
 .bss           0x01021d98        0x0 c:/altera/11.1/nios2eds/bin/gnu/h-i686-mingw32/bin/../lib/gcc/nios2-elf/4.1.2\libgcc.a(_fpcmp_parts_df.o)
 .bss           0x01021d98        0x0 ../DE2_SD_Card_Audio_bsp/\libhal_bsp.a(alt_close.o)
 .bss           0x01021d98        0x0 ../DE2_SD_Card_Audio_bsp/\libhal_bsp.a(alt_dev.o)
 .bss           0x01021d98        0x0 ../DE2_SD_Card_Audio_bsp/\libhal_bsp.a(alt_errno.o)
 .bss           0x01021d98        0x0 ../DE2_SD_Card_Audio_bsp/\libhal_bsp.a(alt_fstat.o)
 .bss           0x01021d98        0x0 ../DE2_SD_Card_Audio_bsp/\libhal_bsp.a(alt_irq_register.o)
 .bss           0x01021d98        0x0 ../DE2_SD_Card_Audio_bsp/\libhal_bsp.a(alt_irq_vars.o)
 .bss           0x01021d98        0x0 ../DE2_SD_Card_Audio_bsp/\libhal_bsp.a(alt_isatty.o)
 .bss           0x01021d98        0x0 ../DE2_SD_Card_Audio_bsp/\libhal_bsp.a(alt_load.o)
 .bss           0x01021d98        0x0 ../DE2_SD_Card_Audio_bsp/\libhal_bsp.a(alt_lseek.o)
 .bss           0x01021d98        0x0 ../DE2_SD_Card_Audio_bsp/\libhal_bsp.a(alt_main.o)
 .bss           0x01021d98        0x0 ../DE2_SD_Card_Audio_bsp/\libhal_bsp.a(alt_malloc_lock.o)
 .bss           0x01021d98        0x0 ../DE2_SD_Card_Audio_bsp/\libhal_bsp.a(alt_open.o)
 .bss           0x01021d98        0x0 ../DE2_SD_Card_Audio_bsp/\libhal_bsp.a(alt_read.o)
 .bss           0x01021d98        0x0 ../DE2_SD_Card_Audio_bsp/\libhal_bsp.a(alt_release_fd.o)
 .bss           0x01021d98        0x0 ../DE2_SD_Card_Audio_bsp/\libhal_bsp.a(alt_sbrk.o)
 .bss           0x01021d98        0x0 ../DE2_SD_Card_Audio_bsp/\libhal_bsp.a(alt_tick.o)
 .bss           0x01021d98        0x0 ../DE2_SD_Card_Audio_bsp/\libhal_bsp.a(alt_usleep.o)
 .bss           0x01021d98        0x0 ../DE2_SD_Card_Audio_bsp/\libhal_bsp.a(alt_write.o)
 .bss           0x01021d98        0x0 ../DE2_SD_Card_Audio_bsp/\libhal_bsp.a(alt_sys_init.o)
 .bss           0x01021d98        0x0 ../DE2_SD_Card_Audio_bsp/\libhal_bsp.a(altera_avalon_cfi_flash.o)
 .bss           0x01021d98        0x0 ../DE2_SD_Card_Audio_bsp/\libhal_bsp.a(altera_avalon_cfi_flash_table.o)
 .bss           0x01021d98        0x0 ../DE2_SD_Card_Audio_bsp/\libhal_bsp.a(altera_avalon_epcs_flash_controller.o)
 .bss           0x01021d98        0x0 ../DE2_SD_Card_Audio_bsp/\libhal_bsp.a(altera_avalon_jtag_uart_fd.o)
 .bss           0x01021d98        0x0 ../DE2_SD_Card_Audio_bsp/\libhal_bsp.a(altera_avalon_jtag_uart_init.o)
 .bss           0x01021d98        0x0 ../DE2_SD_Card_Audio_bsp/\libhal_bsp.a(altera_avalon_jtag_uart_ioctl.o)
 .bss           0x01021d98        0x0 ../DE2_SD_Card_Audio_bsp/\libhal_bsp.a(altera_avalon_jtag_uart_read.o)
 .bss           0x01021d98        0x0 ../DE2_SD_Card_Audio_bsp/\libhal_bsp.a(altera_avalon_jtag_uart_write.o)
 .bss           0x01021d98        0x0 ../DE2_SD_Card_Audio_bsp/\libhal_bsp.a(altera_avalon_lcd_16207.o)
 .bss           0x01021d98        0x0 ../DE2_SD_Card_Audio_bsp/\libhal_bsp.a(altera_avalon_lcd_16207_fd.o)
 .bss           0x01021d98        0x0 ../DE2_SD_Card_Audio_bsp/\libhal_bsp.a(altera_avalon_timer_sc.o)
 .bss           0x01021d98        0x0 ../DE2_SD_Card_Audio_bsp/\libhal_bsp.a(altera_avalon_timer_vars.o)
 .bss           0x01021d98        0x0 ../DE2_SD_Card_Audio_bsp/\libhal_bsp.a(altera_avalon_uart_fd.o)
 .bss           0x01021d98        0x0 ../DE2_SD_Card_Audio_bsp/\libhal_bsp.a(altera_avalon_uart_init.o)
 .bss           0x01021d98        0x0 ../DE2_SD_Card_Audio_bsp/\libhal_bsp.a(altera_avalon_uart_read.o)
 .bss           0x01021d98        0x0 ../DE2_SD_Card_Audio_bsp/\libhal_bsp.a(altera_avalon_uart_write.o)
 .bss           0x01021d98        0x0 ../DE2_SD_Card_Audio_bsp/\libhal_bsp.a(epcs_commands.o)
 .bss           0x01021d98        0x0 ../DE2_SD_Card_Audio_bsp/\libhal_bsp.a(alt_alarm_start.o)
 .bss           0x01021d98        0x0 ../DE2_SD_Card_Audio_bsp/\libhal_bsp.a(alt_busy_sleep.o)
 .bss           0x01021d98        0x0 ../DE2_SD_Card_Audio_bsp/\libhal_bsp.a(alt_dcache_flush.o)
 .bss           0x01021d98        0x0 ../DE2_SD_Card_Audio_bsp/\libhal_bsp.a(alt_dcache_flush_all.o)
 .bss           0x01021d98        0x0 ../DE2_SD_Card_Audio_bsp/\libhal_bsp.a(alt_dev_llist_insert.o)
 .bss           0x01021d98        0x0 ../DE2_SD_Card_Audio_bsp/\libhal_bsp.a(alt_do_ctors.o)
 .bss           0x01021d98        0x0 ../DE2_SD_Card_Audio_bsp/\libhal_bsp.a(alt_do_dtors.o)
 .bss           0x01021d98        0x0 ../DE2_SD_Card_Audio_bsp/\libhal_bsp.a(alt_find_dev.o)
 .bss           0x01021d98        0x0 ../DE2_SD_Card_Audio_bsp/\libhal_bsp.a(alt_find_file.o)
 .bss           0x01021d98        0x0 ../DE2_SD_Card_Audio_bsp/\libhal_bsp.a(alt_flash_dev.o)
 .bss           0x01021d98        0x0 ../DE2_SD_Card_Audio_bsp/\libhal_bsp.a(alt_get_fd.o)
 .bss           0x01021d98        0x0 ../DE2_SD_Card_Audio_bsp/\libhal_bsp.a(alt_icache_flush_all.o)
 .bss           0x01021d98        0x0 ../DE2_SD_Card_Audio_bsp/\libhal_bsp.a(alt_iic.o)
 .bss           0x01021d98        0x0 ../DE2_SD_Card_Audio_bsp/\libhal_bsp.a(alt_iic_isr_register.o)
 .bss           0x01021d98        0x0 ../DE2_SD_Card_Audio_bsp/\libhal_bsp.a(alt_io_redirect.o)
 .bss           0x01021d98        0x0 ../DE2_SD_Card_Audio_bsp/\libhal_bsp.a(alt_irq_entry.o)
 .bss           0x01021d98        0x0 ../DE2_SD_Card_Audio_bsp/\libhal_bsp.a(alt_irq_handler.o)
 .bss           0x01021d98        0x0 ../DE2_SD_Card_Audio_bsp/\libhal_bsp.a(altera_nios2_qsys_irq.o)
 .bss           0x01021d98        0x0 ../DE2_SD_Card_Audio_bsp/\libhal_bsp.a(altera_avalon_cfi_flash_amd.o)
 .bss           0x01021d98        0x0 ../DE2_SD_Card_Audio_bsp/\libhal_bsp.a(altera_avalon_cfi_flash_intel.o)
 .bss           0x01021d98        0x0 ../DE2_SD_Card_Audio_bsp/\libhal_bsp.a(altera_avalon_spi.o)
 .bss           0x01021d98        0x0 ../DE2_SD_Card_Audio_bsp/\libhal_bsp.a(alt_exception_entry.o)
 .bss           0x01021d98        0x0 ../DE2_SD_Card_Audio_bsp/\libhal_bsp.a(alt_icache_flush.o)
 .bss           0x01021d98        0x0 c:/altera/11.1/nios2eds/bin/gnu/h-i686-mingw32/bin/../lib/gcc/nios2-elf/4.1.2/../../../../nios2-elf/lib\libc.a(lib_a-atexit.o)
 .bss           0x01021d98        0x0 c:/altera/11.1/nios2eds/bin/gnu/h-i686-mingw32/bin/../lib/gcc/nios2-elf/4.1.2/../../../../nios2-elf/lib\libc.a(lib_a-exit.o)
 .bss           0x01021d98        0x0 c:/altera/11.1/nios2eds/bin/gnu/h-i686-mingw32/bin/../lib/gcc/nios2-elf/4.1.2/../../../../nios2-elf/lib\libc.a(lib_a-memcmp.o)
 .bss           0x01021d98        0x0 c:/altera/11.1/nios2eds/bin/gnu/h-i686-mingw32/bin/../lib/gcc/nios2-elf/4.1.2/../../../../nios2-elf/lib\libc.a(lib_a-__atexit.o)
 .bss           0x01021d98        0x0 c:/altera/11.1/nios2eds/bin/gnu/h-i686-mingw32/bin/../lib/gcc/nios2-elf/4.1.2/../../../../nios2-elf/lib\libc.a(lib_a-__call_atexit.o)
 .bss           0x01021d98        0x0 ../DE2_SD_Card_Audio_bsp/\libhal_bsp.a(alt_exit.o)
 *(COMMON)
 COMMON         0x01021d98      0x100 ../DE2_SD_Card_Audio_bsp/\libhal_bsp.a(alt_irq_handler.o)
                0x01021d98                alt_irq
 COMMON         0x01021e98      0x190 c:/altera/11.1/nios2eds/bin/gnu/h-i686-mingw32/bin/../lib/gcc/nios2-elf/4.1.2/../../../../nios2-elf/lib\libc.a(lib_a-atexit.o)
                0x01021e98                _atexit0
                0x01022028                . = ALIGN (0x4)
                0x01022028                __bss_end = ABSOLUTE (.)

.cfi_flash_0    0x00000000        0x0 load address 0x01022028
                0x00000000                PROVIDE (_alt_partition_cfi_flash_0_start, ABSOLUTE (.))
 *(.cfi_flash_0. cfi_flash_0.*)
                0x00000000                . = ALIGN (0x4)
                0x00000000                PROVIDE (_alt_partition_cfi_flash_0_end, ABSOLUTE (.))
                0x01022028                PROVIDE (_alt_partition_cfi_flash_0_load_addr, LOADADDR (.cfi_flash_0))

.sram_0         0x00600000        0x0 load address 0x01022028
                0x00600000                PROVIDE (_alt_partition_sram_0_start, ABSOLUTE (.))
 *(.sram_0. sram_0.*)
                0x00600000                . = ALIGN (0x4)
                0x00600000                PROVIDE (_alt_partition_sram_0_end, ABSOLUTE (.))
                0x01022028                PROVIDE (_alt_partition_sram_0_load_addr, LOADADDR (.sram_0))

.epcs_controller
                0x00681800        0x0 load address 0x01022028
                0x00681800                PROVIDE (_alt_partition_epcs_controller_start, ABSOLUTE (.))
 *(.epcs_controller. epcs_controller.*)
                0x00681800                . = ALIGN (0x4)
                0x00681800                PROVIDE (_alt_partition_epcs_controller_end, ABSOLUTE (.))
                0x01022028                PROVIDE (_alt_partition_epcs_controller_load_addr, LOADADDR (.epcs_controller))

.sdram_0        0x01022028        0x0
                0x01022028                PROVIDE (_alt_partition_sdram_0_start, ABSOLUTE (.))
 *(.sdram_0. sdram_0.*)
                0x01022028                . = ALIGN (0x4)
                0x01022028                PROVIDE (_alt_partition_sdram_0_end, ABSOLUTE (.))
                0x01022028                _end = ABSOLUTE (.)
                0x01022028                end = ABSOLUTE (.)
                0x01022028                __alt_stack_base = ABSOLUTE (.)
                0x01022028                PROVIDE (_alt_partition_sdram_0_load_addr, LOADADDR (.sdram_0))

.stab
 *(.stab)

.stabstr
 *(.stabstr)

.stab.excl
 *(.stab.excl)

.stab.exclstr
 *(.stab.exclstr)

.stab.index
 *(.stab.index)

.stab.indexstr
 *(.stab.indexstr)

.comment        0x00000000       0x26
 *(.comment)
 .comment       0x00000000       0x26 obj/default/main.o
                                 0x27 (size before relaxing)
 .comment       0x00000000       0x27 obj/default/terasic_fat/FatFileSystem.o
 .comment       0x00000000       0x27 obj/default/terasic_fat/FatInternal.o
 .comment       0x00000000       0x27 obj/default/terasic_lib/AUDIO.o
 .comment       0x00000000       0x27 obj/default/terasic_lib/I2C.o
 .comment       0x00000000       0x27 obj/default/terasic_lib/LCD.o
 .comment       0x00000000       0x27 obj/default/terasic_lib/LED.o
 .comment       0x00000000       0x27 obj/default/terasic_lib/SEG7.o
 .comment       0x00000000       0x27 obj/default/terasic_lib/WaveLib.o
 .comment       0x00000000       0x27 obj/default/terasic_lib/debug.o
 .comment       0x00000000       0x27 obj/default/terasic_sdcard/crc16.o
 .comment       0x00000000       0x27 obj/default/terasic_sdcard/crc7.o
 .comment       0x00000000       0x27 obj/default/terasic_sdcard/sd_hal.o
 .comment       0x00000000       0x27 obj/default/terasic_sdcard/sd_lib.o
 .comment       0x00000000       0x27 obj/default/terasic_sdcard/sd_protocol.o
 .comment       0x00000000       0x27 c:/altera/11.1/nios2eds/bin/gnu/h-i686-mingw32/bin/../lib/gcc/nios2-elf/4.1.2\libgcc.a(_mul_sf.o)
 .comment       0x00000000       0x27 c:/altera/11.1/nios2eds/bin/gnu/h-i686-mingw32/bin/../lib/gcc/nios2-elf/4.1.2\libgcc.a(_div_sf.o)
 .comment       0x00000000       0x27 c:/altera/11.1/nios2eds/bin/gnu/h-i686-mingw32/bin/../lib/gcc/nios2-elf/4.1.2\libgcc.a(_sf_to_df.o)
 .comment       0x00000000       0x27 c:/altera/11.1/nios2eds/bin/gnu/h-i686-mingw32/bin/../lib/gcc/nios2-elf/4.1.2\libgcc.a(_thenan_sf.o)
 .comment       0x00000000       0x27 c:/altera/11.1/nios2eds/bin/gnu/h-i686-mingw32/bin/../lib/gcc/nios2-elf/4.1.2\libgcc.a(_usi_to_sf.o)
 .comment       0x00000000       0x27 c:/altera/11.1/nios2eds/bin/gnu/h-i686-mingw32/bin/../lib/gcc/nios2-elf/4.1.2\libgcc.a(_div_df.o)
 .comment       0x00000000       0x27 c:/altera/11.1/nios2eds/bin/gnu/h-i686-mingw32/bin/../lib/gcc/nios2-elf/4.1.2\libgcc.a(_make_df.o)
 .comment       0x00000000       0x27 c:/altera/11.1/nios2eds/bin/gnu/h-i686-mingw32/bin/../lib/gcc/nios2-elf/4.1.2\libgcc.a(_df_to_sf.o)
 .comment       0x00000000       0x27 c:/altera/11.1/nios2eds/bin/gnu/h-i686-mingw32/bin/../lib/gcc/nios2-elf/4.1.2\libgcc.a(_thenan_df.o)
 .comment       0x00000000       0x27 c:/altera/11.1/nios2eds/bin/gnu/h-i686-mingw32/bin/../lib/gcc/nios2-elf/4.1.2\libgcc.a(lib2-divmod.o)
 .comment       0x00000000       0x27 c:/altera/11.1/nios2eds/bin/gnu/h-i686-mingw32/bin/../lib/gcc/nios2-elf/4.1.2\libgcc.a(_muldi3.o)
 .comment       0x00000000       0x27 c:/altera/11.1/nios2eds/bin/gnu/h-i686-mingw32/bin/../lib/gcc/nios2-elf/4.1.2\libgcc.a(_clzsi2.o)
 .comment       0x00000000       0x27 c:/altera/11.1/nios2eds/bin/gnu/h-i686-mingw32/bin/../lib/gcc/nios2-elf/4.1.2\libgcc.a(_pack_sf.o)
 .comment       0x00000000       0x27 c:/altera/11.1/nios2eds/bin/gnu/h-i686-mingw32/bin/../lib/gcc/nios2-elf/4.1.2\libgcc.a(_unpack_sf.o)
 .comment       0x00000000       0x27 c:/altera/11.1/nios2eds/bin/gnu/h-i686-mingw32/bin/../lib/gcc/nios2-elf/4.1.2\libgcc.a(_make_sf.o)
 .comment       0x00000000       0x27 c:/altera/11.1/nios2eds/bin/gnu/h-i686-mingw32/bin/../lib/gcc/nios2-elf/4.1.2\libgcc.a(_pack_df.o)
 .comment       0x00000000       0x27 c:/altera/11.1/nios2eds/bin/gnu/h-i686-mingw32/bin/../lib/gcc/nios2-elf/4.1.2\libgcc.a(_unpack_df.o)
 .comment       0x00000000       0x27 c:/altera/11.1/nios2eds/bin/gnu/h-i686-mingw32/bin/../lib/gcc/nios2-elf/4.1.2\libgcc.a(_clz.o)
 .comment       0x00000000       0x27 c:/altera/11.1/nios2eds/bin/gnu/h-i686-mingw32/bin/../lib/gcc/nios2-elf/4.1.2/../../../../nios2-elf/lib\libc.a(lib_a-fclose.o)
 .comment       0x00000000       0x27 c:/altera/11.1/nios2eds/bin/gnu/h-i686-mingw32/bin/../lib/gcc/nios2-elf/4.1.2/../../../../nios2-elf/lib\libc.a(lib_a-fflush.o)
 .comment       0x00000000       0x27 c:/altera/11.1/nios2eds/bin/gnu/h-i686-mingw32/bin/../lib/gcc/nios2-elf/4.1.2/../../../../nios2-elf/lib\libc.a(lib_a-findfp.o)
 .comment       0x00000000       0x27 c:/altera/11.1/nios2eds/bin/gnu/h-i686-mingw32/bin/../lib/gcc/nios2-elf/4.1.2/../../../../nios2-elf/lib\libc.a(lib_a-fopen.o)
 .comment       0x00000000       0x27 c:/altera/11.1/nios2eds/bin/gnu/h-i686-mingw32/bin/../lib/gcc/nios2-elf/4.1.2/../../../../nios2-elf/lib\libc.a(lib_a-freer.o)
 .comment       0x00000000       0x27 c:/altera/11.1/nios2eds/bin/gnu/h-i686-mingw32/bin/../lib/gcc/nios2-elf/4.1.2/../../../../nios2-elf/lib\libc.a(lib_a-fseek.o)
 .comment       0x00000000       0x27 c:/altera/11.1/nios2eds/bin/gnu/h-i686-mingw32/bin/../lib/gcc/nios2-elf/4.1.2/../../../../nios2-elf/lib\libc.a(lib_a-fstatr.o)
 .comment       0x00000000       0x27 c:/altera/11.1/nios2eds/bin/gnu/h-i686-mingw32/bin/../lib/gcc/nios2-elf/4.1.2/../../../../nios2-elf/lib\libc.a(lib_a-fwalk.o)
 .comment       0x00000000       0x27 c:/altera/11.1/nios2eds/bin/gnu/h-i686-mingw32/bin/../lib/gcc/nios2-elf/4.1.2/../../../../nios2-elf/lib\libc.a(lib_a-fwrite.o)
 .comment       0x00000000       0x27 c:/altera/11.1/nios2eds/bin/gnu/h-i686-mingw32/bin/../lib/gcc/nios2-elf/4.1.2/../../../../nios2-elf/lib\libc.a(lib_a-impure.o)
 .comment       0x00000000       0x27 c:/altera/11.1/nios2eds/bin/gnu/h-i686-mingw32/bin/../lib/gcc/nios2-elf/4.1.2/../../../../nios2-elf/lib\libc.a(lib_a-int_errno.o)
 .comment       0x00000000       0x27 c:/altera/11.1/nios2eds/bin/gnu/h-i686-mingw32/bin/../lib/gcc/nios2-elf/4.1.2/../../../../nios2-elf/lib\libc.a(lib_a-makebuf.o)
 .comment       0x00000000       0x27 c:/altera/11.1/nios2eds/bin/gnu/h-i686-mingw32/bin/../lib/gcc/nios2-elf/4.1.2/../../../../nios2-elf/lib\libc.a(lib_a-malloc.o)
 .comment       0x00000000       0x27 c:/altera/11.1/nios2eds/bin/gnu/h-i686-mingw32/bin/../lib/gcc/nios2-elf/4.1.2/../../../../nios2-elf/lib\libc.a(lib_a-mallocr.o)
 .comment       0x00000000       0x27 c:/altera/11.1/nios2eds/bin/gnu/h-i686-mingw32/bin/../lib/gcc/nios2-elf/4.1.2/../../../../nios2-elf/lib\libc.a(lib_a-memcpy.o)
 .comment       0x00000000       0x27 c:/altera/11.1/nios2eds/bin/gnu/h-i686-mingw32/bin/../lib/gcc/nios2-elf/4.1.2/../../../../nios2-elf/lib\libc.a(lib_a-memset.o)
 .comment       0x00000000       0x27 c:/altera/11.1/nios2eds/bin/gnu/h-i686-mingw32/bin/../lib/gcc/nios2-elf/4.1.2/../../../../nios2-elf/lib\libc.a(lib_a-openr.o)
 .comment       0x00000000       0x27 c:/altera/11.1/nios2eds/bin/gnu/h-i686-mingw32/bin/../lib/gcc/nios2-elf/4.1.2/../../../../nios2-elf/lib\libc.a(lib_a-printf.o)
 .comment       0x00000000       0x27 c:/altera/11.1/nios2eds/bin/gnu/h-i686-mingw32/bin/../lib/gcc/nios2-elf/4.1.2/../../../../nios2-elf/lib\libc.a(lib_a-putchar.o)
 .comment       0x00000000       0x27 c:/altera/11.1/nios2eds/bin/gnu/h-i686-mingw32/bin/../lib/gcc/nios2-elf/4.1.2/../../../../nios2-elf/lib\libc.a(lib_a-puts.o)
 .comment       0x00000000       0x27 c:/altera/11.1/nios2eds/bin/gnu/h-i686-mingw32/bin/../lib/gcc/nios2-elf/4.1.2/../../../../nios2-elf/lib\libc.a(lib_a-refill.o)
 .comment       0x00000000       0x27 c:/altera/11.1/nios2eds/bin/gnu/h-i686-mingw32/bin/../lib/gcc/nios2-elf/4.1.2/../../../../nios2-elf/lib\libc.a(lib_a-sbrkr.o)
 .comment       0x00000000       0x27 c:/altera/11.1/nios2eds/bin/gnu/h-i686-mingw32/bin/../lib/gcc/nios2-elf/4.1.2/../../../../nios2-elf/lib\libc.a(lib_a-sprintf.o)
 .comment       0x00000000       0x27 c:/altera/11.1/nios2eds/bin/gnu/h-i686-mingw32/bin/../lib/gcc/nios2-elf/4.1.2/../../../../nios2-elf/lib\libc.a(lib_a-stdio.o)
 .comment       0x00000000       0x27 c:/altera/11.1/nios2eds/bin/gnu/h-i686-mingw32/bin/../lib/gcc/nios2-elf/4.1.2/../../../../nios2-elf/lib\libc.a(lib_a-strcasecmp.o)
 .comment       0x00000000       0x27 c:/altera/11.1/nios2eds/bin/gnu/h-i686-mingw32/bin/../lib/gcc/nios2-elf/4.1.2/../../../../nios2-elf/lib\libc.a(lib_a-strcmp.o)
 .comment       0x00000000       0x27 c:/altera/11.1/nios2eds/bin/gnu/h-i686-mingw32/bin/../lib/gcc/nios2-elf/4.1.2/../../../../nios2-elf/lib\libc.a(lib_a-strcpy.o)
 .comment       0x00000000       0x27 c:/altera/11.1/nios2eds/bin/gnu/h-i686-mingw32/bin/../lib/gcc/nios2-elf/4.1.2/../../../../nios2-elf/lib\libc.a(lib_a-strlen.o)
 .comment       0x00000000       0x27 c:/altera/11.1/nios2eds/bin/gnu/h-i686-mingw32/bin/../lib/gcc/nios2-elf/4.1.2/../../../../nios2-elf/lib\libc.a(lib_a-vfprintf.o)
 .comment       0x00000000       0x27 c:/altera/11.1/nios2eds/bin/gnu/h-i686-mingw32/bin/../lib/gcc/nios2-elf/4.1.2/../../../../nios2-elf/lib\libc.a(lib_a-vsnprintf.o)
 .comment       0x00000000       0x27 c:/altera/11.1/nios2eds/bin/gnu/h-i686-mingw32/bin/../lib/gcc/nios2-elf/4.1.2/../../../../nios2-elf/lib\libc.a(lib_a-writer.o)
 .comment       0x00000000       0x27 c:/altera/11.1/nios2eds/bin/gnu/h-i686-mingw32/bin/../lib/gcc/nios2-elf/4.1.2/../../../../nios2-elf/lib\libc.a(lib_a-wsetup.o)
 .comment       0x00000000       0x27 c:/altera/11.1/nios2eds/bin/gnu/h-i686-mingw32/bin/../lib/gcc/nios2-elf/4.1.2/../../../../nios2-elf/lib\libc.a(lib_a-closer.o)
 .comment       0x00000000       0x27 c:/altera/11.1/nios2eds/bin/gnu/h-i686-mingw32/bin/../lib/gcc/nios2-elf/4.1.2/../../../../nios2-elf/lib\libc.a(lib_a-ctype_.o)
 .comment       0x00000000       0x27 c:/altera/11.1/nios2eds/bin/gnu/h-i686-mingw32/bin/../lib/gcc/nios2-elf/4.1.2/../../../../nios2-elf/lib\libc.a(lib_a-dtoa.o)
 .comment       0x00000000       0x27 c:/altera/11.1/nios2eds/bin/gnu/h-i686-mingw32/bin/../lib/gcc/nios2-elf/4.1.2/../../../../nios2-elf/lib\libc.a(lib_a-flags.o)
 .comment       0x00000000       0x27 c:/altera/11.1/nios2eds/bin/gnu/h-i686-mingw32/bin/../lib/gcc/nios2-elf/4.1.2/../../../../nios2-elf/lib\libc.a(lib_a-fvwrite.o)
 .comment       0x00000000       0x27 c:/altera/11.1/nios2eds/bin/gnu/h-i686-mingw32/bin/../lib/gcc/nios2-elf/4.1.2/../../../../nios2-elf/lib\libc.a(lib_a-isattyr.o)
 .comment       0x00000000       0x27 c:/altera/11.1/nios2eds/bin/gnu/h-i686-mingw32/bin/../lib/gcc/nios2-elf/4.1.2/../../../../nios2-elf/lib\libc.a(lib_a-locale.o)
 .comment       0x00000000       0x27 c:/altera/11.1/nios2eds/bin/gnu/h-i686-mingw32/bin/../lib/gcc/nios2-elf/4.1.2/../../../../nios2-elf/lib\libc.a(lib_a-lseekr.o)
 .comment       0x00000000       0x27 c:/altera/11.1/nios2eds/bin/gnu/h-i686-mingw32/bin/../lib/gcc/nios2-elf/4.1.2/../../../../nios2-elf/lib\libc.a(lib_a-memchr.o)
 .comment       0x00000000       0x27 c:/altera/11.1/nios2eds/bin/gnu/h-i686-mingw32/bin/../lib/gcc/nios2-elf/4.1.2/../../../../nios2-elf/lib\libc.a(lib_a-memmove.o)
 .comment       0x00000000       0x27 c:/altera/11.1/nios2eds/bin/gnu/h-i686-mingw32/bin/../lib/gcc/nios2-elf/4.1.2/../../../../nios2-elf/lib\libc.a(lib_a-mprec.o)
 .comment       0x00000000       0x27 c:/altera/11.1/nios2eds/bin/gnu/h-i686-mingw32/bin/../lib/gcc/nios2-elf/4.1.2/../../../../nios2-elf/lib\libc.a(lib_a-putc.o)
 .comment       0x00000000       0x27 c:/altera/11.1/nios2eds/bin/gnu/h-i686-mingw32/bin/../lib/gcc/nios2-elf/4.1.2/../../../../nios2-elf/lib\libc.a(lib_a-readr.o)
 .comment       0x00000000       0x27 c:/altera/11.1/nios2eds/bin/gnu/h-i686-mingw32/bin/../lib/gcc/nios2-elf/4.1.2/../../../../nios2-elf/lib\libc.a(lib_a-reallocr.o)
 .comment       0x00000000       0x27 c:/altera/11.1/nios2eds/bin/gnu/h-i686-mingw32/bin/../lib/gcc/nios2-elf/4.1.2/../../../../nios2-elf/lib\libc.a(lib_a-s_isinfd.o)
 .comment       0x00000000       0x27 c:/altera/11.1/nios2eds/bin/gnu/h-i686-mingw32/bin/../lib/gcc/nios2-elf/4.1.2/../../../../nios2-elf/lib\libc.a(lib_a-s_isnand.o)
 .comment       0x00000000       0x27 c:/altera/11.1/nios2eds/bin/gnu/h-i686-mingw32/bin/../lib/gcc/nios2-elf/4.1.2/../../../../nios2-elf/lib\libc.a(lib_a-wbuf.o)
 .comment       0x00000000       0x27 c:/altera/11.1/nios2eds/bin/gnu/h-i686-mingw32/bin/../lib/gcc/nios2-elf/4.1.2/../../../../nios2-elf/lib\libc.a(lib_a-callocr.o)
 .comment       0x00000000       0x27 c:/altera/11.1/nios2eds/bin/gnu/h-i686-mingw32/bin/../lib/gcc/nios2-elf/4.1.2\libgcc.a(_udivdi3.o)
 .comment       0x00000000       0x27 c:/altera/11.1/nios2eds/bin/gnu/h-i686-mingw32/bin/../lib/gcc/nios2-elf/4.1.2\libgcc.a(_umoddi3.o)
 .comment       0x00000000       0x27 c:/altera/11.1/nios2eds/bin/gnu/h-i686-mingw32/bin/../lib/gcc/nios2-elf/4.1.2\libgcc.a(_addsub_df.o)
 .comment       0x00000000       0x27 c:/altera/11.1/nios2eds/bin/gnu/h-i686-mingw32/bin/../lib/gcc/nios2-elf/4.1.2\libgcc.a(_mul_df.o)
 .comment       0x00000000       0x27 c:/altera/11.1/nios2eds/bin/gnu/h-i686-mingw32/bin/../lib/gcc/nios2-elf/4.1.2\libgcc.a(_eq_df.o)
 .comment       0x00000000       0x27 c:/altera/11.1/nios2eds/bin/gnu/h-i686-mingw32/bin/../lib/gcc/nios2-elf/4.1.2\libgcc.a(_ne_df.o)
 .comment       0x00000000       0x27 c:/altera/11.1/nios2eds/bin/gnu/h-i686-mingw32/bin/../lib/gcc/nios2-elf/4.1.2\libgcc.a(_gt_df.o)
 .comment       0x00000000       0x27 c:/altera/11.1/nios2eds/bin/gnu/h-i686-mingw32/bin/../lib/gcc/nios2-elf/4.1.2\libgcc.a(_ge_df.o)
 .comment       0x00000000       0x27 c:/altera/11.1/nios2eds/bin/gnu/h-i686-mingw32/bin/../lib/gcc/nios2-elf/4.1.2\libgcc.a(_lt_df.o)
 .comment       0x00000000       0x27 c:/altera/11.1/nios2eds/bin/gnu/h-i686-mingw32/bin/../lib/gcc/nios2-elf/4.1.2\libgcc.a(_si_to_df.o)
 .comment       0x00000000       0x27 c:/altera/11.1/nios2eds/bin/gnu/h-i686-mingw32/bin/../lib/gcc/nios2-elf/4.1.2\libgcc.a(_df_to_si.o)
 .comment       0x00000000       0x27 c:/altera/11.1/nios2eds/bin/gnu/h-i686-mingw32/bin/../lib/gcc/nios2-elf/4.1.2\libgcc.a(_usi_to_df.o)
 .comment       0x00000000       0x27 c:/altera/11.1/nios2eds/bin/gnu/h-i686-mingw32/bin/../lib/gcc/nios2-elf/4.1.2\libgcc.a(_fpcmp_parts_df.o)
 .comment       0x00000000       0x27 ../DE2_SD_Card_Audio_bsp/\libhal_bsp.a(alt_close.o)
 .comment       0x00000000       0x27 ../DE2_SD_Card_Audio_bsp/\libhal_bsp.a(alt_dev.o)
 .comment       0x00000000       0x27 ../DE2_SD_Card_Audio_bsp/\libhal_bsp.a(alt_errno.o)
 .comment       0x00000000       0x27 ../DE2_SD_Card_Audio_bsp/\libhal_bsp.a(alt_fstat.o)
 .comment       0x00000000       0x27 ../DE2_SD_Card_Audio_bsp/\libhal_bsp.a(alt_irq_register.o)
 .comment       0x00000000       0x27 ../DE2_SD_Card_Audio_bsp/\libhal_bsp.a(alt_irq_vars.o)
 .comment       0x00000000       0x27 ../DE2_SD_Card_Audio_bsp/\libhal_bsp.a(alt_isatty.o)
 .comment       0x00000000       0x27 ../DE2_SD_Card_Audio_bsp/\libhal_bsp.a(alt_load.o)
 .comment       0x00000000       0x27 ../DE2_SD_Card_Audio_bsp/\libhal_bsp.a(alt_lseek.o)
 .comment       0x00000000       0x27 ../DE2_SD_Card_Audio_bsp/\libhal_bsp.a(alt_main.o)
 .comment       0x00000000       0x27 ../DE2_SD_Card_Audio_bsp/\libhal_bsp.a(alt_malloc_lock.o)
 .comment       0x00000000       0x27 ../DE2_SD_Card_Audio_bsp/\libhal_bsp.a(alt_open.o)
 .comment       0x00000000       0x27 ../DE2_SD_Card_Audio_bsp/\libhal_bsp.a(alt_read.o)
 .comment       0x00000000       0x27 ../DE2_SD_Card_Audio_bsp/\libhal_bsp.a(alt_release_fd.o)
 .comment       0x00000000       0x27 ../DE2_SD_Card_Audio_bsp/\libhal_bsp.a(alt_sbrk.o)
 .comment       0x00000000       0x27 ../DE2_SD_Card_Audio_bsp/\libhal_bsp.a(alt_tick.o)
 .comment       0x00000000       0x27 ../DE2_SD_Card_Audio_bsp/\libhal_bsp.a(alt_usleep.o)
 .comment       0x00000000       0x27 ../DE2_SD_Card_Audio_bsp/\libhal_bsp.a(alt_write.o)
 .comment       0x00000000       0x27 ../DE2_SD_Card_Audio_bsp/\libhal_bsp.a(alt_sys_init.o)
 .comment       0x00000000       0x27 ../DE2_SD_Card_Audio_bsp/\libhal_bsp.a(altera_avalon_cfi_flash.o)
 .comment       0x00000000       0x27 ../DE2_SD_Card_Audio_bsp/\libhal_bsp.a(altera_avalon_cfi_flash_table.o)
 .comment       0x00000000       0x27 ../DE2_SD_Card_Audio_bsp/\libhal_bsp.a(altera_avalon_epcs_flash_controller.o)
 .comment       0x00000000       0x27 ../DE2_SD_Card_Audio_bsp/\libhal_bsp.a(altera_avalon_jtag_uart_fd.o)
 .comment       0x00000000       0x27 ../DE2_SD_Card_Audio_bsp/\libhal_bsp.a(altera_avalon_jtag_uart_init.o)
 .comment       0x00000000       0x27 ../DE2_SD_Card_Audio_bsp/\libhal_bsp.a(altera_avalon_jtag_uart_ioctl.o)
 .comment       0x00000000       0x27 ../DE2_SD_Card_Audio_bsp/\libhal_bsp.a(altera_avalon_jtag_uart_read.o)
 .comment       0x00000000       0x27 ../DE2_SD_Card_Audio_bsp/\libhal_bsp.a(altera_avalon_jtag_uart_write.o)
 .comment       0x00000000       0x27 ../DE2_SD_Card_Audio_bsp/\libhal_bsp.a(altera_avalon_lcd_16207.o)
 .comment       0x00000000       0x27 ../DE2_SD_Card_Audio_bsp/\libhal_bsp.a(altera_avalon_lcd_16207_fd.o)
 .comment       0x00000000       0x27 ../DE2_SD_Card_Audio_bsp/\libhal_bsp.a(altera_avalon_timer_sc.o)
 .comment       0x00000000       0x27 ../DE2_SD_Card_Audio_bsp/\libhal_bsp.a(altera_avalon_timer_vars.o)
 .comment       0x00000000       0x27 ../DE2_SD_Card_Audio_bsp/\libhal_bsp.a(altera_avalon_uart_fd.o)
 .comment       0x00000000       0x27 ../DE2_SD_Card_Audio_bsp/\libhal_bsp.a(altera_avalon_uart_init.o)
 .comment       0x00000000       0x27 ../DE2_SD_Card_Audio_bsp/\libhal_bsp.a(altera_avalon_uart_read.o)
 .comment       0x00000000       0x27 ../DE2_SD_Card_Audio_bsp/\libhal_bsp.a(altera_avalon_uart_write.o)
 .comment       0x00000000       0x27 ../DE2_SD_Card_Audio_bsp/\libhal_bsp.a(epcs_commands.o)
 .comment       0x00000000       0x27 ../DE2_SD_Card_Audio_bsp/\libhal_bsp.a(alt_alarm_start.o)
 .comment       0x00000000       0x27 ../DE2_SD_Card_Audio_bsp/\libhal_bsp.a(alt_busy_sleep.o)
 .comment       0x00000000       0x27 ../DE2_SD_Card_Audio_bsp/\libhal_bsp.a(alt_dcache_flush.o)
 .comment       0x00000000       0x27 ../DE2_SD_Card_Audio_bsp/\libhal_bsp.a(alt_dcache_flush_all.o)
 .comment       0x00000000       0x27 ../DE2_SD_Card_Audio_bsp/\libhal_bsp.a(alt_dev_llist_insert.o)
 .comment       0x00000000       0x27 ../DE2_SD_Card_Audio_bsp/\libhal_bsp.a(alt_do_ctors.o)
 .comment       0x00000000       0x27 ../DE2_SD_Card_Audio_bsp/\libhal_bsp.a(alt_do_dtors.o)
 .comment       0x00000000       0x27 ../DE2_SD_Card_Audio_bsp/\libhal_bsp.a(alt_find_dev.o)
 .comment       0x00000000       0x27 ../DE2_SD_Card_Audio_bsp/\libhal_bsp.a(alt_find_file.o)
 .comment       0x00000000       0x27 ../DE2_SD_Card_Audio_bsp/\libhal_bsp.a(alt_flash_dev.o)
 .comment       0x00000000       0x27 ../DE2_SD_Card_Audio_bsp/\libhal_bsp.a(alt_get_fd.o)
 .comment       0x00000000       0x27 ../DE2_SD_Card_Audio_bsp/\libhal_bsp.a(alt_icache_flush_all.o)
 .comment       0x00000000       0x27 ../DE2_SD_Card_Audio_bsp/\libhal_bsp.a(alt_iic.o)
 .comment       0x00000000       0x27 ../DE2_SD_Card_Audio_bsp/\libhal_bsp.a(alt_iic_isr_register.o)
 .comment       0x00000000       0x27 ../DE2_SD_Card_Audio_bsp/\libhal_bsp.a(alt_io_redirect.o)
 .comment       0x00000000       0x27 ../DE2_SD_Card_Audio_bsp/\libhal_bsp.a(alt_irq_handler.o)
 .comment       0x00000000       0x27 ../DE2_SD_Card_Audio_bsp/\libhal_bsp.a(altera_nios2_qsys_irq.o)
 .comment       0x00000000       0x27 ../DE2_SD_Card_Audio_bsp/\libhal_bsp.a(altera_avalon_cfi_flash_amd.o)
 .comment       0x00000000       0x27 ../DE2_SD_Card_Audio_bsp/\libhal_bsp.a(altera_avalon_cfi_flash_intel.o)
 .comment       0x00000000       0x27 ../DE2_SD_Card_Audio_bsp/\libhal_bsp.a(altera_avalon_spi.o)
 .comment       0x00000000       0x27 ../DE2_SD_Card_Audio_bsp/\libhal_bsp.a(alt_icache_flush.o)
 .comment       0x00000000       0x27 c:/altera/11.1/nios2eds/bin/gnu/h-i686-mingw32/bin/../lib/gcc/nios2-elf/4.1.2/../../../../nios2-elf/lib\libc.a(lib_a-atexit.o)
 .comment       0x00000000       0x27 c:/altera/11.1/nios2eds/bin/gnu/h-i686-mingw32/bin/../lib/gcc/nios2-elf/4.1.2/../../../../nios2-elf/lib\libc.a(lib_a-exit.o)
 .comment       0x00000000       0x27 c:/altera/11.1/nios2eds/bin/gnu/h-i686-mingw32/bin/../lib/gcc/nios2-elf/4.1.2/../../../../nios2-elf/lib\libc.a(lib_a-memcmp.o)
 .comment       0x00000000       0x27 c:/altera/11.1/nios2eds/bin/gnu/h-i686-mingw32/bin/../lib/gcc/nios2-elf/4.1.2/../../../../nios2-elf/lib\libc.a(lib_a-__atexit.o)
 .comment       0x00000000       0x27 c:/altera/11.1/nios2eds/bin/gnu/h-i686-mingw32/bin/../lib/gcc/nios2-elf/4.1.2/../../../../nios2-elf/lib\libc.a(lib_a-__call_atexit.o)
 .comment       0x00000000       0x27 ../DE2_SD_Card_Audio_bsp/\libhal_bsp.a(alt_exit.o)

.debug
 *(.debug)

.line
 *(.line)

.debug_srcinfo
 *(.debug_srcinfo)

.debug_sfnames
 *(.debug_sfnames)

.debug_aranges  0x00000000     0x1358
 *(.debug_aranges)
 .debug_aranges
                0x00000000       0x28 ../DE2_SD_Card_Audio_bsp//obj/HAL/src/crt0.o
 .debug_aranges
                0x00000028       0x20 obj/default/main.o
 .debug_aranges
                0x00000048       0x20 obj/default/terasic_fat/FatFileSystem.o
 .debug_aranges
                0x00000068       0x20 obj/default/terasic_fat/FatInternal.o
 .debug_aranges
                0x00000088       0x20 obj/default/terasic_lib/AUDIO.o
 .debug_aranges
                0x000000a8       0x20 obj/default/terasic_lib/I2C.o
 .debug_aranges
                0x000000c8       0x20 obj/default/terasic_lib/LCD.o
 .debug_aranges
                0x000000e8       0x20 obj/default/terasic_lib/LED.o
 .debug_aranges
                0x00000108       0x20 obj/default/terasic_lib/SEG7.o
 .debug_aranges
                0x00000128       0x20 obj/default/terasic_lib/WaveLib.o
 .debug_aranges
                0x00000148       0x20 obj/default/terasic_lib/debug.o
 .debug_aranges
                0x00000168       0x20 obj/default/terasic_sdcard/crc16.o
 .debug_aranges
                0x00000188       0x20 obj/default/terasic_sdcard/crc7.o
 .debug_aranges
                0x000001a8       0x20 obj/default/terasic_sdcard/sd_hal.o
 .debug_aranges
                0x000001c8       0x20 obj/default/terasic_sdcard/sd_lib.o
 .debug_aranges
                0x000001e8       0x20 obj/default/terasic_sdcard/sd_protocol.o
 .debug_aranges
                0x00000208       0x20 c:/altera/11.1/nios2eds/bin/gnu/h-i686-mingw32/bin/../lib/gcc/nios2-elf/4.1.2\libgcc.a(_mul_sf.o)
 .debug_aranges
                0x00000228       0x20 c:/altera/11.1/nios2eds/bin/gnu/h-i686-mingw32/bin/../lib/gcc/nios2-elf/4.1.2\libgcc.a(_div_sf.o)
 .debug_aranges
                0x00000248       0x20 c:/altera/11.1/nios2eds/bin/gnu/h-i686-mingw32/bin/../lib/gcc/nios2-elf/4.1.2\libgcc.a(_sf_to_df.o)
 .debug_aranges
                0x00000268       0x20 c:/altera/11.1/nios2eds/bin/gnu/h-i686-mingw32/bin/../lib/gcc/nios2-elf/4.1.2\libgcc.a(_usi_to_sf.o)
 .debug_aranges
                0x00000288       0x20 c:/altera/11.1/nios2eds/bin/gnu/h-i686-mingw32/bin/../lib/gcc/nios2-elf/4.1.2\libgcc.a(_div_df.o)
 .debug_aranges
                0x000002a8       0x20 c:/altera/11.1/nios2eds/bin/gnu/h-i686-mingw32/bin/../lib/gcc/nios2-elf/4.1.2\libgcc.a(_make_df.o)
 .debug_aranges
                0x000002c8       0x20 c:/altera/11.1/nios2eds/bin/gnu/h-i686-mingw32/bin/../lib/gcc/nios2-elf/4.1.2\libgcc.a(_df_to_sf.o)
 .debug_aranges
                0x000002e8       0x20 c:/altera/11.1/nios2eds/bin/gnu/h-i686-mingw32/bin/../lib/gcc/nios2-elf/4.1.2\libgcc.a(lib2-divmod.o)
 .debug_aranges
                0x00000308       0x20 c:/altera/11.1/nios2eds/bin/gnu/h-i686-mingw32/bin/../lib/gcc/nios2-elf/4.1.2\libgcc.a(_muldi3.o)
 .debug_aranges
                0x00000328       0x20 c:/altera/11.1/nios2eds/bin/gnu/h-i686-mingw32/bin/../lib/gcc/nios2-elf/4.1.2\libgcc.a(_clzsi2.o)
 .debug_aranges
                0x00000348       0x20 c:/altera/11.1/nios2eds/bin/gnu/h-i686-mingw32/bin/../lib/gcc/nios2-elf/4.1.2\libgcc.a(_pack_sf.o)
 .debug_aranges
                0x00000368       0x20 c:/altera/11.1/nios2eds/bin/gnu/h-i686-mingw32/bin/../lib/gcc/nios2-elf/4.1.2\libgcc.a(_unpack_sf.o)
 .debug_aranges
                0x00000388       0x20 c:/altera/11.1/nios2eds/bin/gnu/h-i686-mingw32/bin/../lib/gcc/nios2-elf/4.1.2\libgcc.a(_make_sf.o)
 .debug_aranges
                0x000003a8       0x20 c:/altera/11.1/nios2eds/bin/gnu/h-i686-mingw32/bin/../lib/gcc/nios2-elf/4.1.2\libgcc.a(_pack_df.o)
 .debug_aranges
                0x000003c8       0x20 c:/altera/11.1/nios2eds/bin/gnu/h-i686-mingw32/bin/../lib/gcc/nios2-elf/4.1.2\libgcc.a(_unpack_df.o)
 .debug_aranges
                0x000003e8       0x20 c:/altera/11.1/nios2eds/bin/gnu/h-i686-mingw32/bin/../lib/gcc/nios2-elf/4.1.2/../../../../nios2-elf/lib\libc.a(lib_a-fclose.o)
 .debug_aranges
                0x00000408       0x20 c:/altera/11.1/nios2eds/bin/gnu/h-i686-mingw32/bin/../lib/gcc/nios2-elf/4.1.2/../../../../nios2-elf/lib\libc.a(lib_a-fflush.o)
 .debug_aranges
                0x00000428       0x20 c:/altera/11.1/nios2eds/bin/gnu/h-i686-mingw32/bin/../lib/gcc/nios2-elf/4.1.2/../../../../nios2-elf/lib\libc.a(lib_a-findfp.o)
 .debug_aranges
                0x00000448       0x20 c:/altera/11.1/nios2eds/bin/gnu/h-i686-mingw32/bin/../lib/gcc/nios2-elf/4.1.2/../../../../nios2-elf/lib\libc.a(lib_a-fopen.o)
 .debug_aranges
                0x00000468       0x20 c:/altera/11.1/nios2eds/bin/gnu/h-i686-mingw32/bin/../lib/gcc/nios2-elf/4.1.2/../../../../nios2-elf/lib\libc.a(lib_a-freer.o)
 .debug_aranges
                0x00000488       0x20 c:/altera/11.1/nios2eds/bin/gnu/h-i686-mingw32/bin/../lib/gcc/nios2-elf/4.1.2/../../../../nios2-elf/lib\libc.a(lib_a-fseek.o)
 .debug_aranges
                0x000004a8       0x20 c:/altera/11.1/nios2eds/bin/gnu/h-i686-mingw32/bin/../lib/gcc/nios2-elf/4.1.2/../../../../nios2-elf/lib\libc.a(lib_a-fstatr.o)
 .debug_aranges
                0x000004c8       0x20 c:/altera/11.1/nios2eds/bin/gnu/h-i686-mingw32/bin/../lib/gcc/nios2-elf/4.1.2/../../../../nios2-elf/lib\libc.a(lib_a-fwalk.o)
 .debug_aranges
                0x000004e8       0x20 c:/altera/11.1/nios2eds/bin/gnu/h-i686-mingw32/bin/../lib/gcc/nios2-elf/4.1.2/../../../../nios2-elf/lib\libc.a(lib_a-fwrite.o)
 .debug_aranges
                0x00000508       0x20 c:/altera/11.1/nios2eds/bin/gnu/h-i686-mingw32/bin/../lib/gcc/nios2-elf/4.1.2/../../../../nios2-elf/lib\libc.a(lib_a-makebuf.o)
 .debug_aranges
                0x00000528       0x20 c:/altera/11.1/nios2eds/bin/gnu/h-i686-mingw32/bin/../lib/gcc/nios2-elf/4.1.2/../../../../nios2-elf/lib\libc.a(lib_a-malloc.o)
 .debug_aranges
                0x00000548       0x20 c:/altera/11.1/nios2eds/bin/gnu/h-i686-mingw32/bin/../lib/gcc/nios2-elf/4.1.2/../../../../nios2-elf/lib\libc.a(lib_a-mallocr.o)
 .debug_aranges
                0x00000568       0x20 c:/altera/11.1/nios2eds/bin/gnu/h-i686-mingw32/bin/../lib/gcc/nios2-elf/4.1.2/../../../../nios2-elf/lib\libc.a(lib_a-memcpy.o)
 .debug_aranges
                0x00000588       0x20 c:/altera/11.1/nios2eds/bin/gnu/h-i686-mingw32/bin/../lib/gcc/nios2-elf/4.1.2/../../../../nios2-elf/lib\libc.a(lib_a-memset.o)
 .debug_aranges
                0x000005a8       0x20 c:/altera/11.1/nios2eds/bin/gnu/h-i686-mingw32/bin/../lib/gcc/nios2-elf/4.1.2/../../../../nios2-elf/lib\libc.a(lib_a-openr.o)
 .debug_aranges
                0x000005c8       0x20 c:/altera/11.1/nios2eds/bin/gnu/h-i686-mingw32/bin/../lib/gcc/nios2-elf/4.1.2/../../../../nios2-elf/lib\libc.a(lib_a-printf.o)
 .debug_aranges
                0x000005e8       0x20 c:/altera/11.1/nios2eds/bin/gnu/h-i686-mingw32/bin/../lib/gcc/nios2-elf/4.1.2/../../../../nios2-elf/lib\libc.a(lib_a-putchar.o)
 .debug_aranges
                0x00000608       0x20 c:/altera/11.1/nios2eds/bin/gnu/h-i686-mingw32/bin/../lib/gcc/nios2-elf/4.1.2/../../../../nios2-elf/lib\libc.a(lib_a-puts.o)
 .debug_aranges
                0x00000628       0x20 c:/altera/11.1/nios2eds/bin/gnu/h-i686-mingw32/bin/../lib/gcc/nios2-elf/4.1.2/../../../../nios2-elf/lib\libc.a(lib_a-refill.o)
 .debug_aranges
                0x00000648       0x20 c:/altera/11.1/nios2eds/bin/gnu/h-i686-mingw32/bin/../lib/gcc/nios2-elf/4.1.2/../../../../nios2-elf/lib\libc.a(lib_a-sbrkr.o)
 .debug_aranges
                0x00000668       0x20 c:/altera/11.1/nios2eds/bin/gnu/h-i686-mingw32/bin/../lib/gcc/nios2-elf/4.1.2/../../../../nios2-elf/lib\libc.a(lib_a-sprintf.o)
 .debug_aranges
                0x00000688       0x20 c:/altera/11.1/nios2eds/bin/gnu/h-i686-mingw32/bin/../lib/gcc/nios2-elf/4.1.2/../../../../nios2-elf/lib\libc.a(lib_a-stdio.o)
 .debug_aranges
                0x000006a8       0x20 c:/altera/11.1/nios2eds/bin/gnu/h-i686-mingw32/bin/../lib/gcc/nios2-elf/4.1.2/../../../../nios2-elf/lib\libc.a(lib_a-strcasecmp.o)
 .debug_aranges
                0x000006c8       0x20 c:/altera/11.1/nios2eds/bin/gnu/h-i686-mingw32/bin/../lib/gcc/nios2-elf/4.1.2/../../../../nios2-elf/lib\libc.a(lib_a-strcmp.o)
 .debug_aranges
                0x000006e8       0x20 c:/altera/11.1/nios2eds/bin/gnu/h-i686-mingw32/bin/../lib/gcc/nios2-elf/4.1.2/../../../../nios2-elf/lib\libc.a(lib_a-strcpy.o)
 .debug_aranges
                0x00000708       0x20 c:/altera/11.1/nios2eds/bin/gnu/h-i686-mingw32/bin/../lib/gcc/nios2-elf/4.1.2/../../../../nios2-elf/lib\libc.a(lib_a-strlen.o)
 .debug_aranges
                0x00000728       0x20 c:/altera/11.1/nios2eds/bin/gnu/h-i686-mingw32/bin/../lib/gcc/nios2-elf/4.1.2/../../../../nios2-elf/lib\libc.a(lib_a-vfprintf.o)
 .debug_aranges
                0x00000748       0x20 c:/altera/11.1/nios2eds/bin/gnu/h-i686-mingw32/bin/../lib/gcc/nios2-elf/4.1.2/../../../../nios2-elf/lib\libc.a(lib_a-vsnprintf.o)
 .debug_aranges
                0x00000768       0x20 c:/altera/11.1/nios2eds/bin/gnu/h-i686-mingw32/bin/../lib/gcc/nios2-elf/4.1.2/../../../../nios2-elf/lib\libc.a(lib_a-writer.o)
 .debug_aranges
                0x00000788       0x20 c:/altera/11.1/nios2eds/bin/gnu/h-i686-mingw32/bin/../lib/gcc/nios2-elf/4.1.2/../../../../nios2-elf/lib\libc.a(lib_a-wsetup.o)
 .debug_aranges
                0x000007a8       0x20 c:/altera/11.1/nios2eds/bin/gnu/h-i686-mingw32/bin/../lib/gcc/nios2-elf/4.1.2/../../../../nios2-elf/lib\libc.a(lib_a-closer.o)
 .debug_aranges
                0x000007c8       0x20 c:/altera/11.1/nios2eds/bin/gnu/h-i686-mingw32/bin/../lib/gcc/nios2-elf/4.1.2/../../../../nios2-elf/lib\libc.a(lib_a-dtoa.o)
 .debug_aranges
                0x000007e8       0x20 c:/altera/11.1/nios2eds/bin/gnu/h-i686-mingw32/bin/../lib/gcc/nios2-elf/4.1.2/../../../../nios2-elf/lib\libc.a(lib_a-flags.o)
 .debug_aranges
                0x00000808       0x20 c:/altera/11.1/nios2eds/bin/gnu/h-i686-mingw32/bin/../lib/gcc/nios2-elf/4.1.2/../../../../nios2-elf/lib\libc.a(lib_a-fvwrite.o)
 .debug_aranges
                0x00000828       0x20 c:/altera/11.1/nios2eds/bin/gnu/h-i686-mingw32/bin/../lib/gcc/nios2-elf/4.1.2/../../../../nios2-elf/lib\libc.a(lib_a-isattyr.o)
 .debug_aranges
                0x00000848       0x20 c:/altera/11.1/nios2eds/bin/gnu/h-i686-mingw32/bin/../lib/gcc/nios2-elf/4.1.2/../../../../nios2-elf/lib\libc.a(lib_a-locale.o)
 .debug_aranges
                0x00000868       0x20 c:/altera/11.1/nios2eds/bin/gnu/h-i686-mingw32/bin/../lib/gcc/nios2-elf/4.1.2/../../../../nios2-elf/lib\libc.a(lib_a-lseekr.o)
 .debug_aranges
                0x00000888       0x20 c:/altera/11.1/nios2eds/bin/gnu/h-i686-mingw32/bin/../lib/gcc/nios2-elf/4.1.2/../../../../nios2-elf/lib\libc.a(lib_a-memchr.o)
 .debug_aranges
                0x000008a8       0x20 c:/altera/11.1/nios2eds/bin/gnu/h-i686-mingw32/bin/../lib/gcc/nios2-elf/4.1.2/../../../../nios2-elf/lib\libc.a(lib_a-memmove.o)
 .debug_aranges
                0x000008c8       0x20 c:/altera/11.1/nios2eds/bin/gnu/h-i686-mingw32/bin/../lib/gcc/nios2-elf/4.1.2/../../../../nios2-elf/lib\libc.a(lib_a-mprec.o)
 .debug_aranges
                0x000008e8       0x20 c:/altera/11.1/nios2eds/bin/gnu/h-i686-mingw32/bin/../lib/gcc/nios2-elf/4.1.2/../../../../nios2-elf/lib\libc.a(lib_a-putc.o)
 .debug_aranges
                0x00000908       0x20 c:/altera/11.1/nios2eds/bin/gnu/h-i686-mingw32/bin/../lib/gcc/nios2-elf/4.1.2/../../../../nios2-elf/lib\libc.a(lib_a-readr.o)
 .debug_aranges
                0x00000928       0x20 c:/altera/11.1/nios2eds/bin/gnu/h-i686-mingw32/bin/../lib/gcc/nios2-elf/4.1.2/../../../../nios2-elf/lib\libc.a(lib_a-reallocr.o)
 .debug_aranges
                0x00000948       0x20 c:/altera/11.1/nios2eds/bin/gnu/h-i686-mingw32/bin/../lib/gcc/nios2-elf/4.1.2/../../../../nios2-elf/lib\libc.a(lib_a-s_isinfd.o)
 .debug_aranges
                0x00000968       0x20 c:/altera/11.1/nios2eds/bin/gnu/h-i686-mingw32/bin/../lib/gcc/nios2-elf/4.1.2/../../../../nios2-elf/lib\libc.a(lib_a-s_isnand.o)
 .debug_aranges
                0x00000988       0x20 c:/altera/11.1/nios2eds/bin/gnu/h-i686-mingw32/bin/../lib/gcc/nios2-elf/4.1.2/../../../../nios2-elf/lib\libc.a(lib_a-wbuf.o)
 .debug_aranges
                0x000009a8       0x20 c:/altera/11.1/nios2eds/bin/gnu/h-i686-mingw32/bin/../lib/gcc/nios2-elf/4.1.2/../../../../nios2-elf/lib\libc.a(lib_a-callocr.o)
 .debug_aranges
                0x000009c8       0x20 c:/altera/11.1/nios2eds/bin/gnu/h-i686-mingw32/bin/../lib/gcc/nios2-elf/4.1.2\libgcc.a(_udivdi3.o)
 .debug_aranges
                0x000009e8       0x20 c:/altera/11.1/nios2eds/bin/gnu/h-i686-mingw32/bin/../lib/gcc/nios2-elf/4.1.2\libgcc.a(_umoddi3.o)
 .debug_aranges
                0x00000a08       0x20 c:/altera/11.1/nios2eds/bin/gnu/h-i686-mingw32/bin/../lib/gcc/nios2-elf/4.1.2\libgcc.a(_addsub_df.o)
 .debug_aranges
                0x00000a28       0x20 c:/altera/11.1/nios2eds/bin/gnu/h-i686-mingw32/bin/../lib/gcc/nios2-elf/4.1.2\libgcc.a(_mul_df.o)
 .debug_aranges
                0x00000a48       0x20 c:/altera/11.1/nios2eds/bin/gnu/h-i686-mingw32/bin/../lib/gcc/nios2-elf/4.1.2\libgcc.a(_eq_df.o)
 .debug_aranges
                0x00000a68       0x20 c:/altera/11.1/nios2eds/bin/gnu/h-i686-mingw32/bin/../lib/gcc/nios2-elf/4.1.2\libgcc.a(_ne_df.o)
 .debug_aranges
                0x00000a88       0x20 c:/altera/11.1/nios2eds/bin/gnu/h-i686-mingw32/bin/../lib/gcc/nios2-elf/4.1.2\libgcc.a(_gt_df.o)
 .debug_aranges
                0x00000aa8       0x20 c:/altera/11.1/nios2eds/bin/gnu/h-i686-mingw32/bin/../lib/gcc/nios2-elf/4.1.2\libgcc.a(_ge_df.o)
 .debug_aranges
                0x00000ac8       0x20 c:/altera/11.1/nios2eds/bin/gnu/h-i686-mingw32/bin/../lib/gcc/nios2-elf/4.1.2\libgcc.a(_lt_df.o)
 .debug_aranges
                0x00000ae8       0x20 c:/altera/11.1/nios2eds/bin/gnu/h-i686-mingw32/bin/../lib/gcc/nios2-elf/4.1.2\libgcc.a(_si_to_df.o)
 .debug_aranges
                0x00000b08       0x20 c:/altera/11.1/nios2eds/bin/gnu/h-i686-mingw32/bin/../lib/gcc/nios2-elf/4.1.2\libgcc.a(_df_to_si.o)
 .debug_aranges
                0x00000b28       0x20 c:/altera/11.1/nios2eds/bin/gnu/h-i686-mingw32/bin/../lib/gcc/nios2-elf/4.1.2\libgcc.a(_usi_to_df.o)
 .debug_aranges
                0x00000b48       0x20 c:/altera/11.1/nios2eds/bin/gnu/h-i686-mingw32/bin/../lib/gcc/nios2-elf/4.1.2\libgcc.a(_fpcmp_parts_df.o)
 .debug_aranges
                0x00000b68       0x20 ../DE2_SD_Card_Audio_bsp/\libhal_bsp.a(alt_close.o)
 .debug_aranges
                0x00000b88       0x20 ../DE2_SD_Card_Audio_bsp/\libhal_bsp.a(alt_dev.o)
 .debug_aranges
                0x00000ba8       0x20 ../DE2_SD_Card_Audio_bsp/\libhal_bsp.a(alt_fstat.o)
 .debug_aranges
                0x00000bc8       0x20 ../DE2_SD_Card_Audio_bsp/\libhal_bsp.a(alt_irq_register.o)
 .debug_aranges
                0x00000be8       0x20 ../DE2_SD_Card_Audio_bsp/\libhal_bsp.a(alt_isatty.o)
 .debug_aranges
                0x00000c08       0x20 ../DE2_SD_Card_Audio_bsp/\libhal_bsp.a(alt_load.o)
 .debug_aranges
                0x00000c28       0x20 ../DE2_SD_Card_Audio_bsp/\libhal_bsp.a(alt_lseek.o)
 .debug_aranges
                0x00000c48       0x20 ../DE2_SD_Card_Audio_bsp/\libhal_bsp.a(alt_main.o)
 .debug_aranges
                0x00000c68       0x20 ../DE2_SD_Card_Audio_bsp/\libhal_bsp.a(alt_malloc_lock.o)
 .debug_aranges
                0x00000c88       0x20 ../DE2_SD_Card_Audio_bsp/\libhal_bsp.a(alt_open.o)
 .debug_aranges
                0x00000ca8       0x20 ../DE2_SD_Card_Audio_bsp/\libhal_bsp.a(alt_read.o)
 .debug_aranges
                0x00000cc8       0x20 ../DE2_SD_Card_Audio_bsp/\libhal_bsp.a(alt_release_fd.o)
 .debug_aranges
                0x00000ce8       0x20 ../DE2_SD_Card_Audio_bsp/\libhal_bsp.a(alt_sbrk.o)
 .debug_aranges
                0x00000d08       0x20 ../DE2_SD_Card_Audio_bsp/\libhal_bsp.a(alt_tick.o)
 .debug_aranges
                0x00000d28       0x20 ../DE2_SD_Card_Audio_bsp/\libhal_bsp.a(alt_usleep.o)
 .debug_aranges
                0x00000d48       0x20 ../DE2_SD_Card_Audio_bsp/\libhal_bsp.a(alt_write.o)
 .debug_aranges
                0x00000d68       0x20 ../DE2_SD_Card_Audio_bsp/\libhal_bsp.a(alt_sys_init.o)
 .debug_aranges
                0x00000d88       0x20 ../DE2_SD_Card_Audio_bsp/\libhal_bsp.a(altera_avalon_cfi_flash.o)
 .debug_aranges
                0x00000da8       0x20 ../DE2_SD_Card_Audio_bsp/\libhal_bsp.a(altera_avalon_cfi_flash_table.o)
 .debug_aranges
                0x00000dc8       0x20 ../DE2_SD_Card_Audio_bsp/\libhal_bsp.a(altera_avalon_epcs_flash_controller.o)
 .debug_aranges
                0x00000de8       0x20 ../DE2_SD_Card_Audio_bsp/\libhal_bsp.a(altera_avalon_jtag_uart_fd.o)
 .debug_aranges
                0x00000e08       0x20 ../DE2_SD_Card_Audio_bsp/\libhal_bsp.a(altera_avalon_jtag_uart_init.o)
 .debug_aranges
                0x00000e28       0x20 ../DE2_SD_Card_Audio_bsp/\libhal_bsp.a(altera_avalon_jtag_uart_ioctl.o)
 .debug_aranges
                0x00000e48       0x20 ../DE2_SD_Card_Audio_bsp/\libhal_bsp.a(altera_avalon_jtag_uart_read.o)
 .debug_aranges
                0x00000e68       0x20 ../DE2_SD_Card_Audio_bsp/\libhal_bsp.a(altera_avalon_jtag_uart_write.o)
 .debug_aranges
                0x00000e88       0x20 ../DE2_SD_Card_Audio_bsp/\libhal_bsp.a(altera_avalon_lcd_16207.o)
 .debug_aranges
                0x00000ea8       0x20 ../DE2_SD_Card_Audio_bsp/\libhal_bsp.a(altera_avalon_lcd_16207_fd.o)
 .debug_aranges
                0x00000ec8       0x20 ../DE2_SD_Card_Audio_bsp/\libhal_bsp.a(altera_avalon_timer_sc.o)
 .debug_aranges
                0x00000ee8       0x20 ../DE2_SD_Card_Audio_bsp/\libhal_bsp.a(altera_avalon_uart_fd.o)
 .debug_aranges
                0x00000f08       0x20 ../DE2_SD_Card_Audio_bsp/\libhal_bsp.a(altera_avalon_uart_init.o)
 .debug_aranges
                0x00000f28       0x20 ../DE2_SD_Card_Audio_bsp/\libhal_bsp.a(altera_avalon_uart_read.o)
 .debug_aranges
                0x00000f48       0x20 ../DE2_SD_Card_Audio_bsp/\libhal_bsp.a(altera_avalon_uart_write.o)
 .debug_aranges
                0x00000f68       0x20 ../DE2_SD_Card_Audio_bsp/\libhal_bsp.a(epcs_commands.o)
 .debug_aranges
                0x00000f88       0x20 ../DE2_SD_Card_Audio_bsp/\libhal_bsp.a(alt_alarm_start.o)
 .debug_aranges
                0x00000fa8       0x20 ../DE2_SD_Card_Audio_bsp/\libhal_bsp.a(alt_busy_sleep.o)
 .debug_aranges
                0x00000fc8       0x20 ../DE2_SD_Card_Audio_bsp/\libhal_bsp.a(alt_dcache_flush.o)
 .debug_aranges
                0x00000fe8       0x20 ../DE2_SD_Card_Audio_bsp/\libhal_bsp.a(alt_dcache_flush_all.o)
 .debug_aranges
                0x00001008       0x20 ../DE2_SD_Card_Audio_bsp/\libhal_bsp.a(alt_dev_llist_insert.o)
 .debug_aranges
                0x00001028       0x20 ../DE2_SD_Card_Audio_bsp/\libhal_bsp.a(alt_do_ctors.o)
 .debug_aranges
                0x00001048       0x20 ../DE2_SD_Card_Audio_bsp/\libhal_bsp.a(alt_do_dtors.o)
 .debug_aranges
                0x00001068       0x20 ../DE2_SD_Card_Audio_bsp/\libhal_bsp.a(alt_find_dev.o)
 .debug_aranges
                0x00001088       0x20 ../DE2_SD_Card_Audio_bsp/\libhal_bsp.a(alt_find_file.o)
 .debug_aranges
                0x000010a8       0x20 ../DE2_SD_Card_Audio_bsp/\libhal_bsp.a(alt_flash_dev.o)
 .debug_aranges
                0x000010c8       0x20 ../DE2_SD_Card_Audio_bsp/\libhal_bsp.a(alt_get_fd.o)
 .debug_aranges
                0x000010e8       0x20 ../DE2_SD_Card_Audio_bsp/\libhal_bsp.a(alt_icache_flush_all.o)
 .debug_aranges
                0x00001108       0x20 ../DE2_SD_Card_Audio_bsp/\libhal_bsp.a(alt_iic.o)
 .debug_aranges
                0x00001128       0x20 ../DE2_SD_Card_Audio_bsp/\libhal_bsp.a(alt_iic_isr_register.o)
 .debug_aranges
                0x00001148       0x20 ../DE2_SD_Card_Audio_bsp/\libhal_bsp.a(alt_io_redirect.o)
 .debug_aranges
                0x00001168       0x30 ../DE2_SD_Card_Audio_bsp/\libhal_bsp.a(alt_irq_entry.o)
 .debug_aranges
                0x00001198       0x28 ../DE2_SD_Card_Audio_bsp/\libhal_bsp.a(alt_irq_handler.o)
 .debug_aranges
                0x000011c0       0x20 ../DE2_SD_Card_Audio_bsp/\libhal_bsp.a(altera_nios2_qsys_irq.o)
 .debug_aranges
                0x000011e0       0x20 ../DE2_SD_Card_Audio_bsp/\libhal_bsp.a(altera_avalon_cfi_flash_amd.o)
 .debug_aranges
                0x00001200       0x20 ../DE2_SD_Card_Audio_bsp/\libhal_bsp.a(altera_avalon_cfi_flash_intel.o)
 .debug_aranges
                0x00001220       0x20 ../DE2_SD_Card_Audio_bsp/\libhal_bsp.a(altera_avalon_spi.o)
 .debug_aranges
                0x00001240       0x38 ../DE2_SD_Card_Audio_bsp/\libhal_bsp.a(alt_exception_entry.o)
 .debug_aranges
                0x00001278       0x20 ../DE2_SD_Card_Audio_bsp/\libhal_bsp.a(alt_icache_flush.o)
 .debug_aranges
                0x00001298       0x20 c:/altera/11.1/nios2eds/bin/gnu/h-i686-mingw32/bin/../lib/gcc/nios2-elf/4.1.2/../../../../nios2-elf/lib\libc.a(lib_a-atexit.o)
 .debug_aranges
                0x000012b8       0x20 c:/altera/11.1/nios2eds/bin/gnu/h-i686-mingw32/bin/../lib/gcc/nios2-elf/4.1.2/../../../../nios2-elf/lib\libc.a(lib_a-exit.o)
 .debug_aranges
                0x000012d8       0x20 c:/altera/11.1/nios2eds/bin/gnu/h-i686-mingw32/bin/../lib/gcc/nios2-elf/4.1.2/../../../../nios2-elf/lib\libc.a(lib_a-memcmp.o)
 .debug_aranges
                0x000012f8       0x20 c:/altera/11.1/nios2eds/bin/gnu/h-i686-mingw32/bin/../lib/gcc/nios2-elf/4.1.2/../../../../nios2-elf/lib\libc.a(lib_a-__atexit.o)
 .debug_aranges
                0x00001318       0x20 c:/altera/11.1/nios2eds/bin/gnu/h-i686-mingw32/bin/../lib/gcc/nios2-elf/4.1.2/../../../../nios2-elf/lib\libc.a(lib_a-__call_atexit.o)
 .debug_aranges
                0x00001338       0x20 ../DE2_SD_Card_Audio_bsp/\libhal_bsp.a(alt_exit.o)

.debug_pubnames
                0x00000000     0x29da
 *(.debug_pubnames)
 .debug_pubnames
                0x00000000      0x169 obj/default/main.o
 .debug_pubnames
                0x00000169      0x12c obj/default/terasic_fat/FatFileSystem.o
 .debug_pubnames
                0x00000295      0x17e obj/default/terasic_fat/FatInternal.o
 .debug_pubnames
                0x00000413      0x20b obj/default/terasic_lib/AUDIO.o
 .debug_pubnames
                0x0000061e       0x78 obj/default/terasic_lib/I2C.o
 .debug_pubnames
                0x00000696       0x4b obj/default/terasic_lib/LCD.o
 .debug_pubnames
                0x000006e1       0x52 obj/default/terasic_lib/LED.o
 .debug_pubnames
                0x00000733       0x5d obj/default/terasic_lib/SEG7.o
 .debug_pubnames
                0x00000790       0xb4 obj/default/terasic_lib/WaveLib.o
 .debug_pubnames
                0x00000844       0x5e obj/default/terasic_lib/debug.o
 .debug_pubnames
                0x000008a2       0x1c obj/default/terasic_sdcard/crc16.o
 .debug_pubnames
                0x000008be       0x29 obj/default/terasic_sdcard/crc7.o
 .debug_pubnames
                0x000008e7       0x9e obj/default/terasic_sdcard/sd_hal.o
 .debug_pubnames
                0x00000985       0x50 obj/default/terasic_sdcard/sd_lib.o
 .debug_pubnames
                0x000009d5      0x116 obj/default/terasic_sdcard/sd_protocol.o
 .debug_pubnames
                0x00000aeb       0x1f c:/altera/11.1/nios2eds/bin/gnu/h-i686-mingw32/bin/../lib/gcc/nios2-elf/4.1.2\libgcc.a(_mul_sf.o)
 .debug_pubnames
                0x00000b0a       0x1f c:/altera/11.1/nios2eds/bin/gnu/h-i686-mingw32/bin/../lib/gcc/nios2-elf/4.1.2\libgcc.a(_div_sf.o)
 .debug_pubnames
                0x00000b29       0x24 c:/altera/11.1/nios2eds/bin/gnu/h-i686-mingw32/bin/../lib/gcc/nios2-elf/4.1.2\libgcc.a(_sf_to_df.o)
 .debug_pubnames
                0x00000b4d       0x22 c:/altera/11.1/nios2eds/bin/gnu/h-i686-mingw32/bin/../lib/gcc/nios2-elf/4.1.2\libgcc.a(_thenan_sf.o)
 .debug_pubnames
                0x00000b6f       0x24 c:/altera/11.1/nios2eds/bin/gnu/h-i686-mingw32/bin/../lib/gcc/nios2-elf/4.1.2\libgcc.a(_usi_to_sf.o)
 .debug_pubnames
                0x00000b93       0x1f c:/altera/11.1/nios2eds/bin/gnu/h-i686-mingw32/bin/../lib/gcc/nios2-elf/4.1.2\libgcc.a(_div_df.o)
 .debug_pubnames
                0x00000bb2       0x20 c:/altera/11.1/nios2eds/bin/gnu/h-i686-mingw32/bin/../lib/gcc/nios2-elf/4.1.2\libgcc.a(_make_df.o)
 .debug_pubnames
                0x00000bd2       0x23 c:/altera/11.1/nios2eds/bin/gnu/h-i686-mingw32/bin/../lib/gcc/nios2-elf/4.1.2\libgcc.a(_df_to_sf.o)
 .debug_pubnames
                0x00000bf5       0x22 c:/altera/11.1/nios2eds/bin/gnu/h-i686-mingw32/bin/../lib/gcc/nios2-elf/4.1.2\libgcc.a(_thenan_df.o)
 .debug_pubnames
                0x00000c17       0x48 c:/altera/11.1/nios2eds/bin/gnu/h-i686-mingw32/bin/../lib/gcc/nios2-elf/4.1.2\libgcc.a(lib2-divmod.o)
 .debug_pubnames
                0x00000c5f       0x1f c:/altera/11.1/nios2eds/bin/gnu/h-i686-mingw32/bin/../lib/gcc/nios2-elf/4.1.2\libgcc.a(_muldi3.o)
 .debug_pubnames
                0x00000c7e       0x1f c:/altera/11.1/nios2eds/bin/gnu/h-i686-mingw32/bin/../lib/gcc/nios2-elf/4.1.2\libgcc.a(_clzsi2.o)
 .debug_pubnames
                0x00000c9d       0x1f c:/altera/11.1/nios2eds/bin/gnu/h-i686-mingw32/bin/../lib/gcc/nios2-elf/4.1.2\libgcc.a(_pack_sf.o)
 .debug_pubnames
                0x00000cbc       0x21 c:/altera/11.1/nios2eds/bin/gnu/h-i686-mingw32/bin/../lib/gcc/nios2-elf/4.1.2\libgcc.a(_unpack_sf.o)
 .debug_pubnames
                0x00000cdd       0x20 c:/altera/11.1/nios2eds/bin/gnu/h-i686-mingw32/bin/../lib/gcc/nios2-elf/4.1.2\libgcc.a(_make_sf.o)
 .debug_pubnames
                0x00000cfd       0x1f c:/altera/11.1/nios2eds/bin/gnu/h-i686-mingw32/bin/../lib/gcc/nios2-elf/4.1.2\libgcc.a(_pack_df.o)
 .debug_pubnames
                0x00000d1c       0x21 c:/altera/11.1/nios2eds/bin/gnu/h-i686-mingw32/bin/../lib/gcc/nios2-elf/4.1.2\libgcc.a(_unpack_df.o)
 .debug_pubnames
                0x00000d3d       0x20 c:/altera/11.1/nios2eds/bin/gnu/h-i686-mingw32/bin/../lib/gcc/nios2-elf/4.1.2\libgcc.a(_clz.o)
 .debug_pubnames
                0x00000d5d       0x2b c:/altera/11.1/nios2eds/bin/gnu/h-i686-mingw32/bin/../lib/gcc/nios2-elf/4.1.2/../../../../nios2-elf/lib\libc.a(lib_a-fclose.o)
 .debug_pubnames
                0x00000d88       0x2b c:/altera/11.1/nios2eds/bin/gnu/h-i686-mingw32/bin/../lib/gcc/nios2-elf/4.1.2/../../../../nios2-elf/lib\libc.a(lib_a-fflush.o)
 .debug_pubnames
                0x00000db3       0xdb c:/altera/11.1/nios2eds/bin/gnu/h-i686-mingw32/bin/../lib/gcc/nios2-elf/4.1.2/../../../../nios2-elf/lib\libc.a(lib_a-findfp.o)
 .debug_pubnames
                0x00000e8e       0x29 c:/altera/11.1/nios2eds/bin/gnu/h-i686-mingw32/bin/../lib/gcc/nios2-elf/4.1.2/../../../../nios2-elf/lib\libc.a(lib_a-fopen.o)
 .debug_pubnames
                0x00000eb7       0x31 c:/altera/11.1/nios2eds/bin/gnu/h-i686-mingw32/bin/../lib/gcc/nios2-elf/4.1.2/../../../../nios2-elf/lib\libc.a(lib_a-freer.o)
 .debug_pubnames
                0x00000ee8       0x29 c:/altera/11.1/nios2eds/bin/gnu/h-i686-mingw32/bin/../lib/gcc/nios2-elf/4.1.2/../../../../nios2-elf/lib\libc.a(lib_a-fseek.o)
 .debug_pubnames
                0x00000f11       0x1f c:/altera/11.1/nios2eds/bin/gnu/h-i686-mingw32/bin/../lib/gcc/nios2-elf/4.1.2/../../../../nios2-elf/lib\libc.a(lib_a-fstatr.o)
 .debug_pubnames
                0x00000f30       0x2e c:/altera/11.1/nios2eds/bin/gnu/h-i686-mingw32/bin/../lib/gcc/nios2-elf/4.1.2/../../../../nios2-elf/lib\libc.a(lib_a-fwalk.o)
 .debug_pubnames
                0x00000f5e       0x2b c:/altera/11.1/nios2eds/bin/gnu/h-i686-mingw32/bin/../lib/gcc/nios2-elf/4.1.2/../../../../nios2-elf/lib\libc.a(lib_a-fwrite.o)
 .debug_pubnames
                0x00000f89       0x39 c:/altera/11.1/nios2eds/bin/gnu/h-i686-mingw32/bin/../lib/gcc/nios2-elf/4.1.2/../../../../nios2-elf/lib\libc.a(lib_a-impure.o)
 .debug_pubnames
                0x00000fc2       0x1c c:/altera/11.1/nios2eds/bin/gnu/h-i686-mingw32/bin/../lib/gcc/nios2-elf/4.1.2/../../../../nios2-elf/lib\libc.a(lib_a-int_errno.o)
 .debug_pubnames
                0x00000fde       0x23 c:/altera/11.1/nios2eds/bin/gnu/h-i686-mingw32/bin/../lib/gcc/nios2-elf/4.1.2/../../../../nios2-elf/lib\libc.a(lib_a-makebuf.o)
 .debug_pubnames
                0x00001001       0x26 c:/altera/11.1/nios2eds/bin/gnu/h-i686-mingw32/bin/../lib/gcc/nios2-elf/4.1.2/../../../../nios2-elf/lib\libc.a(lib_a-malloc.o)
 .debug_pubnames
                0x00001027       0xce c:/altera/11.1/nios2eds/bin/gnu/h-i686-mingw32/bin/../lib/gcc/nios2-elf/4.1.2/../../../../nios2-elf/lib\libc.a(lib_a-mallocr.o)
 .debug_pubnames
                0x000010f5       0x1d c:/altera/11.1/nios2eds/bin/gnu/h-i686-mingw32/bin/../lib/gcc/nios2-elf/4.1.2/../../../../nios2-elf/lib\libc.a(lib_a-memcpy.o)
 .debug_pubnames
                0x00001112       0x1d c:/altera/11.1/nios2eds/bin/gnu/h-i686-mingw32/bin/../lib/gcc/nios2-elf/4.1.2/../../../../nios2-elf/lib\libc.a(lib_a-memset.o)
 .debug_pubnames
                0x0000112f       0x1e c:/altera/11.1/nios2eds/bin/gnu/h-i686-mingw32/bin/../lib/gcc/nios2-elf/4.1.2/../../../../nios2-elf/lib\libc.a(lib_a-openr.o)
 .debug_pubnames
                0x0000114d       0x2b c:/altera/11.1/nios2eds/bin/gnu/h-i686-mingw32/bin/../lib/gcc/nios2-elf/4.1.2/../../../../nios2-elf/lib\libc.a(lib_a-printf.o)
 .debug_pubnames
                0x00001178       0x2d c:/altera/11.1/nios2eds/bin/gnu/h-i686-mingw32/bin/../lib/gcc/nios2-elf/4.1.2/../../../../nios2-elf/lib\libc.a(lib_a-putchar.o)
 .debug_pubnames
                0x000011a5       0x27 c:/altera/11.1/nios2eds/bin/gnu/h-i686-mingw32/bin/../lib/gcc/nios2-elf/4.1.2/../../../../nios2-elf/lib\libc.a(lib_a-puts.o)
 .debug_pubnames
                0x000011cc       0x22 c:/altera/11.1/nios2eds/bin/gnu/h-i686-mingw32/bin/../lib/gcc/nios2-elf/4.1.2/../../../../nios2-elf/lib\libc.a(lib_a-refill.o)
 .debug_pubnames
                0x000011ee       0x1e c:/altera/11.1/nios2eds/bin/gnu/h-i686-mingw32/bin/../lib/gcc/nios2-elf/4.1.2/../../../../nios2-elf/lib\libc.a(lib_a-sbrkr.o)
 .debug_pubnames
                0x0000120c       0x2d c:/altera/11.1/nios2eds/bin/gnu/h-i686-mingw32/bin/../lib/gcc/nios2-elf/4.1.2/../../../../nios2-elf/lib\libc.a(lib_a-sprintf.o)
 .debug_pubnames
                0x00001239       0x44 c:/altera/11.1/nios2eds/bin/gnu/h-i686-mingw32/bin/../lib/gcc/nios2-elf/4.1.2/../../../../nios2-elf/lib\libc.a(lib_a-stdio.o)
 .debug_pubnames
                0x0000127d       0x21 c:/altera/11.1/nios2eds/bin/gnu/h-i686-mingw32/bin/../lib/gcc/nios2-elf/4.1.2/../../../../nios2-elf/lib\libc.a(lib_a-strcasecmp.o)
 .debug_pubnames
                0x0000129e       0x1d c:/altera/11.1/nios2eds/bin/gnu/h-i686-mingw32/bin/../lib/gcc/nios2-elf/4.1.2/../../../../nios2-elf/lib\libc.a(lib_a-strcmp.o)
 .debug_pubnames
                0x000012bb       0x1d c:/altera/11.1/nios2eds/bin/gnu/h-i686-mingw32/bin/../lib/gcc/nios2-elf/4.1.2/../../../../nios2-elf/lib\libc.a(lib_a-strcpy.o)
 .debug_pubnames
                0x000012d8       0x1d c:/altera/11.1/nios2eds/bin/gnu/h-i686-mingw32/bin/../lib/gcc/nios2-elf/4.1.2/../../../../nios2-elf/lib\libc.a(lib_a-strlen.o)
 .debug_pubnames
                0x000012f5       0x45 c:/altera/11.1/nios2eds/bin/gnu/h-i686-mingw32/bin/../lib/gcc/nios2-elf/4.1.2/../../../../nios2-elf/lib\libc.a(lib_a-vfprintf.o)
 .debug_pubnames
                0x0000133a       0x31 c:/altera/11.1/nios2eds/bin/gnu/h-i686-mingw32/bin/../lib/gcc/nios2-elf/4.1.2/../../../../nios2-elf/lib\libc.a(lib_a-vsnprintf.o)
 .debug_pubnames
                0x0000136b       0x1f c:/altera/11.1/nios2eds/bin/gnu/h-i686-mingw32/bin/../lib/gcc/nios2-elf/4.1.2/../../../../nios2-elf/lib\libc.a(lib_a-writer.o)
 .debug_pubnames
                0x0000138a       0x22 c:/altera/11.1/nios2eds/bin/gnu/h-i686-mingw32/bin/../lib/gcc/nios2-elf/4.1.2/../../../../nios2-elf/lib\libc.a(lib_a-wsetup.o)
 .debug_pubnames
                0x000013ac       0x1f c:/altera/11.1/nios2eds/bin/gnu/h-i686-mingw32/bin/../lib/gcc/nios2-elf/4.1.2/../../../../nios2-elf/lib\libc.a(lib_a-closer.o)
 .debug_pubnames
                0x000013cb       0x2e c:/altera/11.1/nios2eds/bin/gnu/h-i686-mingw32/bin/../lib/gcc/nios2-elf/4.1.2/../../../../nios2-elf/lib\libc.a(lib_a-ctype_.o)
 .debug_pubnames
                0x000013f9       0x1e c:/altera/11.1/nios2eds/bin/gnu/h-i686-mingw32/bin/../lib/gcc/nios2-elf/4.1.2/../../../../nios2-elf/lib\libc.a(lib_a-dtoa.o)
 .debug_pubnames
                0x00001417       0x1f c:/altera/11.1/nios2eds/bin/gnu/h-i686-mingw32/bin/../lib/gcc/nios2-elf/4.1.2/../../../../nios2-elf/lib\libc.a(lib_a-flags.o)
 .debug_pubnames
                0x00001436       0x23 c:/altera/11.1/nios2eds/bin/gnu/h-i686-mingw32/bin/../lib/gcc/nios2-elf/4.1.2/../../../../nios2-elf/lib\libc.a(lib_a-fvwrite.o)
 .debug_pubnames
                0x00001459       0x20 c:/altera/11.1/nios2eds/bin/gnu/h-i686-mingw32/bin/../lib/gcc/nios2-elf/4.1.2/../../../../nios2-elf/lib\libc.a(lib_a-isattyr.o)
 .debug_pubnames
                0x00001479       0xc3 c:/altera/11.1/nios2eds/bin/gnu/h-i686-mingw32/bin/../lib/gcc/nios2-elf/4.1.2/../../../../nios2-elf/lib\libc.a(lib_a-locale.o)
 .debug_pubnames
                0x0000153c       0x1f c:/altera/11.1/nios2eds/bin/gnu/h-i686-mingw32/bin/../lib/gcc/nios2-elf/4.1.2/../../../../nios2-elf/lib\libc.a(lib_a-lseekr.o)
 .debug_pubnames
                0x0000155b       0x1d c:/altera/11.1/nios2eds/bin/gnu/h-i686-mingw32/bin/../lib/gcc/nios2-elf/4.1.2/../../../../nios2-elf/lib\libc.a(lib_a-memchr.o)
 .debug_pubnames
                0x00001578       0x1e c:/altera/11.1/nios2eds/bin/gnu/h-i686-mingw32/bin/../lib/gcc/nios2-elf/4.1.2/../../../../nios2-elf/lib\libc.a(lib_a-memmove.o)
 .debug_pubnames
                0x00001596      0x13a c:/altera/11.1/nios2eds/bin/gnu/h-i686-mingw32/bin/../lib/gcc/nios2-elf/4.1.2/../../../../nios2-elf/lib\libc.a(lib_a-mprec.o)
 .debug_pubnames
                0x000016d0       0x27 c:/altera/11.1/nios2eds/bin/gnu/h-i686-mingw32/bin/../lib/gcc/nios2-elf/4.1.2/../../../../nios2-elf/lib\libc.a(lib_a-putc.o)
 .debug_pubnames
                0x000016f7       0x1e c:/altera/11.1/nios2eds/bin/gnu/h-i686-mingw32/bin/../lib/gcc/nios2-elf/4.1.2/../../../../nios2-elf/lib\libc.a(lib_a-readr.o)
 .debug_pubnames
                0x00001715       0x21 c:/altera/11.1/nios2eds/bin/gnu/h-i686-mingw32/bin/../lib/gcc/nios2-elf/4.1.2/../../../../nios2-elf/lib\libc.a(lib_a-reallocr.o)
 .debug_pubnames
                0x00001736       0x1f c:/altera/11.1/nios2eds/bin/gnu/h-i686-mingw32/bin/../lib/gcc/nios2-elf/4.1.2/../../../../nios2-elf/lib\libc.a(lib_a-s_isinfd.o)
 .debug_pubnames
                0x00001755       0x1f c:/altera/11.1/nios2eds/bin/gnu/h-i686-mingw32/bin/../lib/gcc/nios2-elf/4.1.2/../../../../nios2-elf/lib\libc.a(lib_a-s_isnand.o)
 .debug_pubnames
                0x00001774       0x2c c:/altera/11.1/nios2eds/bin/gnu/h-i686-mingw32/bin/../lib/gcc/nios2-elf/4.1.2/../../../../nios2-elf/lib\libc.a(lib_a-wbuf.o)
 .debug_pubnames
                0x000017a0       0x20 c:/altera/11.1/nios2eds/bin/gnu/h-i686-mingw32/bin/../lib/gcc/nios2-elf/4.1.2/../../../../nios2-elf/lib\libc.a(lib_a-callocr.o)
 .debug_pubnames
                0x000017c0       0x20 c:/altera/11.1/nios2eds/bin/gnu/h-i686-mingw32/bin/../lib/gcc/nios2-elf/4.1.2\libgcc.a(_udivdi3.o)
 .debug_pubnames
                0x000017e0       0x20 c:/altera/11.1/nios2eds/bin/gnu/h-i686-mingw32/bin/../lib/gcc/nios2-elf/4.1.2\libgcc.a(_umoddi3.o)
 .debug_pubnames
                0x00001800       0x2c c:/altera/11.1/nios2eds/bin/gnu/h-i686-mingw32/bin/../lib/gcc/nios2-elf/4.1.2\libgcc.a(_addsub_df.o)
 .debug_pubnames
                0x0000182c       0x1f c:/altera/11.1/nios2eds/bin/gnu/h-i686-mingw32/bin/../lib/gcc/nios2-elf/4.1.2\libgcc.a(_mul_df.o)
 .debug_pubnames
                0x0000184b       0x1e c:/altera/11.1/nios2eds/bin/gnu/h-i686-mingw32/bin/../lib/gcc/nios2-elf/4.1.2\libgcc.a(_eq_df.o)
 .debug_pubnames
                0x00001869       0x1e c:/altera/11.1/nios2eds/bin/gnu/h-i686-mingw32/bin/../lib/gcc/nios2-elf/4.1.2\libgcc.a(_ne_df.o)
 .debug_pubnames
                0x00001887       0x1e c:/altera/11.1/nios2eds/bin/gnu/h-i686-mingw32/bin/../lib/gcc/nios2-elf/4.1.2\libgcc.a(_gt_df.o)
 .debug_pubnames
                0x000018a5       0x1e c:/altera/11.1/nios2eds/bin/gnu/h-i686-mingw32/bin/../lib/gcc/nios2-elf/4.1.2\libgcc.a(_ge_df.o)
 .debug_pubnames
                0x000018c3       0x1e c:/altera/11.1/nios2eds/bin/gnu/h-i686-mingw32/bin/../lib/gcc/nios2-elf/4.1.2\libgcc.a(_lt_df.o)
 .debug_pubnames
                0x000018e1       0x22 c:/altera/11.1/nios2eds/bin/gnu/h-i686-mingw32/bin/../lib/gcc/nios2-elf/4.1.2\libgcc.a(_si_to_df.o)
 .debug_pubnames
                0x00001903       0x20 c:/altera/11.1/nios2eds/bin/gnu/h-i686-mingw32/bin/../lib/gcc/nios2-elf/4.1.2\libgcc.a(_df_to_si.o)
 .debug_pubnames
                0x00001923       0x24 c:/altera/11.1/nios2eds/bin/gnu/h-i686-mingw32/bin/../lib/gcc/nios2-elf/4.1.2\libgcc.a(_usi_to_df.o)
 .debug_pubnames
                0x00001947       0x26 c:/altera/11.1/nios2eds/bin/gnu/h-i686-mingw32/bin/../lib/gcc/nios2-elf/4.1.2\libgcc.a(_fpcmp_parts_df.o)
 .debug_pubnames
                0x0000196d       0x1c ../DE2_SD_Card_Audio_bsp/\libhal_bsp.a(alt_close.o)
 .debug_pubnames
                0x00001989       0x63 ../DE2_SD_Card_Audio_bsp/\libhal_bsp.a(alt_dev.o)
 .debug_pubnames
                0x000019ec       0x20 ../DE2_SD_Card_Audio_bsp/\libhal_bsp.a(alt_errno.o)
 .debug_pubnames
                0x00001a0c       0x1c ../DE2_SD_Card_Audio_bsp/\libhal_bsp.a(alt_fstat.o)
 .debug_pubnames
                0x00001a28       0x27 ../DE2_SD_Card_Audio_bsp/\libhal_bsp.a(alt_irq_register.o)
 .debug_pubnames
                0x00001a4f       0x3b ../DE2_SD_Card_Audio_bsp/\libhal_bsp.a(alt_irq_vars.o)
 .debug_pubnames
                0x00001a8a       0x1d ../DE2_SD_Card_Audio_bsp/\libhal_bsp.a(alt_isatty.o)
 .debug_pubnames
                0x00001aa7       0x1f ../DE2_SD_Card_Audio_bsp/\libhal_bsp.a(alt_load.o)
 .debug_pubnames
                0x00001ac6       0x1c ../DE2_SD_Card_Audio_bsp/\libhal_bsp.a(alt_lseek.o)
 .debug_pubnames
                0x00001ae2       0x46 ../DE2_SD_Card_Audio_bsp/\libhal_bsp.a(alt_main.o)
 .debug_pubnames
                0x00001b28       0x38 ../DE2_SD_Card_Audio_bsp/\libhal_bsp.a(alt_malloc_lock.o)
 .debug_pubnames
                0x00001b60       0x1b ../DE2_SD_Card_Audio_bsp/\libhal_bsp.a(alt_open.o)
 .debug_pubnames
                0x00001b7b       0x1b ../DE2_SD_Card_Audio_bsp/\libhal_bsp.a(alt_read.o)
 .debug_pubnames
                0x00001b96       0x25 ../DE2_SD_Card_Audio_bsp/\libhal_bsp.a(alt_release_fd.o)
 .debug_pubnames
                0x00001bbb       0x1b ../DE2_SD_Card_Audio_bsp/\libhal_bsp.a(alt_sbrk.o)
 .debug_pubnames
                0x00001bd6       0x68 ../DE2_SD_Card_Audio_bsp/\libhal_bsp.a(alt_tick.o)
 .debug_pubnames
                0x00001c3e       0x1d ../DE2_SD_Card_Audio_bsp/\libhal_bsp.a(alt_usleep.o)
 .debug_pubnames
                0x00001c5b       0x1c ../DE2_SD_Card_Audio_bsp/\libhal_bsp.a(alt_write.o)
 .debug_pubnames
                0x00001c77       0x34 ../DE2_SD_Card_Audio_bsp/\libhal_bsp.a(alt_sys_init.o)
 .debug_pubnames
                0x00001cab       0xac ../DE2_SD_Card_Audio_bsp/\libhal_bsp.a(altera_avalon_cfi_flash.o)
 .debug_pubnames
                0x00001d57      0x27a ../DE2_SD_Card_Audio_bsp/\libhal_bsp.a(altera_avalon_cfi_flash_table.o)
 .debug_pubnames
                0x00001fd1       0xb5 ../DE2_SD_Card_Audio_bsp/\libhal_bsp.a(altera_avalon_epcs_flash_controller.o)
 .debug_pubnames
                0x00002086       0xa5 ../DE2_SD_Card_Audio_bsp/\libhal_bsp.a(altera_avalon_jtag_uart_fd.o)
 .debug_pubnames
                0x0000212b       0x55 ../DE2_SD_Card_Audio_bsp/\libhal_bsp.a(altera_avalon_jtag_uart_init.o)
 .debug_pubnames
                0x00002180       0x34 ../DE2_SD_Card_Audio_bsp/\libhal_bsp.a(altera_avalon_jtag_uart_ioctl.o)
 .debug_pubnames
                0x000021b4       0x33 ../DE2_SD_Card_Audio_bsp/\libhal_bsp.a(altera_avalon_jtag_uart_read.o)
 .debug_pubnames
                0x000021e7       0x34 ../DE2_SD_Card_Audio_bsp/\libhal_bsp.a(altera_avalon_jtag_uart_write.o)
 .debug_pubnames
                0x0000221b       0x55 ../DE2_SD_Card_Audio_bsp/\libhal_bsp.a(altera_avalon_lcd_16207.o)
 .debug_pubnames
                0x00002270       0x37 ../DE2_SD_Card_Audio_bsp/\libhal_bsp.a(altera_avalon_lcd_16207_fd.o)
 .debug_pubnames
                0x000022a7       0x2f ../DE2_SD_Card_Audio_bsp/\libhal_bsp.a(altera_avalon_timer_sc.o)
 .debug_pubnames
                0x000022d6       0x52 ../DE2_SD_Card_Audio_bsp/\libhal_bsp.a(altera_avalon_timer_vars.o)
 .debug_pubnames
                0x00002328       0x71 ../DE2_SD_Card_Audio_bsp/\libhal_bsp.a(altera_avalon_uart_fd.o)
 .debug_pubnames
                0x00002399       0x4b ../DE2_SD_Card_Audio_bsp/\libhal_bsp.a(altera_avalon_uart_init.o)
 .debug_pubnames
                0x000023e4       0x2e ../DE2_SD_Card_Audio_bsp/\libhal_bsp.a(altera_avalon_uart_read.o)
 .debug_pubnames
                0x00002412       0x2f ../DE2_SD_Card_Audio_bsp/\libhal_bsp.a(altera_avalon_uart_write.o)
 .debug_pubnames
                0x00002441       0xe1 ../DE2_SD_Card_Audio_bsp/\libhal_bsp.a(epcs_commands.o)
 .debug_pubnames
                0x00002522       0x26 ../DE2_SD_Card_Audio_bsp/\libhal_bsp.a(alt_alarm_start.o)
 .debug_pubnames
                0x00002548       0x25 ../DE2_SD_Card_Audio_bsp/\libhal_bsp.a(alt_busy_sleep.o)
 .debug_pubnames
                0x0000256d       0x27 ../DE2_SD_Card_Audio_bsp/\libhal_bsp.a(alt_dcache_flush.o)
 .debug_pubnames
                0x00002594       0x2b ../DE2_SD_Card_Audio_bsp/\libhal_bsp.a(alt_dcache_flush_all.o)
 .debug_pubnames
                0x000025bf       0x2b ../DE2_SD_Card_Audio_bsp/\libhal_bsp.a(alt_dev_llist_insert.o)
 .debug_pubnames
                0x000025ea       0x20 ../DE2_SD_Card_Audio_bsp/\libhal_bsp.a(alt_do_ctors.o)
 .debug_pubnames
                0x0000260a       0x20 ../DE2_SD_Card_Audio_bsp/\libhal_bsp.a(alt_do_dtors.o)
 .debug_pubnames
                0x0000262a       0x23 ../DE2_SD_Card_Audio_bsp/\libhal_bsp.a(alt_find_dev.o)
 .debug_pubnames
                0x0000264d       0x24 ../DE2_SD_Card_Audio_bsp/\libhal_bsp.a(alt_find_file.o)
 .debug_pubnames
                0x00002671       0x58 ../DE2_SD_Card_Audio_bsp/\libhal_bsp.a(alt_flash_dev.o)
 .debug_pubnames
                0x000026c9       0x21 ../DE2_SD_Card_Audio_bsp/\libhal_bsp.a(alt_get_fd.o)
 .debug_pubnames
                0x000026ea       0x2b ../DE2_SD_Card_Audio_bsp/\libhal_bsp.a(alt_icache_flush_all.o)
 .debug_pubnames
                0x00002715       0x6e ../DE2_SD_Card_Audio_bsp/\libhal_bsp.a(alt_iic.o)
 .debug_pubnames
                0x00002783       0x2b ../DE2_SD_Card_Audio_bsp/\libhal_bsp.a(alt_iic_isr_register.o)
 .debug_pubnames
                0x000027ae       0x26 ../DE2_SD_Card_Audio_bsp/\libhal_bsp.a(alt_io_redirect.o)
 .debug_pubnames
                0x000027d4       0x32 ../DE2_SD_Card_Audio_bsp/\libhal_bsp.a(alt_irq_handler.o)
 .debug_pubnames
                0x00002806       0x31 ../DE2_SD_Card_Audio_bsp/\libhal_bsp.a(altera_nios2_qsys_irq.o)
 .debug_pubnames
                0x00002837       0x3e ../DE2_SD_Card_Audio_bsp/\libhal_bsp.a(altera_avalon_cfi_flash_amd.o)
 .debug_pubnames
                0x00002875       0x42 ../DE2_SD_Card_Audio_bsp/\libhal_bsp.a(altera_avalon_cfi_flash_intel.o)
 .debug_pubnames
                0x000028b7       0x2d ../DE2_SD_Card_Audio_bsp/\libhal_bsp.a(altera_avalon_spi.o)
 .debug_pubnames
                0x000028e4       0x27 ../DE2_SD_Card_Audio_bsp/\libhal_bsp.a(alt_icache_flush.o)
 .debug_pubnames
                0x0000290b       0x2a c:/altera/11.1/nios2eds/bin/gnu/h-i686-mingw32/bin/../lib/gcc/nios2-elf/4.1.2/../../../../nios2-elf/lib\libc.a(lib_a-atexit.o)
 .debug_pubnames
                0x00002935       0x1b c:/altera/11.1/nios2eds/bin/gnu/h-i686-mingw32/bin/../lib/gcc/nios2-elf/4.1.2/../../../../nios2-elf/lib\libc.a(lib_a-exit.o)
 .debug_pubnames
                0x00002950       0x1d c:/altera/11.1/nios2eds/bin/gnu/h-i686-mingw32/bin/../lib/gcc/nios2-elf/4.1.2/../../../../nios2-elf/lib\libc.a(lib_a-memcmp.o)
 .debug_pubnames
                0x0000296d       0x2a c:/altera/11.1/nios2eds/bin/gnu/h-i686-mingw32/bin/../lib/gcc/nios2-elf/4.1.2/../../../../nios2-elf/lib\libc.a(lib_a-__atexit.o)
 .debug_pubnames
                0x00002997       0x27 c:/altera/11.1/nios2eds/bin/gnu/h-i686-mingw32/bin/../lib/gcc/nios2-elf/4.1.2/../../../../nios2-elf/lib\libc.a(lib_a-__call_atexit.o)
 .debug_pubnames
                0x000029be       0x1c ../DE2_SD_Card_Audio_bsp/\libhal_bsp.a(alt_exit.o)

.debug_info     0x00000000    0x3b9d7
 *(.debug_info .gnu.linkonce.wi.*)
 .debug_info    0x00000000       0x81 ../DE2_SD_Card_Audio_bsp//obj/HAL/src/crt0.o
 .debug_info    0x00000081     0x10c5 obj/default/main.o
 .debug_info    0x00001146     0x12b9 obj/default/terasic_fat/FatFileSystem.o
 .debug_info    0x000023ff      0xf62 obj/default/terasic_fat/FatInternal.o
 .debug_info    0x00003361      0x9f0 obj/default/terasic_lib/AUDIO.o
 .debug_info    0x00003d51      0x529 obj/default/terasic_lib/I2C.o
 .debug_info    0x0000427a      0xd55 obj/default/terasic_lib/LCD.o
 .debug_info    0x00004fcf      0x2ca obj/default/terasic_lib/LED.o
 .debug_info    0x00005299      0x373 obj/default/terasic_lib/SEG7.o
 .debug_info    0x0000560c      0x71d obj/default/terasic_lib/WaveLib.o
 .debug_info    0x00005d29      0x3c8 obj/default/terasic_lib/debug.o
 .debug_info    0x000060f1      0x2a3 obj/default/terasic_sdcard/crc16.o
 .debug_info    0x00006394      0x2cc obj/default/terasic_sdcard/crc7.o
 .debug_info    0x00006660      0x569 obj/default/terasic_sdcard/sd_hal.o
 .debug_info    0x00006bc9      0x4bf obj/default/terasic_sdcard/sd_lib.o
 .debug_info    0x00007088      0xe25 obj/default/terasic_sdcard/sd_protocol.o
 .debug_info    0x00007ead      0x3d4 c:/altera/11.1/nios2eds/bin/gnu/h-i686-mingw32/bin/../lib/gcc/nios2-elf/4.1.2\libgcc.a(_mul_sf.o)
 .debug_info    0x00008281      0x391 c:/altera/11.1/nios2eds/bin/gnu/h-i686-mingw32/bin/../lib/gcc/nios2-elf/4.1.2\libgcc.a(_div_sf.o)
 .debug_info    0x00008612      0x245 c:/altera/11.1/nios2eds/bin/gnu/h-i686-mingw32/bin/../lib/gcc/nios2-elf/4.1.2\libgcc.a(_sf_to_df.o)
 .debug_info    0x00008857      0x164 c:/altera/11.1/nios2eds/bin/gnu/h-i686-mingw32/bin/../lib/gcc/nios2-elf/4.1.2\libgcc.a(_thenan_sf.o)
 .debug_info    0x000089bb      0x213 c:/altera/11.1/nios2eds/bin/gnu/h-i686-mingw32/bin/../lib/gcc/nios2-elf/4.1.2\libgcc.a(_usi_to_sf.o)
 .debug_info    0x00008bce      0x39b c:/altera/11.1/nios2eds/bin/gnu/h-i686-mingw32/bin/../lib/gcc/nios2-elf/4.1.2\libgcc.a(_div_df.o)
 .debug_info    0x00008f69      0x1d6 c:/altera/11.1/nios2eds/bin/gnu/h-i686-mingw32/bin/../lib/gcc/nios2-elf/4.1.2\libgcc.a(_make_df.o)
 .debug_info    0x0000913f      0x261 c:/altera/11.1/nios2eds/bin/gnu/h-i686-mingw32/bin/../lib/gcc/nios2-elf/4.1.2\libgcc.a(_df_to_sf.o)
 .debug_info    0x000093a0      0x164 c:/altera/11.1/nios2eds/bin/gnu/h-i686-mingw32/bin/../lib/gcc/nios2-elf/4.1.2\libgcc.a(_thenan_df.o)
 .debug_info    0x00009504      0x21c c:/altera/11.1/nios2eds/bin/gnu/h-i686-mingw32/bin/../lib/gcc/nios2-elf/4.1.2\libgcc.a(lib2-divmod.o)
 .debug_info    0x00009720      0x215 c:/altera/11.1/nios2eds/bin/gnu/h-i686-mingw32/bin/../lib/gcc/nios2-elf/4.1.2\libgcc.a(_muldi3.o)
 .debug_info    0x00009935      0x130 c:/altera/11.1/nios2eds/bin/gnu/h-i686-mingw32/bin/../lib/gcc/nios2-elf/4.1.2\libgcc.a(_clzsi2.o)
 .debug_info    0x00009a65      0x2f2 c:/altera/11.1/nios2eds/bin/gnu/h-i686-mingw32/bin/../lib/gcc/nios2-elf/4.1.2\libgcc.a(_pack_sf.o)
 .debug_info    0x00009d57      0x25a c:/altera/11.1/nios2eds/bin/gnu/h-i686-mingw32/bin/../lib/gcc/nios2-elf/4.1.2\libgcc.a(_unpack_sf.o)
 .debug_info    0x00009fb1      0x1d7 c:/altera/11.1/nios2eds/bin/gnu/h-i686-mingw32/bin/../lib/gcc/nios2-elf/4.1.2\libgcc.a(_make_sf.o)
 .debug_info    0x0000a188      0x2fc c:/altera/11.1/nios2eds/bin/gnu/h-i686-mingw32/bin/../lib/gcc/nios2-elf/4.1.2\libgcc.a(_pack_df.o)
 .debug_info    0x0000a484      0x268 c:/altera/11.1/nios2eds/bin/gnu/h-i686-mingw32/bin/../lib/gcc/nios2-elf/4.1.2\libgcc.a(_unpack_df.o)
 .debug_info    0x0000a6ec       0xc9 c:/altera/11.1/nios2eds/bin/gnu/h-i686-mingw32/bin/../lib/gcc/nios2-elf/4.1.2\libgcc.a(_clz.o)
 .debug_info    0x0000a7b5      0x994 c:/altera/11.1/nios2eds/bin/gnu/h-i686-mingw32/bin/../lib/gcc/nios2-elf/4.1.2/../../../../nios2-elf/lib\libc.a(lib_a-fclose.o)
 .debug_info    0x0000b149      0x9fe c:/altera/11.1/nios2eds/bin/gnu/h-i686-mingw32/bin/../lib/gcc/nios2-elf/4.1.2/../../../../nios2-elf/lib\libc.a(lib_a-fflush.o)
 .debug_info    0x0000bb47      0xb72 c:/altera/11.1/nios2eds/bin/gnu/h-i686-mingw32/bin/../lib/gcc/nios2-elf/4.1.2/../../../../nios2-elf/lib\libc.a(lib_a-findfp.o)
 .debug_info    0x0000c6b9      0x9e0 c:/altera/11.1/nios2eds/bin/gnu/h-i686-mingw32/bin/../lib/gcc/nios2-elf/4.1.2/../../../../nios2-elf/lib\libc.a(lib_a-fopen.o)
 .debug_info    0x0000d099      0xbc9 c:/altera/11.1/nios2eds/bin/gnu/h-i686-mingw32/bin/../lib/gcc/nios2-elf/4.1.2/../../../../nios2-elf/lib\libc.a(lib_a-freer.o)
 .debug_info    0x0000dc62      0xbdc c:/altera/11.1/nios2eds/bin/gnu/h-i686-mingw32/bin/../lib/gcc/nios2-elf/4.1.2/../../../../nios2-elf/lib\libc.a(lib_a-fseek.o)
 .debug_info    0x0000e83e      0xafc c:/altera/11.1/nios2eds/bin/gnu/h-i686-mingw32/bin/../lib/gcc/nios2-elf/4.1.2/../../../../nios2-elf/lib\libc.a(lib_a-fstatr.o)
 .debug_info    0x0000f33a      0xaed c:/altera/11.1/nios2eds/bin/gnu/h-i686-mingw32/bin/../lib/gcc/nios2-elf/4.1.2/../../../../nios2-elf/lib\libc.a(lib_a-fwalk.o)
 .debug_info    0x0000fe27      0xa83 c:/altera/11.1/nios2eds/bin/gnu/h-i686-mingw32/bin/../lib/gcc/nios2-elf/4.1.2/../../../../nios2-elf/lib\libc.a(lib_a-fwrite.o)
 .debug_info    0x000108aa      0x93d c:/altera/11.1/nios2eds/bin/gnu/h-i686-mingw32/bin/../lib/gcc/nios2-elf/4.1.2/../../../../nios2-elf/lib\libc.a(lib_a-impure.o)
 .debug_info    0x000111e7       0x8c c:/altera/11.1/nios2eds/bin/gnu/h-i686-mingw32/bin/../lib/gcc/nios2-elf/4.1.2/../../../../nios2-elf/lib\libc.a(lib_a-int_errno.o)
 .debug_info    0x00011273      0xb1a c:/altera/11.1/nios2eds/bin/gnu/h-i686-mingw32/bin/../lib/gcc/nios2-elf/4.1.2/../../../../nios2-elf/lib\libc.a(lib_a-makebuf.o)
 .debug_info    0x00011d8d      0x96e c:/altera/11.1/nios2eds/bin/gnu/h-i686-mingw32/bin/../lib/gcc/nios2-elf/4.1.2/../../../../nios2-elf/lib\libc.a(lib_a-malloc.o)
 .debug_info    0x000126fb      0xcd0 c:/altera/11.1/nios2eds/bin/gnu/h-i686-mingw32/bin/../lib/gcc/nios2-elf/4.1.2/../../../../nios2-elf/lib\libc.a(lib_a-mallocr.o)
 .debug_info    0x000133cb      0x106 c:/altera/11.1/nios2eds/bin/gnu/h-i686-mingw32/bin/../lib/gcc/nios2-elf/4.1.2/../../../../nios2-elf/lib\libc.a(lib_a-memcpy.o)
 .debug_info    0x000134d1      0x113 c:/altera/11.1/nios2eds/bin/gnu/h-i686-mingw32/bin/../lib/gcc/nios2-elf/4.1.2/../../../../nios2-elf/lib\libc.a(lib_a-memset.o)
 .debug_info    0x000135e4      0x977 c:/altera/11.1/nios2eds/bin/gnu/h-i686-mingw32/bin/../lib/gcc/nios2-elf/4.1.2/../../../../nios2-elf/lib\libc.a(lib_a-openr.o)
 .debug_info    0x00013f5b      0x9d1 c:/altera/11.1/nios2eds/bin/gnu/h-i686-mingw32/bin/../lib/gcc/nios2-elf/4.1.2/../../../../nios2-elf/lib\libc.a(lib_a-printf.o)
 .debug_info    0x0001492c      0x972 c:/altera/11.1/nios2eds/bin/gnu/h-i686-mingw32/bin/../lib/gcc/nios2-elf/4.1.2/../../../../nios2-elf/lib\libc.a(lib_a-putchar.o)
 .debug_info    0x0001529e      0xa25 c:/altera/11.1/nios2eds/bin/gnu/h-i686-mingw32/bin/../lib/gcc/nios2-elf/4.1.2/../../../../nios2-elf/lib\libc.a(lib_a-puts.o)
 .debug_info    0x00015cc3      0x98b c:/altera/11.1/nios2eds/bin/gnu/h-i686-mingw32/bin/../lib/gcc/nios2-elf/4.1.2/../../../../nios2-elf/lib\libc.a(lib_a-refill.o)
 .debug_info    0x0001664e      0x962 c:/altera/11.1/nios2eds/bin/gnu/h-i686-mingw32/bin/../lib/gcc/nios2-elf/4.1.2/../../../../nios2-elf/lib\libc.a(lib_a-sbrkr.o)
 .debug_info    0x00016fb0      0xa16 c:/altera/11.1/nios2eds/bin/gnu/h-i686-mingw32/bin/../lib/gcc/nios2-elf/4.1.2/../../../../nios2-elf/lib\libc.a(lib_a-sprintf.o)
 .debug_info    0x000179c6      0xaac c:/altera/11.1/nios2eds/bin/gnu/h-i686-mingw32/bin/../lib/gcc/nios2-elf/4.1.2/../../../../nios2-elf/lib\libc.a(lib_a-stdio.o)
 .debug_info    0x00018472      0x13a c:/altera/11.1/nios2eds/bin/gnu/h-i686-mingw32/bin/../lib/gcc/nios2-elf/4.1.2/../../../../nios2-elf/lib\libc.a(lib_a-strcasecmp.o)
 .debug_info    0x000185ac       0xdd c:/altera/11.1/nios2eds/bin/gnu/h-i686-mingw32/bin/../lib/gcc/nios2-elf/4.1.2/../../../../nios2-elf/lib\libc.a(lib_a-strcmp.o)
 .debug_info    0x00018689      0x110 c:/altera/11.1/nios2eds/bin/gnu/h-i686-mingw32/bin/../lib/gcc/nios2-elf/4.1.2/../../../../nios2-elf/lib\libc.a(lib_a-strcpy.o)
 .debug_info    0x00018799       0xdb c:/altera/11.1/nios2eds/bin/gnu/h-i686-mingw32/bin/../lib/gcc/nios2-elf/4.1.2/../../../../nios2-elf/lib\libc.a(lib_a-strlen.o)
 .debug_info    0x00018874     0x10d5 c:/altera/11.1/nios2eds/bin/gnu/h-i686-mingw32/bin/../lib/gcc/nios2-elf/4.1.2/../../../../nios2-elf/lib\libc.a(lib_a-vfprintf.o)
 .debug_info    0x00019949      0xa1b c:/altera/11.1/nios2eds/bin/gnu/h-i686-mingw32/bin/../lib/gcc/nios2-elf/4.1.2/../../../../nios2-elf/lib\libc.a(lib_a-vsnprintf.o)
 .debug_info    0x0001a364      0x993 c:/altera/11.1/nios2eds/bin/gnu/h-i686-mingw32/bin/../lib/gcc/nios2-elf/4.1.2/../../../../nios2-elf/lib\libc.a(lib_a-writer.o)
 .debug_info    0x0001acf7      0x95d c:/altera/11.1/nios2eds/bin/gnu/h-i686-mingw32/bin/../lib/gcc/nios2-elf/4.1.2/../../../../nios2-elf/lib\libc.a(lib_a-wsetup.o)
 .debug_info    0x0001b654      0x958 c:/altera/11.1/nios2eds/bin/gnu/h-i686-mingw32/bin/../lib/gcc/nios2-elf/4.1.2/../../../../nios2-elf/lib\libc.a(lib_a-closer.o)
 .debug_info    0x0001bfac       0xa0 c:/altera/11.1/nios2eds/bin/gnu/h-i686-mingw32/bin/../lib/gcc/nios2-elf/4.1.2/../../../../nios2-elf/lib\libc.a(lib_a-ctype_.o)
 .debug_info    0x0001c04c      0xd6f c:/altera/11.1/nios2eds/bin/gnu/h-i686-mingw32/bin/../lib/gcc/nios2-elf/4.1.2/../../../../nios2-elf/lib\libc.a(lib_a-dtoa.o)
 .debug_info    0x0001cdbb      0x977 c:/altera/11.1/nios2eds/bin/gnu/h-i686-mingw32/bin/../lib/gcc/nios2-elf/4.1.2/../../../../nios2-elf/lib\libc.a(lib_a-flags.o)
 .debug_info    0x0001d732      0xa88 c:/altera/11.1/nios2eds/bin/gnu/h-i686-mingw32/bin/../lib/gcc/nios2-elf/4.1.2/../../../../nios2-elf/lib\libc.a(lib_a-fvwrite.o)
 .debug_info    0x0001e1ba      0x958 c:/altera/11.1/nios2eds/bin/gnu/h-i686-mingw32/bin/../lib/gcc/nios2-elf/4.1.2/../../../../nios2-elf/lib\libc.a(lib_a-isattyr.o)
 .debug_info    0x0001eb12      0xb97 c:/altera/11.1/nios2eds/bin/gnu/h-i686-mingw32/bin/../lib/gcc/nios2-elf/4.1.2/../../../../nios2-elf/lib\libc.a(lib_a-locale.o)
 .debug_info    0x0001f6a9      0x981 c:/altera/11.1/nios2eds/bin/gnu/h-i686-mingw32/bin/../lib/gcc/nios2-elf/4.1.2/../../../../nios2-elf/lib\libc.a(lib_a-lseekr.o)
 .debug_info    0x0002002a      0x138 c:/altera/11.1/nios2eds/bin/gnu/h-i686-mingw32/bin/../lib/gcc/nios2-elf/4.1.2/../../../../nios2-elf/lib\libc.a(lib_a-memchr.o)
 .debug_info    0x00020162      0x13e c:/altera/11.1/nios2eds/bin/gnu/h-i686-mingw32/bin/../lib/gcc/nios2-elf/4.1.2/../../../../nios2-elf/lib\libc.a(lib_a-memmove.o)
 .debug_info    0x000202a0     0x1437 c:/altera/11.1/nios2eds/bin/gnu/h-i686-mingw32/bin/../lib/gcc/nios2-elf/4.1.2/../../../../nios2-elf/lib\libc.a(lib_a-mprec.o)
 .debug_info    0x000216d7      0x9c1 c:/altera/11.1/nios2eds/bin/gnu/h-i686-mingw32/bin/../lib/gcc/nios2-elf/4.1.2/../../../../nios2-elf/lib\libc.a(lib_a-putc.o)
 .debug_info    0x00022098      0x98c c:/altera/11.1/nios2eds/bin/gnu/h-i686-mingw32/bin/../lib/gcc/nios2-elf/4.1.2/../../../../nios2-elf/lib\libc.a(lib_a-readr.o)
 .debug_info    0x00022a24      0xbd7 c:/altera/11.1/nios2eds/bin/gnu/h-i686-mingw32/bin/../lib/gcc/nios2-elf/4.1.2/../../../../nios2-elf/lib\libc.a(lib_a-reallocr.o)
 .debug_info    0x000235fb       0xd7 c:/altera/11.1/nios2eds/bin/gnu/h-i686-mingw32/bin/../lib/gcc/nios2-elf/4.1.2/../../../../nios2-elf/lib\libc.a(lib_a-s_isinfd.o)
 .debug_info    0x000236d2       0xd5 c:/altera/11.1/nios2eds/bin/gnu/h-i686-mingw32/bin/../lib/gcc/nios2-elf/4.1.2/../../../../nios2-elf/lib\libc.a(lib_a-s_isnand.o)
 .debug_info    0x000237a7      0x9ae c:/altera/11.1/nios2eds/bin/gnu/h-i686-mingw32/bin/../lib/gcc/nios2-elf/4.1.2/../../../../nios2-elf/lib\libc.a(lib_a-wbuf.o)
 .debug_info    0x00024155      0xa1b c:/altera/11.1/nios2eds/bin/gnu/h-i686-mingw32/bin/../lib/gcc/nios2-elf/4.1.2/../../../../nios2-elf/lib\libc.a(lib_a-callocr.o)
 .debug_info    0x00024b70      0x724 c:/altera/11.1/nios2eds/bin/gnu/h-i686-mingw32/bin/../lib/gcc/nios2-elf/4.1.2\libgcc.a(_udivdi3.o)
 .debug_info    0x00025294      0x751 c:/altera/11.1/nios2eds/bin/gnu/h-i686-mingw32/bin/../lib/gcc/nios2-elf/4.1.2\libgcc.a(_umoddi3.o)
 .debug_info    0x000259e5      0x493 c:/altera/11.1/nios2eds/bin/gnu/h-i686-mingw32/bin/../lib/gcc/nios2-elf/4.1.2\libgcc.a(_addsub_df.o)
 .debug_info    0x00025e78      0x488 c:/altera/11.1/nios2eds/bin/gnu/h-i686-mingw32/bin/../lib/gcc/nios2-elf/4.1.2\libgcc.a(_mul_df.o)
 .debug_info    0x00026300      0x29d c:/altera/11.1/nios2eds/bin/gnu/h-i686-mingw32/bin/../lib/gcc/nios2-elf/4.1.2\libgcc.a(_eq_df.o)
 .debug_info    0x0002659d      0x29d c:/altera/11.1/nios2eds/bin/gnu/h-i686-mingw32/bin/../lib/gcc/nios2-elf/4.1.2\libgcc.a(_ne_df.o)
 .debug_info    0x0002683a      0x29d c:/altera/11.1/nios2eds/bin/gnu/h-i686-mingw32/bin/../lib/gcc/nios2-elf/4.1.2\libgcc.a(_gt_df.o)
 .debug_info    0x00026ad7      0x29d c:/altera/11.1/nios2eds/bin/gnu/h-i686-mingw32/bin/../lib/gcc/nios2-elf/4.1.2\libgcc.a(_ge_df.o)
 .debug_info    0x00026d74      0x29d c:/altera/11.1/nios2eds/bin/gnu/h-i686-mingw32/bin/../lib/gcc/nios2-elf/4.1.2\libgcc.a(_lt_df.o)
 .debug_info    0x00027011      0x218 c:/altera/11.1/nios2eds/bin/gnu/h-i686-mingw32/bin/../lib/gcc/nios2-elf/4.1.2\libgcc.a(_si_to_df.o)
 .debug_info    0x00027229      0x2cd c:/altera/11.1/nios2eds/bin/gnu/h-i686-mingw32/bin/../lib/gcc/nios2-elf/4.1.2\libgcc.a(_df_to_si.o)
 .debug_info    0x000274f6      0x213 c:/altera/11.1/nios2eds/bin/gnu/h-i686-mingw32/bin/../lib/gcc/nios2-elf/4.1.2\libgcc.a(_usi_to_df.o)
 .debug_info    0x00027709      0x21b c:/altera/11.1/nios2eds/bin/gnu/h-i686-mingw32/bin/../lib/gcc/nios2-elf/4.1.2\libgcc.a(_fpcmp_parts_df.o)
 .debug_info    0x00027924      0x46d ../DE2_SD_Card_Audio_bsp/\libhal_bsp.a(alt_close.o)
 .debug_info    0x00027d91      0x685 ../DE2_SD_Card_Audio_bsp/\libhal_bsp.a(alt_dev.o)
 .debug_info    0x00028416      0x16a ../DE2_SD_Card_Audio_bsp/\libhal_bsp.a(alt_errno.o)
 .debug_info    0x00028580      0x666 ../DE2_SD_Card_Audio_bsp/\libhal_bsp.a(alt_fstat.o)
 .debug_info    0x00028be6      0x430 ../DE2_SD_Card_Audio_bsp/\libhal_bsp.a(alt_irq_register.o)
 .debug_info    0x00029016      0x16d ../DE2_SD_Card_Audio_bsp/\libhal_bsp.a(alt_irq_vars.o)
 .debug_info    0x00029183      0x66c ../DE2_SD_Card_Audio_bsp/\libhal_bsp.a(alt_isatty.o)
 .debug_info    0x000297ef      0x293 ../DE2_SD_Card_Audio_bsp/\libhal_bsp.a(alt_load.o)
 .debug_info    0x00029a82      0x4a0 ../DE2_SD_Card_Audio_bsp/\libhal_bsp.a(alt_lseek.o)
 .debug_info    0x00029f22      0x22b ../DE2_SD_Card_Audio_bsp/\libhal_bsp.a(alt_main.o)
 .debug_info    0x0002a14d      0xc1e ../DE2_SD_Card_Audio_bsp/\libhal_bsp.a(alt_malloc_lock.o)
 .debug_info    0x0002ad6b      0x52b ../DE2_SD_Card_Audio_bsp/\libhal_bsp.a(alt_open.o)
 .debug_info    0x0002b296      0x690 ../DE2_SD_Card_Audio_bsp/\libhal_bsp.a(alt_read.o)
 .debug_info    0x0002b926      0x3f8 ../DE2_SD_Card_Audio_bsp/\libhal_bsp.a(alt_release_fd.o)
 .debug_info    0x0002bd1e      0x2bd ../DE2_SD_Card_Audio_bsp/\libhal_bsp.a(alt_sbrk.o)
 .debug_info    0x0002bfdb      0x404 ../DE2_SD_Card_Audio_bsp/\libhal_bsp.a(alt_tick.o)
 .debug_info    0x0002c3df      0x16e ../DE2_SD_Card_Audio_bsp/\libhal_bsp.a(alt_usleep.o)
 .debug_info    0x0002c54d      0x699 ../DE2_SD_Card_Audio_bsp/\libhal_bsp.a(alt_write.o)
 .debug_info    0x0002cbe6     0x105b ../DE2_SD_Card_Audio_bsp/\libhal_bsp.a(alt_sys_init.o)
 .debug_info    0x0002dc41      0xb4f ../DE2_SD_Card_Audio_bsp/\libhal_bsp.a(altera_avalon_cfi_flash.o)
 .debug_info    0x0002e790      0xe3b ../DE2_SD_Card_Audio_bsp/\libhal_bsp.a(altera_avalon_cfi_flash_table.o)
 .debug_info    0x0002f5cb      0xb8a ../DE2_SD_Card_Audio_bsp/\libhal_bsp.a(altera_avalon_epcs_flash_controller.o)
 .debug_info    0x00030155      0x7df ../DE2_SD_Card_Audio_bsp/\libhal_bsp.a(altera_avalon_jtag_uart_fd.o)
 .debug_info    0x00030934      0x607 ../DE2_SD_Card_Audio_bsp/\libhal_bsp.a(altera_avalon_jtag_uart_init.o)
 .debug_info    0x00030f3b      0x449 ../DE2_SD_Card_Audio_bsp/\libhal_bsp.a(altera_avalon_jtag_uart_ioctl.o)
 .debug_info    0x00031384      0x54c ../DE2_SD_Card_Audio_bsp/\libhal_bsp.a(altera_avalon_jtag_uart_read.o)
 .debug_info    0x000318d0      0x544 ../DE2_SD_Card_Audio_bsp/\libhal_bsp.a(altera_avalon_jtag_uart_write.o)
 .debug_info    0x00031e14      0x8f4 ../DE2_SD_Card_Audio_bsp/\libhal_bsp.a(altera_avalon_lcd_16207.o)
 .debug_info    0x00032708      0x718 ../DE2_SD_Card_Audio_bsp/\libhal_bsp.a(altera_avalon_lcd_16207_fd.o)
 .debug_info    0x00032e20      0x391 ../DE2_SD_Card_Audio_bsp/\libhal_bsp.a(altera_avalon_timer_sc.o)
 .debug_info    0x000331b1      0x20d ../DE2_SD_Card_Audio_bsp/\libhal_bsp.a(altera_avalon_timer_vars.o)
 .debug_info    0x000333be      0x642 ../DE2_SD_Card_Audio_bsp/\libhal_bsp.a(altera_avalon_uart_fd.o)
 .debug_info    0x00033a00      0x514 ../DE2_SD_Card_Audio_bsp/\libhal_bsp.a(altera_avalon_uart_init.o)
 .debug_info    0x00033f14      0x4c8 ../DE2_SD_Card_Audio_bsp/\libhal_bsp.a(altera_avalon_uart_read.o)
 .debug_info    0x000343dc      0x4c6 ../DE2_SD_Card_Audio_bsp/\libhal_bsp.a(altera_avalon_uart_write.o)
 .debug_info    0x000348a2      0x52e ../DE2_SD_Card_Audio_bsp/\libhal_bsp.a(epcs_commands.o)
 .debug_info    0x00034dd0      0x448 ../DE2_SD_Card_Audio_bsp/\libhal_bsp.a(alt_alarm_start.o)
 .debug_info    0x00035218      0x1b1 ../DE2_SD_Card_Audio_bsp/\libhal_bsp.a(alt_busy_sleep.o)
 .debug_info    0x000353c9      0x1aa ../DE2_SD_Card_Audio_bsp/\libhal_bsp.a(alt_dcache_flush.o)
 .debug_info    0x00035573      0x175 ../DE2_SD_Card_Audio_bsp/\libhal_bsp.a(alt_dcache_flush_all.o)
 .debug_info    0x000356e8      0x2bd ../DE2_SD_Card_Audio_bsp/\libhal_bsp.a(alt_dev_llist_insert.o)
 .debug_info    0x000359a5      0x115 ../DE2_SD_Card_Audio_bsp/\libhal_bsp.a(alt_do_ctors.o)
 .debug_info    0x00035aba      0x114 ../DE2_SD_Card_Audio_bsp/\libhal_bsp.a(alt_do_dtors.o)
 .debug_info    0x00035bce      0x41e ../DE2_SD_Card_Audio_bsp/\libhal_bsp.a(alt_find_dev.o)
 .debug_info    0x00035fec      0x425 ../DE2_SD_Card_Audio_bsp/\libhal_bsp.a(alt_find_file.o)
 .debug_info    0x00036411      0x59f ../DE2_SD_Card_Audio_bsp/\libhal_bsp.a(alt_flash_dev.o)
 .debug_info    0x000369b0      0x466 ../DE2_SD_Card_Audio_bsp/\libhal_bsp.a(alt_get_fd.o)
 .debug_info    0x00036e16      0x162 ../DE2_SD_Card_Audio_bsp/\libhal_bsp.a(alt_icache_flush_all.o)
 .debug_info    0x00036f78      0x499 ../DE2_SD_Card_Audio_bsp/\libhal_bsp.a(alt_iic.o)
 .debug_info    0x00037411      0x31a ../DE2_SD_Card_Audio_bsp/\libhal_bsp.a(alt_iic_isr_register.o)
 .debug_info    0x0003772b      0x69b ../DE2_SD_Card_Audio_bsp/\libhal_bsp.a(alt_io_redirect.o)
 .debug_info    0x00037dc6       0x8a ../DE2_SD_Card_Audio_bsp/\libhal_bsp.a(alt_irq_entry.o)
 .debug_info    0x00037e50      0x27b ../DE2_SD_Card_Audio_bsp/\libhal_bsp.a(alt_irq_handler.o)
 .debug_info    0x000380cb      0x169 ../DE2_SD_Card_Audio_bsp/\libhal_bsp.a(altera_nios2_qsys_irq.o)
 .debug_info    0x00038234      0x8ef ../DE2_SD_Card_Audio_bsp/\libhal_bsp.a(altera_avalon_cfi_flash_amd.o)
 .debug_info    0x00038b23      0x8e5 ../DE2_SD_Card_Audio_bsp/\libhal_bsp.a(altera_avalon_cfi_flash_intel.o)
 .debug_info    0x00039408      0x2af ../DE2_SD_Card_Audio_bsp/\libhal_bsp.a(altera_avalon_spi.o)
 .debug_info    0x000396b7       0x90 ../DE2_SD_Card_Audio_bsp/\libhal_bsp.a(alt_exception_entry.o)
 .debug_info    0x00039747      0x1aa ../DE2_SD_Card_Audio_bsp/\libhal_bsp.a(alt_icache_flush.o)
 .debug_info    0x000398f1      0x181 c:/altera/11.1/nios2eds/bin/gnu/h-i686-mingw32/bin/../lib/gcc/nios2-elf/4.1.2/../../../../nios2-elf/lib\libc.a(lib_a-atexit.o)
 .debug_info    0x00039a72      0x93f c:/altera/11.1/nios2eds/bin/gnu/h-i686-mingw32/bin/../lib/gcc/nios2-elf/4.1.2/../../../../nios2-elf/lib\libc.a(lib_a-exit.o)
 .debug_info    0x0003a3b1      0x115 c:/altera/11.1/nios2eds/bin/gnu/h-i686-mingw32/bin/../lib/gcc/nios2-elf/4.1.2/../../../../nios2-elf/lib\libc.a(lib_a-memcmp.o)
 .debug_info    0x0003a4c6      0x99c c:/altera/11.1/nios2eds/bin/gnu/h-i686-mingw32/bin/../lib/gcc/nios2-elf/4.1.2/../../../../nios2-elf/lib\libc.a(lib_a-__atexit.o)
 .debug_info    0x0003ae62      0x9e2 c:/altera/11.1/nios2eds/bin/gnu/h-i686-mingw32/bin/../lib/gcc/nios2-elf/4.1.2/../../../../nios2-elf/lib\libc.a(lib_a-__call_atexit.o)
 .debug_info    0x0003b844      0x193 ../DE2_SD_Card_Audio_bsp/\libhal_bsp.a(alt_exit.o)

.debug_abbrev   0x00000000     0xc338
 *(.debug_abbrev)
 .debug_abbrev  0x00000000       0x12 ../DE2_SD_Card_Audio_bsp//obj/HAL/src/crt0.o
 .debug_abbrev  0x00000012      0x241 obj/default/main.o
 .debug_abbrev  0x00000253      0x1f1 obj/default/terasic_fat/FatFileSystem.o
 .debug_abbrev  0x00000444      0x1c8 obj/default/terasic_fat/FatInternal.o
 .debug_abbrev  0x0000060c      0x15e obj/default/terasic_lib/AUDIO.o
 .debug_abbrev  0x0000076a       0xe2 obj/default/terasic_lib/I2C.o
 .debug_abbrev  0x0000084c      0x1c1 obj/default/terasic_lib/LCD.o
 .debug_abbrev  0x00000a0d       0xc0 obj/default/terasic_lib/LED.o
 .debug_abbrev  0x00000acd       0xdb obj/default/terasic_lib/SEG7.o
 .debug_abbrev  0x00000ba8       0xe8 obj/default/terasic_lib/WaveLib.o
 .debug_abbrev  0x00000c90       0xfa obj/default/terasic_lib/debug.o
 .debug_abbrev  0x00000d8a       0xc6 obj/default/terasic_sdcard/crc16.o
 .debug_abbrev  0x00000e50       0xc6 obj/default/terasic_sdcard/crc7.o
 .debug_abbrev  0x00000f16      0x124 obj/default/terasic_sdcard/sd_hal.o
 .debug_abbrev  0x0000103a      0x148 obj/default/terasic_sdcard/sd_lib.o
 .debug_abbrev  0x00001182      0x190 obj/default/terasic_sdcard/sd_protocol.o
 .debug_abbrev  0x00001312      0x206 c:/altera/11.1/nios2eds/bin/gnu/h-i686-mingw32/bin/../lib/gcc/nios2-elf/4.1.2\libgcc.a(_mul_sf.o)
 .debug_abbrev  0x00001518      0x1e5 c:/altera/11.1/nios2eds/bin/gnu/h-i686-mingw32/bin/../lib/gcc/nios2-elf/4.1.2\libgcc.a(_div_sf.o)
 .debug_abbrev  0x000016fd      0x128 c:/altera/11.1/nios2eds/bin/gnu/h-i686-mingw32/bin/../lib/gcc/nios2-elf/4.1.2\libgcc.a(_sf_to_df.o)
 .debug_abbrev  0x00001825       0xba c:/altera/11.1/nios2eds/bin/gnu/h-i686-mingw32/bin/../lib/gcc/nios2-elf/4.1.2\libgcc.a(_thenan_sf.o)
 .debug_abbrev  0x000018df      0x155 c:/altera/11.1/nios2eds/bin/gnu/h-i686-mingw32/bin/../lib/gcc/nios2-elf/4.1.2\libgcc.a(_usi_to_sf.o)
 .debug_abbrev  0x00001a34      0x1e3 c:/altera/11.1/nios2eds/bin/gnu/h-i686-mingw32/bin/../lib/gcc/nios2-elf/4.1.2\libgcc.a(_div_df.o)
 .debug_abbrev  0x00001c17      0x10f c:/altera/11.1/nios2eds/bin/gnu/h-i686-mingw32/bin/../lib/gcc/nios2-elf/4.1.2\libgcc.a(_make_df.o)
 .debug_abbrev  0x00001d26      0x137 c:/altera/11.1/nios2eds/bin/gnu/h-i686-mingw32/bin/../lib/gcc/nios2-elf/4.1.2\libgcc.a(_df_to_sf.o)
 .debug_abbrev  0x00001e5d       0xba c:/altera/11.1/nios2eds/bin/gnu/h-i686-mingw32/bin/../lib/gcc/nios2-elf/4.1.2\libgcc.a(_thenan_df.o)
 .debug_abbrev  0x00001f17       0xe0 c:/altera/11.1/nios2eds/bin/gnu/h-i686-mingw32/bin/../lib/gcc/nios2-elf/4.1.2\libgcc.a(lib2-divmod.o)
 .debug_abbrev  0x00001ff7       0xee c:/altera/11.1/nios2eds/bin/gnu/h-i686-mingw32/bin/../lib/gcc/nios2-elf/4.1.2\libgcc.a(_muldi3.o)
 .debug_abbrev  0x000020e5       0xb9 c:/altera/11.1/nios2eds/bin/gnu/h-i686-mingw32/bin/../lib/gcc/nios2-elf/4.1.2\libgcc.a(_clzsi2.o)
 .debug_abbrev  0x0000219e      0x1aa c:/altera/11.1/nios2eds/bin/gnu/h-i686-mingw32/bin/../lib/gcc/nios2-elf/4.1.2\libgcc.a(_pack_sf.o)
 .debug_abbrev  0x00002348      0x158 c:/altera/11.1/nios2eds/bin/gnu/h-i686-mingw32/bin/../lib/gcc/nios2-elf/4.1.2\libgcc.a(_unpack_sf.o)
 .debug_abbrev  0x000024a0      0x100 c:/altera/11.1/nios2eds/bin/gnu/h-i686-mingw32/bin/../lib/gcc/nios2-elf/4.1.2\libgcc.a(_make_sf.o)
 .debug_abbrev  0x000025a0      0x1b1 c:/altera/11.1/nios2eds/bin/gnu/h-i686-mingw32/bin/../lib/gcc/nios2-elf/4.1.2\libgcc.a(_pack_df.o)
 .debug_abbrev  0x00002751      0x149 c:/altera/11.1/nios2eds/bin/gnu/h-i686-mingw32/bin/../lib/gcc/nios2-elf/4.1.2\libgcc.a(_unpack_df.o)
 .debug_abbrev  0x0000289a       0x61 c:/altera/11.1/nios2eds/bin/gnu/h-i686-mingw32/bin/../lib/gcc/nios2-elf/4.1.2\libgcc.a(_clz.o)
 .debug_abbrev  0x000028fb      0x1a7 c:/altera/11.1/nios2eds/bin/gnu/h-i686-mingw32/bin/../lib/gcc/nios2-elf/4.1.2/../../../../nios2-elf/lib\libc.a(lib_a-fclose.o)
 .debug_abbrev  0x00002aa2      0x1c6 c:/altera/11.1/nios2eds/bin/gnu/h-i686-mingw32/bin/../lib/gcc/nios2-elf/4.1.2/../../../../nios2-elf/lib\libc.a(lib_a-fflush.o)
 .debug_abbrev  0x00002c68      0x24c c:/altera/11.1/nios2eds/bin/gnu/h-i686-mingw32/bin/../lib/gcc/nios2-elf/4.1.2/../../../../nios2-elf/lib\libc.a(lib_a-findfp.o)
 .debug_abbrev  0x00002eb4      0x1b6 c:/altera/11.1/nios2eds/bin/gnu/h-i686-mingw32/bin/../lib/gcc/nios2-elf/4.1.2/../../../../nios2-elf/lib\libc.a(lib_a-fopen.o)
 .debug_abbrev  0x0000306a      0x1d9 c:/altera/11.1/nios2eds/bin/gnu/h-i686-mingw32/bin/../lib/gcc/nios2-elf/4.1.2/../../../../nios2-elf/lib\libc.a(lib_a-freer.o)
 .debug_abbrev  0x00003243      0x208 c:/altera/11.1/nios2eds/bin/gnu/h-i686-mingw32/bin/../lib/gcc/nios2-elf/4.1.2/../../../../nios2-elf/lib\libc.a(lib_a-fseek.o)
 .debug_abbrev  0x0000344b      0x18e c:/altera/11.1/nios2eds/bin/gnu/h-i686-mingw32/bin/../lib/gcc/nios2-elf/4.1.2/../../../../nios2-elf/lib\libc.a(lib_a-fstatr.o)
 .debug_abbrev  0x000035d9      0x1e3 c:/altera/11.1/nios2eds/bin/gnu/h-i686-mingw32/bin/../lib/gcc/nios2-elf/4.1.2/../../../../nios2-elf/lib\libc.a(lib_a-fwalk.o)
 .debug_abbrev  0x000037bc      0x1b1 c:/altera/11.1/nios2eds/bin/gnu/h-i686-mingw32/bin/../lib/gcc/nios2-elf/4.1.2/../../../../nios2-elf/lib\libc.a(lib_a-fwrite.o)
 .debug_abbrev  0x0000396d      0x157 c:/altera/11.1/nios2eds/bin/gnu/h-i686-mingw32/bin/../lib/gcc/nios2-elf/4.1.2/../../../../nios2-elf/lib\libc.a(lib_a-impure.o)
 .debug_abbrev  0x00003ac4       0x3b c:/altera/11.1/nios2eds/bin/gnu/h-i686-mingw32/bin/../lib/gcc/nios2-elf/4.1.2/../../../../nios2-elf/lib\libc.a(lib_a-int_errno.o)
 .debug_abbrev  0x00003aff      0x197 c:/altera/11.1/nios2eds/bin/gnu/h-i686-mingw32/bin/../lib/gcc/nios2-elf/4.1.2/../../../../nios2-elf/lib\libc.a(lib_a-makebuf.o)
 .debug_abbrev  0x00003c96      0x187 c:/altera/11.1/nios2eds/bin/gnu/h-i686-mingw32/bin/../lib/gcc/nios2-elf/4.1.2/../../../../nios2-elf/lib\libc.a(lib_a-malloc.o)
 .debug_abbrev  0x00003e1d      0x216 c:/altera/11.1/nios2eds/bin/gnu/h-i686-mingw32/bin/../lib/gcc/nios2-elf/4.1.2/../../../../nios2-elf/lib\libc.a(lib_a-mallocr.o)
 .debug_abbrev  0x00004033       0xb5 c:/altera/11.1/nios2eds/bin/gnu/h-i686-mingw32/bin/../lib/gcc/nios2-elf/4.1.2/../../../../nios2-elf/lib\libc.a(lib_a-memcpy.o)
 .debug_abbrev  0x000040e8       0xb8 c:/altera/11.1/nios2eds/bin/gnu/h-i686-mingw32/bin/../lib/gcc/nios2-elf/4.1.2/../../../../nios2-elf/lib\libc.a(lib_a-memset.o)
 .debug_abbrev  0x000041a0      0x18e c:/altera/11.1/nios2eds/bin/gnu/h-i686-mingw32/bin/../lib/gcc/nios2-elf/4.1.2/../../../../nios2-elf/lib\libc.a(lib_a-openr.o)
 .debug_abbrev  0x0000432e      0x191 c:/altera/11.1/nios2eds/bin/gnu/h-i686-mingw32/bin/../lib/gcc/nios2-elf/4.1.2/../../../../nios2-elf/lib\libc.a(lib_a-printf.o)
 .debug_abbrev  0x000044bf      0x170 c:/altera/11.1/nios2eds/bin/gnu/h-i686-mingw32/bin/../lib/gcc/nios2-elf/4.1.2/../../../../nios2-elf/lib\libc.a(lib_a-putchar.o)
 .debug_abbrev  0x0000462f      0x1ac c:/altera/11.1/nios2eds/bin/gnu/h-i686-mingw32/bin/../lib/gcc/nios2-elf/4.1.2/../../../../nios2-elf/lib\libc.a(lib_a-puts.o)
 .debug_abbrev  0x000047db      0x187 c:/altera/11.1/nios2eds/bin/gnu/h-i686-mingw32/bin/../lib/gcc/nios2-elf/4.1.2/../../../../nios2-elf/lib\libc.a(lib_a-refill.o)
 .debug_abbrev  0x00004962      0x18c c:/altera/11.1/nios2eds/bin/gnu/h-i686-mingw32/bin/../lib/gcc/nios2-elf/4.1.2/../../../../nios2-elf/lib\libc.a(lib_a-sbrkr.o)
 .debug_abbrev  0x00004aee      0x191 c:/altera/11.1/nios2eds/bin/gnu/h-i686-mingw32/bin/../lib/gcc/nios2-elf/4.1.2/../../../../nios2-elf/lib\libc.a(lib_a-sprintf.o)
 .debug_abbrev  0x00004c7f      0x1c9 c:/altera/11.1/nios2eds/bin/gnu/h-i686-mingw32/bin/../lib/gcc/nios2-elf/4.1.2/../../../../nios2-elf/lib\libc.a(lib_a-stdio.o)
 .debug_abbrev  0x00004e48       0x96 c:/altera/11.1/nios2eds/bin/gnu/h-i686-mingw32/bin/../lib/gcc/nios2-elf/4.1.2/../../../../nios2-elf/lib\libc.a(lib_a-strcasecmp.o)
 .debug_abbrev  0x00004ede       0x80 c:/altera/11.1/nios2eds/bin/gnu/h-i686-mingw32/bin/../lib/gcc/nios2-elf/4.1.2/../../../../nios2-elf/lib\libc.a(lib_a-strcmp.o)
 .debug_abbrev  0x00004f5e       0x8f c:/altera/11.1/nios2eds/bin/gnu/h-i686-mingw32/bin/../lib/gcc/nios2-elf/4.1.2/../../../../nios2-elf/lib\libc.a(lib_a-strcpy.o)
 .debug_abbrev  0x00004fed       0x8b c:/altera/11.1/nios2eds/bin/gnu/h-i686-mingw32/bin/../lib/gcc/nios2-elf/4.1.2/../../../../nios2-elf/lib\libc.a(lib_a-strlen.o)
 .debug_abbrev  0x00005078      0x30a c:/altera/11.1/nios2eds/bin/gnu/h-i686-mingw32/bin/../lib/gcc/nios2-elf/4.1.2/../../../../nios2-elf/lib\libc.a(lib_a-vfprintf.o)
 .debug_abbrev  0x00005382      0x1ac c:/altera/11.1/nios2eds/bin/gnu/h-i686-mingw32/bin/../lib/gcc/nios2-elf/4.1.2/../../../../nios2-elf/lib\libc.a(lib_a-vsnprintf.o)
 .debug_abbrev  0x0000552e      0x184 c:/altera/11.1/nios2eds/bin/gnu/h-i686-mingw32/bin/../lib/gcc/nios2-elf/4.1.2/../../../../nios2-elf/lib\libc.a(lib_a-writer.o)
 .debug_abbrev  0x000056b2      0x170 c:/altera/11.1/nios2eds/bin/gnu/h-i686-mingw32/bin/../lib/gcc/nios2-elf/4.1.2/../../../../nios2-elf/lib\libc.a(lib_a-wsetup.o)
 .debug_abbrev  0x00005822      0x17f c:/altera/11.1/nios2eds/bin/gnu/h-i686-mingw32/bin/../lib/gcc/nios2-elf/4.1.2/../../../../nios2-elf/lib\libc.a(lib_a-closer.o)
 .debug_abbrev  0x000059a1       0x61 c:/altera/11.1/nios2eds/bin/gnu/h-i686-mingw32/bin/../lib/gcc/nios2-elf/4.1.2/../../../../nios2-elf/lib\libc.a(lib_a-ctype_.o)
 .debug_abbrev  0x00005a02      0x232 c:/altera/11.1/nios2eds/bin/gnu/h-i686-mingw32/bin/../lib/gcc/nios2-elf/4.1.2/../../../../nios2-elf/lib\libc.a(lib_a-dtoa.o)
 .debug_abbrev  0x00005c34      0x17d c:/altera/11.1/nios2eds/bin/gnu/h-i686-mingw32/bin/../lib/gcc/nios2-elf/4.1.2/../../../../nios2-elf/lib\libc.a(lib_a-flags.o)
 .debug_abbrev  0x00005db1      0x1a3 c:/altera/11.1/nios2eds/bin/gnu/h-i686-mingw32/bin/../lib/gcc/nios2-elf/4.1.2/../../../../nios2-elf/lib\libc.a(lib_a-fvwrite.o)
 .debug_abbrev  0x00005f54      0x17f c:/altera/11.1/nios2eds/bin/gnu/h-i686-mingw32/bin/../lib/gcc/nios2-elf/4.1.2/../../../../nios2-elf/lib\libc.a(lib_a-isattyr.o)
 .debug_abbrev  0x000060d3      0x1ed c:/altera/11.1/nios2eds/bin/gnu/h-i686-mingw32/bin/../lib/gcc/nios2-elf/4.1.2/../../../../nios2-elf/lib\libc.a(lib_a-locale.o)
 .debug_abbrev  0x000062c0      0x18e c:/altera/11.1/nios2eds/bin/gnu/h-i686-mingw32/bin/../lib/gcc/nios2-elf/4.1.2/../../../../nios2-elf/lib\libc.a(lib_a-lseekr.o)
 .debug_abbrev  0x0000644e       0xb5 c:/altera/11.1/nios2eds/bin/gnu/h-i686-mingw32/bin/../lib/gcc/nios2-elf/4.1.2/../../../../nios2-elf/lib\libc.a(lib_a-memchr.o)
 .debug_abbrev  0x00006503       0xb5 c:/altera/11.1/nios2eds/bin/gnu/h-i686-mingw32/bin/../lib/gcc/nios2-elf/4.1.2/../../../../nios2-elf/lib\libc.a(lib_a-memmove.o)
 .debug_abbrev  0x000065b8      0x297 c:/altera/11.1/nios2eds/bin/gnu/h-i686-mingw32/bin/../lib/gcc/nios2-elf/4.1.2/../../../../nios2-elf/lib\libc.a(lib_a-mprec.o)
 .debug_abbrev  0x0000684f      0x17f c:/altera/11.1/nios2eds/bin/gnu/h-i686-mingw32/bin/../lib/gcc/nios2-elf/4.1.2/../../../../nios2-elf/lib\libc.a(lib_a-putc.o)
 .debug_abbrev  0x000069ce      0x17f c:/altera/11.1/nios2eds/bin/gnu/h-i686-mingw32/bin/../lib/gcc/nios2-elf/4.1.2/../../../../nios2-elf/lib\libc.a(lib_a-readr.o)
 .debug_abbrev  0x00006b4d      0x1c3 c:/altera/11.1/nios2eds/bin/gnu/h-i686-mingw32/bin/../lib/gcc/nios2-elf/4.1.2/../../../../nios2-elf/lib\libc.a(lib_a-reallocr.o)
 .debug_abbrev  0x00006d10       0x79 c:/altera/11.1/nios2eds/bin/gnu/h-i686-mingw32/bin/../lib/gcc/nios2-elf/4.1.2/../../../../nios2-elf/lib\libc.a(lib_a-s_isinfd.o)
 .debug_abbrev  0x00006d89       0x79 c:/altera/11.1/nios2eds/bin/gnu/h-i686-mingw32/bin/../lib/gcc/nios2-elf/4.1.2/../../../../nios2-elf/lib\libc.a(lib_a-s_isnand.o)
 .debug_abbrev  0x00006e02      0x198 c:/altera/11.1/nios2eds/bin/gnu/h-i686-mingw32/bin/../lib/gcc/nios2-elf/4.1.2/../../../../nios2-elf/lib\libc.a(lib_a-wbuf.o)
 .debug_abbrev  0x00006f9a      0x1b8 c:/altera/11.1/nios2eds/bin/gnu/h-i686-mingw32/bin/../lib/gcc/nios2-elf/4.1.2/../../../../nios2-elf/lib\libc.a(lib_a-callocr.o)
 .debug_abbrev  0x00007152      0x16b c:/altera/11.1/nios2eds/bin/gnu/h-i686-mingw32/bin/../lib/gcc/nios2-elf/4.1.2\libgcc.a(_udivdi3.o)
 .debug_abbrev  0x000072bd      0x18e c:/altera/11.1/nios2eds/bin/gnu/h-i686-mingw32/bin/../lib/gcc/nios2-elf/4.1.2\libgcc.a(_umoddi3.o)
 .debug_abbrev  0x0000744b      0x1d2 c:/altera/11.1/nios2eds/bin/gnu/h-i686-mingw32/bin/../lib/gcc/nios2-elf/4.1.2\libgcc.a(_addsub_df.o)
 .debug_abbrev  0x0000761d      0x204 c:/altera/11.1/nios2eds/bin/gnu/h-i686-mingw32/bin/../lib/gcc/nios2-elf/4.1.2\libgcc.a(_mul_df.o)
 .debug_abbrev  0x00007821      0x151 c:/altera/11.1/nios2eds/bin/gnu/h-i686-mingw32/bin/../lib/gcc/nios2-elf/4.1.2\libgcc.a(_eq_df.o)
 .debug_abbrev  0x00007972      0x151 c:/altera/11.1/nios2eds/bin/gnu/h-i686-mingw32/bin/../lib/gcc/nios2-elf/4.1.2\libgcc.a(_ne_df.o)
 .debug_abbrev  0x00007ac3      0x151 c:/altera/11.1/nios2eds/bin/gnu/h-i686-mingw32/bin/../lib/gcc/nios2-elf/4.1.2\libgcc.a(_gt_df.o)
 .debug_abbrev  0x00007c14      0x151 c:/altera/11.1/nios2eds/bin/gnu/h-i686-mingw32/bin/../lib/gcc/nios2-elf/4.1.2\libgcc.a(_ge_df.o)
 .debug_abbrev  0x00007d65      0x151 c:/altera/11.1/nios2eds/bin/gnu/h-i686-mingw32/bin/../lib/gcc/nios2-elf/4.1.2\libgcc.a(_lt_df.o)
 .debug_abbrev  0x00007eb6      0x13f c:/altera/11.1/nios2eds/bin/gnu/h-i686-mingw32/bin/../lib/gcc/nios2-elf/4.1.2\libgcc.a(_si_to_df.o)
 .debug_abbrev  0x00007ff5      0x176 c:/altera/11.1/nios2eds/bin/gnu/h-i686-mingw32/bin/../lib/gcc/nios2-elf/4.1.2\libgcc.a(_df_to_si.o)
 .debug_abbrev  0x0000816b      0x155 c:/altera/11.1/nios2eds/bin/gnu/h-i686-mingw32/bin/../lib/gcc/nios2-elf/4.1.2\libgcc.a(_usi_to_df.o)
 .debug_abbrev  0x000082c0      0x132 c:/altera/11.1/nios2eds/bin/gnu/h-i686-mingw32/bin/../lib/gcc/nios2-elf/4.1.2\libgcc.a(_fpcmp_parts_df.o)
 .debug_abbrev  0x000083f2       0xfb ../DE2_SD_Card_Audio_bsp/\libhal_bsp.a(alt_close.o)
 .debug_abbrev  0x000084ed       0xc7 ../DE2_SD_Card_Audio_bsp/\libhal_bsp.a(alt_dev.o)
 .debug_abbrev  0x000085b4       0x5e ../DE2_SD_Card_Audio_bsp/\libhal_bsp.a(alt_errno.o)
 .debug_abbrev  0x00008612       0xfb ../DE2_SD_Card_Audio_bsp/\libhal_bsp.a(alt_fstat.o)
 .debug_abbrev  0x0000870d      0x180 ../DE2_SD_Card_Audio_bsp/\libhal_bsp.a(alt_irq_register.o)
 .debug_abbrev  0x0000888d       0x44 ../DE2_SD_Card_Audio_bsp/\libhal_bsp.a(alt_irq_vars.o)
 .debug_abbrev  0x000088d1       0xfb ../DE2_SD_Card_Audio_bsp/\libhal_bsp.a(alt_isatty.o)
 .debug_abbrev  0x000089cc       0x88 ../DE2_SD_Card_Audio_bsp/\libhal_bsp.a(alt_load.o)
 .debug_abbrev  0x00008a54       0xfb ../DE2_SD_Card_Audio_bsp/\libhal_bsp.a(alt_lseek.o)
 .debug_abbrev  0x00008b4f       0xb7 ../DE2_SD_Card_Audio_bsp/\libhal_bsp.a(alt_main.o)
 .debug_abbrev  0x00008c06      0x181 ../DE2_SD_Card_Audio_bsp/\libhal_bsp.a(alt_malloc_lock.o)
 .debug_abbrev  0x00008d87      0x112 ../DE2_SD_Card_Audio_bsp/\libhal_bsp.a(alt_open.o)
 .debug_abbrev  0x00008e99       0xfb ../DE2_SD_Card_Audio_bsp/\libhal_bsp.a(alt_read.o)
 .debug_abbrev  0x00008f94       0xc1 ../DE2_SD_Card_Audio_bsp/\libhal_bsp.a(alt_release_fd.o)
 .debug_abbrev  0x00009055      0x115 ../DE2_SD_Card_Audio_bsp/\libhal_bsp.a(alt_sbrk.o)
 .debug_abbrev  0x0000916a      0x150 ../DE2_SD_Card_Audio_bsp/\libhal_bsp.a(alt_tick.o)
 .debug_abbrev  0x000092ba       0x5d ../DE2_SD_Card_Audio_bsp/\libhal_bsp.a(alt_usleep.o)
 .debug_abbrev  0x00009317      0x100 ../DE2_SD_Card_Audio_bsp/\libhal_bsp.a(alt_write.o)
 .debug_abbrev  0x00009417      0x17d ../DE2_SD_Card_Audio_bsp/\libhal_bsp.a(alt_sys_init.o)
 .debug_abbrev  0x00009594      0x1bf ../DE2_SD_Card_Audio_bsp/\libhal_bsp.a(altera_avalon_cfi_flash.o)
 .debug_abbrev  0x00009753      0x185 ../DE2_SD_Card_Audio_bsp/\libhal_bsp.a(altera_avalon_cfi_flash_table.o)
 .debug_abbrev  0x000098d8      0x1bf ../DE2_SD_Card_Audio_bsp/\libhal_bsp.a(altera_avalon_epcs_flash_controller.o)
 .debug_abbrev  0x00009a97       0xf7 ../DE2_SD_Card_Audio_bsp/\libhal_bsp.a(altera_avalon_jtag_uart_fd.o)
 .debug_abbrev  0x00009b8e      0x17c ../DE2_SD_Card_Audio_bsp/\libhal_bsp.a(altera_avalon_jtag_uart_init.o)
 .debug_abbrev  0x00009d0a       0xf0 ../DE2_SD_Card_Audio_bsp/\libhal_bsp.a(altera_avalon_jtag_uart_ioctl.o)
 .debug_abbrev  0x00009dfa      0x191 ../DE2_SD_Card_Audio_bsp/\libhal_bsp.a(altera_avalon_jtag_uart_read.o)
 .debug_abbrev  0x00009f8b      0x18d ../DE2_SD_Card_Audio_bsp/\libhal_bsp.a(altera_avalon_jtag_uart_write.o)
 .debug_abbrev  0x0000a118      0x1c3 ../DE2_SD_Card_Audio_bsp/\libhal_bsp.a(altera_avalon_lcd_16207.o)
 .debug_abbrev  0x0000a2db      0x104 ../DE2_SD_Card_Audio_bsp/\libhal_bsp.a(altera_avalon_lcd_16207_fd.o)
 .debug_abbrev  0x0000a3df      0x137 ../DE2_SD_Card_Audio_bsp/\libhal_bsp.a(altera_avalon_timer_sc.o)
 .debug_abbrev  0x0000a516       0x87 ../DE2_SD_Card_Audio_bsp/\libhal_bsp.a(altera_avalon_timer_vars.o)
 .debug_abbrev  0x0000a59d       0xe8 ../DE2_SD_Card_Audio_bsp/\libhal_bsp.a(altera_avalon_uart_fd.o)
 .debug_abbrev  0x0000a685      0x148 ../DE2_SD_Card_Audio_bsp/\libhal_bsp.a(altera_avalon_uart_init.o)
 .debug_abbrev  0x0000a7cd      0x174 ../DE2_SD_Card_Audio_bsp/\libhal_bsp.a(altera_avalon_uart_read.o)
 .debug_abbrev  0x0000a941      0x17b ../DE2_SD_Card_Audio_bsp/\libhal_bsp.a(altera_avalon_uart_write.o)
 .debug_abbrev  0x0000aabc       0xe2 ../DE2_SD_Card_Audio_bsp/\libhal_bsp.a(epcs_commands.o)
 .debug_abbrev  0x0000ab9e      0x172 ../DE2_SD_Card_Audio_bsp/\libhal_bsp.a(alt_alarm_start.o)
 .debug_abbrev  0x0000ad10       0x6c ../DE2_SD_Card_Audio_bsp/\libhal_bsp.a(alt_busy_sleep.o)
 .debug_abbrev  0x0000ad7c       0x7a ../DE2_SD_Card_Audio_bsp/\libhal_bsp.a(alt_dcache_flush.o)
 .debug_abbrev  0x0000adf6       0x57 ../DE2_SD_Card_Audio_bsp/\libhal_bsp.a(alt_dcache_flush_all.o)
 .debug_abbrev  0x0000ae4d       0xf6 ../DE2_SD_Card_Audio_bsp/\libhal_bsp.a(alt_dev_llist_insert.o)
 .debug_abbrev  0x0000af43       0x76 ../DE2_SD_Card_Audio_bsp/\libhal_bsp.a(alt_do_ctors.o)
 .debug_abbrev  0x0000afb9       0x76 ../DE2_SD_Card_Audio_bsp/\libhal_bsp.a(alt_do_dtors.o)
 .debug_abbrev  0x0000b02f       0xcf ../DE2_SD_Card_Audio_bsp/\libhal_bsp.a(alt_find_dev.o)
 .debug_abbrev  0x0000b0fe       0xcf ../DE2_SD_Card_Audio_bsp/\libhal_bsp.a(alt_find_file.o)
 .debug_abbrev  0x0000b1cd      0x121 ../DE2_SD_Card_Audio_bsp/\libhal_bsp.a(alt_flash_dev.o)
 .debug_abbrev  0x0000b2ee       0xfb ../DE2_SD_Card_Audio_bsp/\libhal_bsp.a(alt_get_fd.o)
 .debug_abbrev  0x0000b3e9       0x3f ../DE2_SD_Card_Audio_bsp/\libhal_bsp.a(alt_icache_flush_all.o)
 .debug_abbrev  0x0000b428      0x134 ../DE2_SD_Card_Audio_bsp/\libhal_bsp.a(alt_iic.o)
 .debug_abbrev  0x0000b55c      0x14e ../DE2_SD_Card_Audio_bsp/\libhal_bsp.a(alt_iic_isr_register.o)
 .debug_abbrev  0x0000b6aa       0xf0 ../DE2_SD_Card_Audio_bsp/\libhal_bsp.a(alt_io_redirect.o)
 .debug_abbrev  0x0000b79a       0x12 ../DE2_SD_Card_Audio_bsp/\libhal_bsp.a(alt_irq_entry.o)
 .debug_abbrev  0x0000b7ac      0x10c ../DE2_SD_Card_Audio_bsp/\libhal_bsp.a(alt_irq_handler.o)
 .debug_abbrev  0x0000b8b8       0x3f ../DE2_SD_Card_Audio_bsp/\libhal_bsp.a(altera_nios2_qsys_irq.o)
 .debug_abbrev  0x0000b8f7      0x14d ../DE2_SD_Card_Audio_bsp/\libhal_bsp.a(altera_avalon_cfi_flash_amd.o)
 .debug_abbrev  0x0000ba44      0x14d ../DE2_SD_Card_Audio_bsp/\libhal_bsp.a(altera_avalon_cfi_flash_intel.o)
 .debug_abbrev  0x0000bb91       0x7c ../DE2_SD_Card_Audio_bsp/\libhal_bsp.a(altera_avalon_spi.o)
 .debug_abbrev  0x0000bc0d       0x12 ../DE2_SD_Card_Audio_bsp/\libhal_bsp.a(alt_exception_entry.o)
 .debug_abbrev  0x0000bc1f       0x7a ../DE2_SD_Card_Audio_bsp/\libhal_bsp.a(alt_icache_flush.o)
 .debug_abbrev  0x0000bc99       0xb7 c:/altera/11.1/nios2eds/bin/gnu/h-i686-mingw32/bin/../lib/gcc/nios2-elf/4.1.2/../../../../nios2-elf/lib\libc.a(lib_a-atexit.o)
 .debug_abbrev  0x0000bd50      0x16e c:/altera/11.1/nios2eds/bin/gnu/h-i686-mingw32/bin/../lib/gcc/nios2-elf/4.1.2/../../../../nios2-elf/lib\libc.a(lib_a-exit.o)
 .debug_abbrev  0x0000bebe       0x7c c:/altera/11.1/nios2eds/bin/gnu/h-i686-mingw32/bin/../lib/gcc/nios2-elf/4.1.2/../../../../nios2-elf/lib\libc.a(lib_a-memcmp.o)
 .debug_abbrev  0x0000bf3a      0x1ae c:/altera/11.1/nios2eds/bin/gnu/h-i686-mingw32/bin/../lib/gcc/nios2-elf/4.1.2/../../../../nios2-elf/lib\libc.a(lib_a-__atexit.o)
 .debug_abbrev  0x0000c0e8      0x1de c:/altera/11.1/nios2eds/bin/gnu/h-i686-mingw32/bin/../lib/gcc/nios2-elf/4.1.2/../../../../nios2-elf/lib\libc.a(lib_a-__call_atexit.o)
 .debug_abbrev  0x0000c2c6       0x72 ../DE2_SD_Card_Audio_bsp/\libhal_bsp.a(alt_exit.o)

.debug_line     0x00000000    0x2224e
 *(.debug_line)
 .debug_line    0x00000000       0x72 ../DE2_SD_Card_Audio_bsp//obj/HAL/src/crt0.o
 .debug_line    0x00000072     0x1034 obj/default/main.o
 .debug_line    0x000010a6      0xcf3 obj/default/terasic_fat/FatFileSystem.o
 .debug_line    0x00001d99      0xc43 obj/default/terasic_fat/FatInternal.o
 .debug_line    0x000029dc      0x94f obj/default/terasic_lib/AUDIO.o
 .debug_line    0x0000332b      0x6c4 obj/default/terasic_lib/I2C.o
 .debug_line    0x000039ef      0x39a obj/default/terasic_lib/LCD.o
 .debug_line    0x00003d89      0x37a obj/default/terasic_lib/LED.o
 .debug_line    0x00004103      0x413 obj/default/terasic_lib/SEG7.o
 .debug_line    0x00004516      0x4e6 obj/default/terasic_lib/WaveLib.o
 .debug_line    0x000049fc      0x394 obj/default/terasic_lib/debug.o
 .debug_line    0x00004d90      0x326 obj/default/terasic_sdcard/crc16.o
 .debug_line    0x000050b6      0x335 obj/default/terasic_sdcard/crc7.o
 .debug_line    0x000053eb      0x6d1 obj/default/terasic_sdcard/sd_hal.o
 .debug_line    0x00005abc      0x562 obj/default/terasic_sdcard/sd_lib.o
 .debug_line    0x0000601e      0xe85 obj/default/terasic_sdcard/sd_protocol.o
 .debug_line    0x00006ea3      0x2c1 c:/altera/11.1/nios2eds/bin/gnu/h-i686-mingw32/bin/../lib/gcc/nios2-elf/4.1.2\libgcc.a(_mul_sf.o)
 .debug_line    0x00007164      0x26a c:/altera/11.1/nios2eds/bin/gnu/h-i686-mingw32/bin/../lib/gcc/nios2-elf/4.1.2\libgcc.a(_div_sf.o)
 .debug_line    0x000073ce       0xd1 c:/altera/11.1/nios2eds/bin/gnu/h-i686-mingw32/bin/../lib/gcc/nios2-elf/4.1.2\libgcc.a(_sf_to_df.o)
 .debug_line    0x0000749f       0x94 c:/altera/11.1/nios2eds/bin/gnu/h-i686-mingw32/bin/../lib/gcc/nios2-elf/4.1.2\libgcc.a(_thenan_sf.o)
 .debug_line    0x00007533      0x183 c:/altera/11.1/nios2eds/bin/gnu/h-i686-mingw32/bin/../lib/gcc/nios2-elf/4.1.2\libgcc.a(_usi_to_sf.o)
 .debug_line    0x000076b6      0x301 c:/altera/11.1/nios2eds/bin/gnu/h-i686-mingw32/bin/../lib/gcc/nios2-elf/4.1.2\libgcc.a(_div_df.o)
 .debug_line    0x000079b7       0xe9 c:/altera/11.1/nios2eds/bin/gnu/h-i686-mingw32/bin/../lib/gcc/nios2-elf/4.1.2\libgcc.a(_make_df.o)
 .debug_line    0x00007aa0      0x121 c:/altera/11.1/nios2eds/bin/gnu/h-i686-mingw32/bin/../lib/gcc/nios2-elf/4.1.2\libgcc.a(_df_to_sf.o)
 .debug_line    0x00007bc1       0x94 c:/altera/11.1/nios2eds/bin/gnu/h-i686-mingw32/bin/../lib/gcc/nios2-elf/4.1.2\libgcc.a(_thenan_df.o)
 .debug_line    0x00007c55      0x24f c:/altera/11.1/nios2eds/bin/gnu/h-i686-mingw32/bin/../lib/gcc/nios2-elf/4.1.2\libgcc.a(lib2-divmod.o)
 .debug_line    0x00007ea4      0x11f c:/altera/11.1/nios2eds/bin/gnu/h-i686-mingw32/bin/../lib/gcc/nios2-elf/4.1.2\libgcc.a(_muldi3.o)
 .debug_line    0x00007fc3      0x105 c:/altera/11.1/nios2eds/bin/gnu/h-i686-mingw32/bin/../lib/gcc/nios2-elf/4.1.2\libgcc.a(_clzsi2.o)
 .debug_line    0x000080c8      0x1ca c:/altera/11.1/nios2eds/bin/gnu/h-i686-mingw32/bin/../lib/gcc/nios2-elf/4.1.2\libgcc.a(_pack_sf.o)
 .debug_line    0x00008292      0x197 c:/altera/11.1/nios2eds/bin/gnu/h-i686-mingw32/bin/../lib/gcc/nios2-elf/4.1.2\libgcc.a(_unpack_sf.o)
 .debug_line    0x00008429       0xe1 c:/altera/11.1/nios2eds/bin/gnu/h-i686-mingw32/bin/../lib/gcc/nios2-elf/4.1.2\libgcc.a(_make_sf.o)
 .debug_line    0x0000850a      0x222 c:/altera/11.1/nios2eds/bin/gnu/h-i686-mingw32/bin/../lib/gcc/nios2-elf/4.1.2\libgcc.a(_pack_df.o)
 .debug_line    0x0000872c      0x1e4 c:/altera/11.1/nios2eds/bin/gnu/h-i686-mingw32/bin/../lib/gcc/nios2-elf/4.1.2\libgcc.a(_unpack_df.o)
 .debug_line    0x00008910       0xaa c:/altera/11.1/nios2eds/bin/gnu/h-i686-mingw32/bin/../lib/gcc/nios2-elf/4.1.2\libgcc.a(_clz.o)
 .debug_line    0x000089ba      0x2e8 c:/altera/11.1/nios2eds/bin/gnu/h-i686-mingw32/bin/../lib/gcc/nios2-elf/4.1.2/../../../../nios2-elf/lib\libc.a(lib_a-fclose.o)
 .debug_line    0x00008ca2      0x40d c:/altera/11.1/nios2eds/bin/gnu/h-i686-mingw32/bin/../lib/gcc/nios2-elf/4.1.2/../../../../nios2-elf/lib\libc.a(lib_a-fflush.o)
 .debug_line    0x000090af      0x601 c:/altera/11.1/nios2eds/bin/gnu/h-i686-mingw32/bin/../lib/gcc/nios2-elf/4.1.2/../../../../nios2-elf/lib\libc.a(lib_a-findfp.o)
 .debug_line    0x000096b0      0x342 c:/altera/11.1/nios2eds/bin/gnu/h-i686-mingw32/bin/../lib/gcc/nios2-elf/4.1.2/../../../../nios2-elf/lib\libc.a(lib_a-fopen.o)
 .debug_line    0x000099f2      0x5eb c:/altera/11.1/nios2eds/bin/gnu/h-i686-mingw32/bin/../lib/gcc/nios2-elf/4.1.2/../../../../nios2-elf/lib\libc.a(lib_a-freer.o)
 .debug_line    0x00009fdd      0x5ab c:/altera/11.1/nios2eds/bin/gnu/h-i686-mingw32/bin/../lib/gcc/nios2-elf/4.1.2/../../../../nios2-elf/lib\libc.a(lib_a-fseek.o)
 .debug_line    0x0000a588      0x264 c:/altera/11.1/nios2eds/bin/gnu/h-i686-mingw32/bin/../lib/gcc/nios2-elf/4.1.2/../../../../nios2-elf/lib\libc.a(lib_a-fstatr.o)
 .debug_line    0x0000a7ec      0x34a c:/altera/11.1/nios2eds/bin/gnu/h-i686-mingw32/bin/../lib/gcc/nios2-elf/4.1.2/../../../../nios2-elf/lib\libc.a(lib_a-fwalk.o)
 .debug_line    0x0000ab36      0x2d9 c:/altera/11.1/nios2eds/bin/gnu/h-i686-mingw32/bin/../lib/gcc/nios2-elf/4.1.2/../../../../nios2-elf/lib\libc.a(lib_a-fwrite.o)
 .debug_line    0x0000ae0f      0x22d c:/altera/11.1/nios2eds/bin/gnu/h-i686-mingw32/bin/../lib/gcc/nios2-elf/4.1.2/../../../../nios2-elf/lib\libc.a(lib_a-impure.o)
 .debug_line    0x0000b03c      0x1df c:/altera/11.1/nios2eds/bin/gnu/h-i686-mingw32/bin/../lib/gcc/nios2-elf/4.1.2/../../../../nios2-elf/lib\libc.a(lib_a-int_errno.o)
 .debug_line    0x0000b21b      0x3c3 c:/altera/11.1/nios2eds/bin/gnu/h-i686-mingw32/bin/../lib/gcc/nios2-elf/4.1.2/../../../../nios2-elf/lib\libc.a(lib_a-makebuf.o)
 .debug_line    0x0000b5de      0x24b c:/altera/11.1/nios2eds/bin/gnu/h-i686-mingw32/bin/../lib/gcc/nios2-elf/4.1.2/../../../../nios2-elf/lib\libc.a(lib_a-malloc.o)
 .debug_line    0x0000b829      0x80a c:/altera/11.1/nios2eds/bin/gnu/h-i686-mingw32/bin/../lib/gcc/nios2-elf/4.1.2/../../../../nios2-elf/lib\libc.a(lib_a-mallocr.o)
 .debug_line    0x0000c033      0x1ac c:/altera/11.1/nios2eds/bin/gnu/h-i686-mingw32/bin/../lib/gcc/nios2-elf/4.1.2/../../../../nios2-elf/lib\libc.a(lib_a-memcpy.o)
 .debug_line    0x0000c1df      0x301 c:/altera/11.1/nios2eds/bin/gnu/h-i686-mingw32/bin/../lib/gcc/nios2-elf/4.1.2/../../../../nios2-elf/lib\libc.a(lib_a-memset.o)
 .debug_line    0x0000c4e0      0x27b c:/altera/11.1/nios2eds/bin/gnu/h-i686-mingw32/bin/../lib/gcc/nios2-elf/4.1.2/../../../../nios2-elf/lib\libc.a(lib_a-openr.o)
 .debug_line    0x0000c75b      0x29b c:/altera/11.1/nios2eds/bin/gnu/h-i686-mingw32/bin/../lib/gcc/nios2-elf/4.1.2/../../../../nios2-elf/lib\libc.a(lib_a-printf.o)
 .debug_line    0x0000c9f6      0x264 c:/altera/11.1/nios2eds/bin/gnu/h-i686-mingw32/bin/../lib/gcc/nios2-elf/4.1.2/../../../../nios2-elf/lib\libc.a(lib_a-putchar.o)
 .debug_line    0x0000cc5a      0x2f7 c:/altera/11.1/nios2eds/bin/gnu/h-i686-mingw32/bin/../lib/gcc/nios2-elf/4.1.2/../../../../nios2-elf/lib\libc.a(lib_a-puts.o)
 .debug_line    0x0000cf51      0x3c4 c:/altera/11.1/nios2eds/bin/gnu/h-i686-mingw32/bin/../lib/gcc/nios2-elf/4.1.2/../../../../nios2-elf/lib\libc.a(lib_a-refill.o)
 .debug_line    0x0000d315      0x299 c:/altera/11.1/nios2eds/bin/gnu/h-i686-mingw32/bin/../lib/gcc/nios2-elf/4.1.2/../../../../nios2-elf/lib\libc.a(lib_a-sbrkr.o)
 .debug_line    0x0000d5ae      0x322 c:/altera/11.1/nios2eds/bin/gnu/h-i686-mingw32/bin/../lib/gcc/nios2-elf/4.1.2/../../../../nios2-elf/lib\libc.a(lib_a-sprintf.o)
 .debug_line    0x0000d8d0      0x38c c:/altera/11.1/nios2eds/bin/gnu/h-i686-mingw32/bin/../lib/gcc/nios2-elf/4.1.2/../../../../nios2-elf/lib\libc.a(lib_a-stdio.o)
 .debug_line    0x0000dc5c      0x20f c:/altera/11.1/nios2eds/bin/gnu/h-i686-mingw32/bin/../lib/gcc/nios2-elf/4.1.2/../../../../nios2-elf/lib\libc.a(lib_a-strcasecmp.o)
 .debug_line    0x0000de6b      0x2d5 c:/altera/11.1/nios2eds/bin/gnu/h-i686-mingw32/bin/../lib/gcc/nios2-elf/4.1.2/../../../../nios2-elf/lib\libc.a(lib_a-strcmp.o)
 .debug_line    0x0000e140      0x287 c:/altera/11.1/nios2eds/bin/gnu/h-i686-mingw32/bin/../lib/gcc/nios2-elf/4.1.2/../../../../nios2-elf/lib\libc.a(lib_a-strcpy.o)
 .debug_line    0x0000e3c7      0x26d c:/altera/11.1/nios2eds/bin/gnu/h-i686-mingw32/bin/../lib/gcc/nios2-elf/4.1.2/../../../../nios2-elf/lib\libc.a(lib_a-strlen.o)
 .debug_line    0x0000e634     0x110c c:/altera/11.1/nios2eds/bin/gnu/h-i686-mingw32/bin/../lib/gcc/nios2-elf/4.1.2/../../../../nios2-elf/lib\libc.a(lib_a-vfprintf.o)
 .debug_line    0x0000f740      0x315 c:/altera/11.1/nios2eds/bin/gnu/h-i686-mingw32/bin/../lib/gcc/nios2-elf/4.1.2/../../../../nios2-elf/lib\libc.a(lib_a-vsnprintf.o)
 .debug_line    0x0000fa55      0x29a c:/altera/11.1/nios2eds/bin/gnu/h-i686-mingw32/bin/../lib/gcc/nios2-elf/4.1.2/../../../../nios2-elf/lib\libc.a(lib_a-writer.o)
 .debug_line    0x0000fcef      0x2f0 c:/altera/11.1/nios2eds/bin/gnu/h-i686-mingw32/bin/../lib/gcc/nios2-elf/4.1.2/../../../../nios2-elf/lib\libc.a(lib_a-wsetup.o)
 .debug_line    0x0000ffdf      0x29a c:/altera/11.1/nios2eds/bin/gnu/h-i686-mingw32/bin/../lib/gcc/nios2-elf/4.1.2/../../../../nios2-elf/lib\libc.a(lib_a-closer.o)
 .debug_line    0x00010279       0x7e c:/altera/11.1/nios2eds/bin/gnu/h-i686-mingw32/bin/../lib/gcc/nios2-elf/4.1.2/../../../../nios2-elf/lib\libc.a(lib_a-ctype_.o)
 .debug_line    0x000102f7     0x12c6 c:/altera/11.1/nios2eds/bin/gnu/h-i686-mingw32/bin/../lib/gcc/nios2-elf/4.1.2/../../../../nios2-elf/lib\libc.a(lib_a-dtoa.o)
 .debug_line    0x000115bd      0x296 c:/altera/11.1/nios2eds/bin/gnu/h-i686-mingw32/bin/../lib/gcc/nios2-elf/4.1.2/../../../../nios2-elf/lib\libc.a(lib_a-flags.o)
 .debug_line    0x00011853      0x641 c:/altera/11.1/nios2eds/bin/gnu/h-i686-mingw32/bin/../lib/gcc/nios2-elf/4.1.2/../../../../nios2-elf/lib\libc.a(lib_a-fvwrite.o)
 .debug_line    0x00011e94      0x29b c:/altera/11.1/nios2eds/bin/gnu/h-i686-mingw32/bin/../lib/gcc/nios2-elf/4.1.2/../../../../nios2-elf/lib\libc.a(lib_a-isattyr.o)
 .debug_line    0x0001212f      0x2c8 c:/altera/11.1/nios2eds/bin/gnu/h-i686-mingw32/bin/../lib/gcc/nios2-elf/4.1.2/../../../../nios2-elf/lib\libc.a(lib_a-locale.o)
 .debug_line    0x000123f7      0x29a c:/altera/11.1/nios2eds/bin/gnu/h-i686-mingw32/bin/../lib/gcc/nios2-elf/4.1.2/../../../../nios2-elf/lib\libc.a(lib_a-lseekr.o)
 .debug_line    0x00012691      0x303 c:/altera/11.1/nios2eds/bin/gnu/h-i686-mingw32/bin/../lib/gcc/nios2-elf/4.1.2/../../../../nios2-elf/lib\libc.a(lib_a-memchr.o)
 .debug_line    0x00012994      0x30a c:/altera/11.1/nios2eds/bin/gnu/h-i686-mingw32/bin/../lib/gcc/nios2-elf/4.1.2/../../../../nios2-elf/lib\libc.a(lib_a-memmove.o)
 .debug_line    0x00012c9e     0x1243 c:/altera/11.1/nios2eds/bin/gnu/h-i686-mingw32/bin/../lib/gcc/nios2-elf/4.1.2/../../../../nios2-elf/lib\libc.a(lib_a-mprec.o)
 .debug_line    0x00013ee1      0x2c4 c:/altera/11.1/nios2eds/bin/gnu/h-i686-mingw32/bin/../lib/gcc/nios2-elf/4.1.2/../../../../nios2-elf/lib\libc.a(lib_a-putc.o)
 .debug_line    0x000141a5      0x299 c:/altera/11.1/nios2eds/bin/gnu/h-i686-mingw32/bin/../lib/gcc/nios2-elf/4.1.2/../../../../nios2-elf/lib\libc.a(lib_a-readr.o)
 .debug_line    0x0001443e      0x58a c:/altera/11.1/nios2eds/bin/gnu/h-i686-mingw32/bin/../lib/gcc/nios2-elf/4.1.2/../../../../nios2-elf/lib\libc.a(lib_a-reallocr.o)
 .debug_line    0x000149c8      0x222 c:/altera/11.1/nios2eds/bin/gnu/h-i686-mingw32/bin/../lib/gcc/nios2-elf/4.1.2/../../../../nios2-elf/lib\libc.a(lib_a-s_isinfd.o)
 .debug_line    0x00014bea      0x21a c:/altera/11.1/nios2eds/bin/gnu/h-i686-mingw32/bin/../lib/gcc/nios2-elf/4.1.2/../../../../nios2-elf/lib\libc.a(lib_a-s_isnand.o)
 .debug_line    0x00014e04      0x350 c:/altera/11.1/nios2eds/bin/gnu/h-i686-mingw32/bin/../lib/gcc/nios2-elf/4.1.2/../../../../nios2-elf/lib\libc.a(lib_a-wbuf.o)
 .debug_line    0x00015154      0x25c c:/altera/11.1/nios2eds/bin/gnu/h-i686-mingw32/bin/../lib/gcc/nios2-elf/4.1.2/../../../../nios2-elf/lib\libc.a(lib_a-callocr.o)
 .debug_line    0x000153b0      0x2f2 c:/altera/11.1/nios2eds/bin/gnu/h-i686-mingw32/bin/../lib/gcc/nios2-elf/4.1.2\libgcc.a(_udivdi3.o)
 .debug_line    0x000156a2      0x37d c:/altera/11.1/nios2eds/bin/gnu/h-i686-mingw32/bin/../lib/gcc/nios2-elf/4.1.2\libgcc.a(_umoddi3.o)
 .debug_line    0x00015a1f      0x430 c:/altera/11.1/nios2eds/bin/gnu/h-i686-mingw32/bin/../lib/gcc/nios2-elf/4.1.2\libgcc.a(_addsub_df.o)
 .debug_line    0x00015e4f      0x3e5 c:/altera/11.1/nios2eds/bin/gnu/h-i686-mingw32/bin/../lib/gcc/nios2-elf/4.1.2\libgcc.a(_mul_df.o)
 .debug_line    0x00016234      0x129 c:/altera/11.1/nios2eds/bin/gnu/h-i686-mingw32/bin/../lib/gcc/nios2-elf/4.1.2\libgcc.a(_eq_df.o)
 .debug_line    0x0001635d      0x129 c:/altera/11.1/nios2eds/bin/gnu/h-i686-mingw32/bin/../lib/gcc/nios2-elf/4.1.2\libgcc.a(_ne_df.o)
 .debug_line    0x00016486      0x129 c:/altera/11.1/nios2eds/bin/gnu/h-i686-mingw32/bin/../lib/gcc/nios2-elf/4.1.2\libgcc.a(_gt_df.o)
 .debug_line    0x000165af      0x129 c:/altera/11.1/nios2eds/bin/gnu/h-i686-mingw32/bin/../lib/gcc/nios2-elf/4.1.2\libgcc.a(_ge_df.o)
 .debug_line    0x000166d8      0x129 c:/altera/11.1/nios2eds/bin/gnu/h-i686-mingw32/bin/../lib/gcc/nios2-elf/4.1.2\libgcc.a(_lt_df.o)
 .debug_line    0x00016801      0x175 c:/altera/11.1/nios2eds/bin/gnu/h-i686-mingw32/bin/../lib/gcc/nios2-elf/4.1.2\libgcc.a(_si_to_df.o)
 .debug_line    0x00016976      0x149 c:/altera/11.1/nios2eds/bin/gnu/h-i686-mingw32/bin/../lib/gcc/nios2-elf/4.1.2\libgcc.a(_df_to_si.o)
 .debug_line    0x00016abf      0x189 c:/altera/11.1/nios2eds/bin/gnu/h-i686-mingw32/bin/../lib/gcc/nios2-elf/4.1.2\libgcc.a(_usi_to_df.o)
 .debug_line    0x00016c48      0x187 c:/altera/11.1/nios2eds/bin/gnu/h-i686-mingw32/bin/../lib/gcc/nios2-elf/4.1.2\libgcc.a(_fpcmp_parts_df.o)
 .debug_line    0x00016dcf      0x293 ../DE2_SD_Card_Audio_bsp/\libhal_bsp.a(alt_close.o)
 .debug_line    0x00017062      0x24e ../DE2_SD_Card_Audio_bsp/\libhal_bsp.a(alt_dev.o)
 .debug_line    0x000172b0      0x1a4 ../DE2_SD_Card_Audio_bsp/\libhal_bsp.a(alt_errno.o)
 .debug_line    0x00017454      0x29b ../DE2_SD_Card_Audio_bsp/\libhal_bsp.a(alt_fstat.o)
 .debug_line    0x000176ef      0x2fd ../DE2_SD_Card_Audio_bsp/\libhal_bsp.a(alt_irq_register.o)
 .debug_line    0x000179ec       0x72 ../DE2_SD_Card_Audio_bsp/\libhal_bsp.a(alt_irq_vars.o)
 .debug_line    0x00017a5e      0x29c ../DE2_SD_Card_Audio_bsp/\libhal_bsp.a(alt_isatty.o)
 .debug_line    0x00017cfa      0x211 ../DE2_SD_Card_Audio_bsp/\libhal_bsp.a(alt_load.o)
 .debug_line    0x00017f0b      0x29b ../DE2_SD_Card_Audio_bsp/\libhal_bsp.a(alt_lseek.o)
 .debug_line    0x000181a6      0x2c4 ../DE2_SD_Card_Audio_bsp/\libhal_bsp.a(alt_main.o)
 .debug_line    0x0001846a      0x206 ../DE2_SD_Card_Audio_bsp/\libhal_bsp.a(alt_malloc_lock.o)
 .debug_line    0x00018670      0x2f9 ../DE2_SD_Card_Audio_bsp/\libhal_bsp.a(alt_open.o)
 .debug_line    0x00018969      0x2c2 ../DE2_SD_Card_Audio_bsp/\libhal_bsp.a(alt_read.o)
 .debug_line    0x00018c2b       0xed ../DE2_SD_Card_Audio_bsp/\libhal_bsp.a(alt_release_fd.o)
 .debug_line    0x00018d18      0x25b ../DE2_SD_Card_Audio_bsp/\libhal_bsp.a(alt_sbrk.o)
 .debug_line    0x00018f73      0x2d6 ../DE2_SD_Card_Audio_bsp/\libhal_bsp.a(alt_tick.o)
 .debug_line    0x00019249      0x1f9 ../DE2_SD_Card_Audio_bsp/\libhal_bsp.a(alt_usleep.o)
 .debug_line    0x00019442      0x2c3 ../DE2_SD_Card_Audio_bsp/\libhal_bsp.a(alt_write.o)
 .debug_line    0x00019705      0x3d4 ../DE2_SD_Card_Audio_bsp/\libhal_bsp.a(alt_sys_init.o)
 .debug_line    0x00019ad9      0x56d ../DE2_SD_Card_Audio_bsp/\libhal_bsp.a(altera_avalon_cfi_flash.o)
 .debug_line    0x0001a046      0x94b ../DE2_SD_Card_Audio_bsp/\libhal_bsp.a(altera_avalon_cfi_flash_table.o)
 .debug_line    0x0001a991      0x6a1 ../DE2_SD_Card_Audio_bsp/\libhal_bsp.a(altera_avalon_epcs_flash_controller.o)
 .debug_line    0x0001b032      0x214 ../DE2_SD_Card_Audio_bsp/\libhal_bsp.a(altera_avalon_jtag_uart_fd.o)
 .debug_line    0x0001b246      0x4a5 ../DE2_SD_Card_Audio_bsp/\libhal_bsp.a(altera_avalon_jtag_uart_init.o)
 .debug_line    0x0001b6eb      0x311 ../DE2_SD_Card_Audio_bsp/\libhal_bsp.a(altera_avalon_jtag_uart_ioctl.o)
 .debug_line    0x0001b9fc      0x3f1 ../DE2_SD_Card_Audio_bsp/\libhal_bsp.a(altera_avalon_jtag_uart_read.o)
 .debug_line    0x0001bded      0x3ff ../DE2_SD_Card_Audio_bsp/\libhal_bsp.a(altera_avalon_jtag_uart_write.o)
 .debug_line    0x0001c1ec      0x8bb ../DE2_SD_Card_Audio_bsp/\libhal_bsp.a(altera_avalon_lcd_16207.o)
 .debug_line    0x0001caa7      0x1b4 ../DE2_SD_Card_Audio_bsp/\libhal_bsp.a(altera_avalon_lcd_16207_fd.o)
 .debug_line    0x0001cc5b      0x2ad ../DE2_SD_Card_Audio_bsp/\libhal_bsp.a(altera_avalon_timer_sc.o)
 .debug_line    0x0001cf08      0x239 ../DE2_SD_Card_Audio_bsp/\libhal_bsp.a(altera_avalon_timer_vars.o)
 .debug_line    0x0001d141      0x1cf ../DE2_SD_Card_Audio_bsp/\libhal_bsp.a(altera_avalon_uart_fd.o)
 .debug_line    0x0001d310      0x48c ../DE2_SD_Card_Audio_bsp/\libhal_bsp.a(altera_avalon_uart_init.o)
 .debug_line    0x0001d79c      0x3fe ../DE2_SD_Card_Audio_bsp/\libhal_bsp.a(altera_avalon_uart_read.o)
 .debug_line    0x0001db9a      0x3df ../DE2_SD_Card_Audio_bsp/\libhal_bsp.a(altera_avalon_uart_write.o)
 .debug_line    0x0001df79      0x2b5 ../DE2_SD_Card_Audio_bsp/\libhal_bsp.a(epcs_commands.o)
 .debug_line    0x0001e22e      0x2d6 ../DE2_SD_Card_Audio_bsp/\libhal_bsp.a(alt_alarm_start.o)
 .debug_line    0x0001e504      0x253 ../DE2_SD_Card_Audio_bsp/\libhal_bsp.a(alt_busy_sleep.o)
 .debug_line    0x0001e757      0x1db ../DE2_SD_Card_Audio_bsp/\libhal_bsp.a(alt_dcache_flush.o)
 .debug_line    0x0001e932      0x1c7 ../DE2_SD_Card_Audio_bsp/\libhal_bsp.a(alt_dcache_flush_all.o)
 .debug_line    0x0001eaf9      0x254 ../DE2_SD_Card_Audio_bsp/\libhal_bsp.a(alt_dev_llist_insert.o)
 .debug_line    0x0001ed4d       0x83 ../DE2_SD_Card_Audio_bsp/\libhal_bsp.a(alt_do_ctors.o)
 .debug_line    0x0001edd0       0x83 ../DE2_SD_Card_Audio_bsp/\libhal_bsp.a(alt_do_dtors.o)
 .debug_line    0x0001ee53      0x265 ../DE2_SD_Card_Audio_bsp/\libhal_bsp.a(alt_find_dev.o)
 .debug_line    0x0001f0b8      0x276 ../DE2_SD_Card_Audio_bsp/\libhal_bsp.a(alt_find_file.o)
 .debug_line    0x0001f32e      0x262 ../DE2_SD_Card_Audio_bsp/\libhal_bsp.a(alt_flash_dev.o)
 .debug_line    0x0001f590      0x291 ../DE2_SD_Card_Audio_bsp/\libhal_bsp.a(alt_get_fd.o)
 .debug_line    0x0001f821      0x1b7 ../DE2_SD_Card_Audio_bsp/\libhal_bsp.a(alt_icache_flush_all.o)
 .debug_line    0x0001f9d8      0x2c2 ../DE2_SD_Card_Audio_bsp/\libhal_bsp.a(alt_iic.o)
 .debug_line    0x0001fc9a      0x243 ../DE2_SD_Card_Audio_bsp/\libhal_bsp.a(alt_iic_isr_register.o)
 .debug_line    0x0001fedd      0x2ae ../DE2_SD_Card_Audio_bsp/\libhal_bsp.a(alt_io_redirect.o)
 .debug_line    0x0002018b       0x6b ../DE2_SD_Card_Audio_bsp/\libhal_bsp.a(alt_irq_entry.o)
 .debug_line    0x000201f6      0x242 ../DE2_SD_Card_Audio_bsp/\libhal_bsp.a(alt_irq_handler.o)
 .debug_line    0x00020438      0x1c8 ../DE2_SD_Card_Audio_bsp/\libhal_bsp.a(altera_nios2_qsys_irq.o)
 .debug_line    0x00020600      0x43f ../DE2_SD_Card_Audio_bsp/\libhal_bsp.a(altera_avalon_cfi_flash_amd.o)
 .debug_line    0x00020a3f      0x431 ../DE2_SD_Card_Audio_bsp/\libhal_bsp.a(altera_avalon_cfi_flash_intel.o)
 .debug_line    0x00020e70      0x1ef ../DE2_SD_Card_Audio_bsp/\libhal_bsp.a(altera_avalon_spi.o)
 .debug_line    0x0002105f       0xab ../DE2_SD_Card_Audio_bsp/\libhal_bsp.a(alt_exception_entry.o)
 .debug_line    0x0002110a      0x1f3 ../DE2_SD_Card_Audio_bsp/\libhal_bsp.a(alt_icache_flush.o)
 .debug_line    0x000212fd      0x200 c:/altera/11.1/nios2eds/bin/gnu/h-i686-mingw32/bin/../lib/gcc/nios2-elf/4.1.2/../../../../nios2-elf/lib\libc.a(lib_a-atexit.o)
 .debug_line    0x000214fd      0x238 c:/altera/11.1/nios2eds/bin/gnu/h-i686-mingw32/bin/../lib/gcc/nios2-elf/4.1.2/../../../../nios2-elf/lib\libc.a(lib_a-exit.o)
 .debug_line    0x00021735      0x29f c:/altera/11.1/nios2eds/bin/gnu/h-i686-mingw32/bin/../lib/gcc/nios2-elf/4.1.2/../../../../nios2-elf/lib\libc.a(lib_a-memcmp.o)
 .debug_line    0x000219d4      0x313 c:/altera/11.1/nios2eds/bin/gnu/h-i686-mingw32/bin/../lib/gcc/nios2-elf/4.1.2/../../../../nios2-elf/lib\libc.a(lib_a-__atexit.o)
 .debug_line    0x00021ce7      0x367 c:/altera/11.1/nios2eds/bin/gnu/h-i686-mingw32/bin/../lib/gcc/nios2-elf/4.1.2/../../../../nios2-elf/lib\libc.a(lib_a-__call_atexit.o)
 .debug_line    0x0002204e      0x200 ../DE2_SD_Card_Audio_bsp/\libhal_bsp.a(alt_exit.o)

.debug_frame    0x00000000     0x3688
 *(.debug_frame)
 .debug_frame   0x00000000      0x230 obj/default/main.o
 .debug_frame   0x00000230      0x1c4 obj/default/terasic_fat/FatFileSystem.o
 .debug_frame   0x000003f4      0x234 obj/default/terasic_fat/FatInternal.o
 .debug_frame   0x00000628      0x25c obj/default/terasic_lib/AUDIO.o
 .debug_frame   0x00000884       0xd4 obj/default/terasic_lib/I2C.o
 .debug_frame   0x00000958       0x80 obj/default/terasic_lib/LCD.o
 .debug_frame   0x000009d8       0x80 obj/default/terasic_lib/LED.o
 .debug_frame   0x00000a58       0x9c obj/default/terasic_lib/SEG7.o
 .debug_frame   0x00000af4       0xd4 obj/default/terasic_lib/WaveLib.o
 .debug_frame   0x00000bc8       0x84 obj/default/terasic_lib/debug.o
 .debug_frame   0x00000c4c       0x2c obj/default/terasic_sdcard/crc16.o
 .debug_frame   0x00000c78       0x48 obj/default/terasic_sdcard/crc7.o
 .debug_frame   0x00000cc0       0xd4 obj/default/terasic_sdcard/sd_hal.o
 .debug_frame   0x00000d94       0x64 obj/default/terasic_sdcard/sd_lib.o
 .debug_frame   0x00000df8      0x224 obj/default/terasic_sdcard/sd_protocol.o
 .debug_frame   0x0000101c       0x2c c:/altera/11.1/nios2eds/bin/gnu/h-i686-mingw32/bin/../lib/gcc/nios2-elf/4.1.2\libgcc.a(_mul_sf.o)
 .debug_frame   0x00001048       0x2c c:/altera/11.1/nios2eds/bin/gnu/h-i686-mingw32/bin/../lib/gcc/nios2-elf/4.1.2\libgcc.a(_div_sf.o)
 .debug_frame   0x00001074       0x28 c:/altera/11.1/nios2eds/bin/gnu/h-i686-mingw32/bin/../lib/gcc/nios2-elf/4.1.2\libgcc.a(_sf_to_df.o)
 .debug_frame   0x0000109c       0x2c c:/altera/11.1/nios2eds/bin/gnu/h-i686-mingw32/bin/../lib/gcc/nios2-elf/4.1.2\libgcc.a(_usi_to_sf.o)
 .debug_frame   0x000010c8       0x30 c:/altera/11.1/nios2eds/bin/gnu/h-i686-mingw32/bin/../lib/gcc/nios2-elf/4.1.2\libgcc.a(_div_df.o)
 .debug_frame   0x000010f8       0x28 c:/altera/11.1/nios2eds/bin/gnu/h-i686-mingw32/bin/../lib/gcc/nios2-elf/4.1.2\libgcc.a(_make_df.o)
 .debug_frame   0x00001120       0x28 c:/altera/11.1/nios2eds/bin/gnu/h-i686-mingw32/bin/../lib/gcc/nios2-elf/4.1.2\libgcc.a(_df_to_sf.o)
 .debug_frame   0x00001148       0x70 c:/altera/11.1/nios2eds/bin/gnu/h-i686-mingw32/bin/../lib/gcc/nios2-elf/4.1.2\libgcc.a(lib2-divmod.o)
 .debug_frame   0x000011b8       0x2c c:/altera/11.1/nios2eds/bin/gnu/h-i686-mingw32/bin/../lib/gcc/nios2-elf/4.1.2\libgcc.a(_muldi3.o)
 .debug_frame   0x000011e4       0x20 c:/altera/11.1/nios2eds/bin/gnu/h-i686-mingw32/bin/../lib/gcc/nios2-elf/4.1.2\libgcc.a(_clzsi2.o)
 .debug_frame   0x00001204       0x20 c:/altera/11.1/nios2eds/bin/gnu/h-i686-mingw32/bin/../lib/gcc/nios2-elf/4.1.2\libgcc.a(_pack_sf.o)
 .debug_frame   0x00001224       0x20 c:/altera/11.1/nios2eds/bin/gnu/h-i686-mingw32/bin/../lib/gcc/nios2-elf/4.1.2\libgcc.a(_unpack_sf.o)
 .debug_frame   0x00001244       0x28 c:/altera/11.1/nios2eds/bin/gnu/h-i686-mingw32/bin/../lib/gcc/nios2-elf/4.1.2\libgcc.a(_make_sf.o)
 .debug_frame   0x0000126c       0x2c c:/altera/11.1/nios2eds/bin/gnu/h-i686-mingw32/bin/../lib/gcc/nios2-elf/4.1.2\libgcc.a(_pack_df.o)
 .debug_frame   0x00001298       0x20 c:/altera/11.1/nios2eds/bin/gnu/h-i686-mingw32/bin/../lib/gcc/nios2-elf/4.1.2\libgcc.a(_unpack_df.o)
 .debug_frame   0x000012b8       0x3c c:/altera/11.1/nios2eds/bin/gnu/h-i686-mingw32/bin/../lib/gcc/nios2-elf/4.1.2/../../../../nios2-elf/lib\libc.a(lib_a-fclose.o)
 .debug_frame   0x000012f4       0x40 c:/altera/11.1/nios2eds/bin/gnu/h-i686-mingw32/bin/../lib/gcc/nios2-elf/4.1.2/../../../../nios2-elf/lib\libc.a(lib_a-fflush.o)
 .debug_frame   0x00001334      0x118 c:/altera/11.1/nios2eds/bin/gnu/h-i686-mingw32/bin/../lib/gcc/nios2-elf/4.1.2/../../../../nios2-elf/lib\libc.a(lib_a-findfp.o)
 .debug_frame   0x0000144c       0x40 c:/altera/11.1/nios2eds/bin/gnu/h-i686-mingw32/bin/../lib/gcc/nios2-elf/4.1.2/../../../../nios2-elf/lib\libc.a(lib_a-fopen.o)
 .debug_frame   0x0000148c       0x4c c:/altera/11.1/nios2eds/bin/gnu/h-i686-mingw32/bin/../lib/gcc/nios2-elf/4.1.2/../../../../nios2-elf/lib\libc.a(lib_a-freer.o)
 .debug_frame   0x000014d8       0x48 c:/altera/11.1/nios2eds/bin/gnu/h-i686-mingw32/bin/../lib/gcc/nios2-elf/4.1.2/../../../../nios2-elf/lib\libc.a(lib_a-fseek.o)
 .debug_frame   0x00001520       0x2c c:/altera/11.1/nios2eds/bin/gnu/h-i686-mingw32/bin/../lib/gcc/nios2-elf/4.1.2/../../../../nios2-elf/lib\libc.a(lib_a-fstatr.o)
 .debug_frame   0x0000154c       0x60 c:/altera/11.1/nios2eds/bin/gnu/h-i686-mingw32/bin/../lib/gcc/nios2-elf/4.1.2/../../../../nios2-elf/lib\libc.a(lib_a-fwalk.o)
 .debug_frame   0x000015ac       0x48 c:/altera/11.1/nios2eds/bin/gnu/h-i686-mingw32/bin/../lib/gcc/nios2-elf/4.1.2/../../../../nios2-elf/lib\libc.a(lib_a-fwrite.o)
 .debug_frame   0x000015f4       0x2c c:/altera/11.1/nios2eds/bin/gnu/h-i686-mingw32/bin/../lib/gcc/nios2-elf/4.1.2/../../../../nios2-elf/lib\libc.a(lib_a-makebuf.o)
 .debug_frame   0x00001620       0x30 c:/altera/11.1/nios2eds/bin/gnu/h-i686-mingw32/bin/../lib/gcc/nios2-elf/4.1.2/../../../../nios2-elf/lib\libc.a(lib_a-malloc.o)
 .debug_frame   0x00001650       0x38 c:/altera/11.1/nios2eds/bin/gnu/h-i686-mingw32/bin/../lib/gcc/nios2-elf/4.1.2/../../../../nios2-elf/lib\libc.a(lib_a-mallocr.o)
 .debug_frame   0x00001688       0x20 c:/altera/11.1/nios2eds/bin/gnu/h-i686-mingw32/bin/../lib/gcc/nios2-elf/4.1.2/../../../../nios2-elf/lib\libc.a(lib_a-memcpy.o)
 .debug_frame   0x000016a8       0x20 c:/altera/11.1/nios2eds/bin/gnu/h-i686-mingw32/bin/../lib/gcc/nios2-elf/4.1.2/../../../../nios2-elf/lib\libc.a(lib_a-memset.o)
 .debug_frame   0x000016c8       0x2c c:/altera/11.1/nios2eds/bin/gnu/h-i686-mingw32/bin/../lib/gcc/nios2-elf/4.1.2/../../../../nios2-elf/lib\libc.a(lib_a-openr.o)
 .debug_frame   0x000016f4       0x40 c:/altera/11.1/nios2eds/bin/gnu/h-i686-mingw32/bin/../lib/gcc/nios2-elf/4.1.2/../../../../nios2-elf/lib\libc.a(lib_a-printf.o)
 .debug_frame   0x00001734       0x30 c:/altera/11.1/nios2eds/bin/gnu/h-i686-mingw32/bin/../lib/gcc/nios2-elf/4.1.2/../../../../nios2-elf/lib\libc.a(lib_a-putchar.o)
 .debug_frame   0x00001764       0x3c c:/altera/11.1/nios2eds/bin/gnu/h-i686-mingw32/bin/../lib/gcc/nios2-elf/4.1.2/../../../../nios2-elf/lib\libc.a(lib_a-puts.o)
 .debug_frame   0x000017a0       0x3c c:/altera/11.1/nios2eds/bin/gnu/h-i686-mingw32/bin/../lib/gcc/nios2-elf/4.1.2/../../../../nios2-elf/lib\libc.a(lib_a-refill.o)
 .debug_frame   0x000017dc       0x2c c:/altera/11.1/nios2eds/bin/gnu/h-i686-mingw32/bin/../lib/gcc/nios2-elf/4.1.2/../../../../nios2-elf/lib\libc.a(lib_a-sbrkr.o)
 .debug_frame   0x00001808       0x40 c:/altera/11.1/nios2eds/bin/gnu/h-i686-mingw32/bin/../lib/gcc/nios2-elf/4.1.2/../../../../nios2-elf/lib\libc.a(lib_a-sprintf.o)
 .debug_frame   0x00001848       0x78 c:/altera/11.1/nios2eds/bin/gnu/h-i686-mingw32/bin/../lib/gcc/nios2-elf/4.1.2/../../../../nios2-elf/lib\libc.a(lib_a-stdio.o)
 .debug_frame   0x000018c0       0x20 c:/altera/11.1/nios2eds/bin/gnu/h-i686-mingw32/bin/../lib/gcc/nios2-elf/4.1.2/../../../../nios2-elf/lib\libc.a(lib_a-strcasecmp.o)
 .debug_frame   0x000018e0       0x20 c:/altera/11.1/nios2eds/bin/gnu/h-i686-mingw32/bin/../lib/gcc/nios2-elf/4.1.2/../../../../nios2-elf/lib\libc.a(lib_a-strcmp.o)
 .debug_frame   0x00001900       0x20 c:/altera/11.1/nios2eds/bin/gnu/h-i686-mingw32/bin/../lib/gcc/nios2-elf/4.1.2/../../../../nios2-elf/lib\libc.a(lib_a-strcpy.o)
 .debug_frame   0x00001920       0x20 c:/altera/11.1/nios2eds/bin/gnu/h-i686-mingw32/bin/../lib/gcc/nios2-elf/4.1.2/../../../../nios2-elf/lib\libc.a(lib_a-strlen.o)
 .debug_frame   0x00001940       0x64 c:/altera/11.1/nios2eds/bin/gnu/h-i686-mingw32/bin/../lib/gcc/nios2-elf/4.1.2/../../../../nios2-elf/lib\libc.a(lib_a-vfprintf.o)
 .debug_frame   0x000019a4       0x44 c:/altera/11.1/nios2eds/bin/gnu/h-i686-mingw32/bin/../lib/gcc/nios2-elf/4.1.2/../../../../nios2-elf/lib\libc.a(lib_a-vsnprintf.o)
 .debug_frame   0x000019e8       0x2c c:/altera/11.1/nios2eds/bin/gnu/h-i686-mingw32/bin/../lib/gcc/nios2-elf/4.1.2/../../../../nios2-elf/lib\libc.a(lib_a-writer.o)
 .debug_frame   0x00001a14       0x2c c:/altera/11.1/nios2eds/bin/gnu/h-i686-mingw32/bin/../lib/gcc/nios2-elf/4.1.2/../../../../nios2-elf/lib\libc.a(lib_a-wsetup.o)
 .debug_frame   0x00001a40       0x2c c:/altera/11.1/nios2eds/bin/gnu/h-i686-mingw32/bin/../lib/gcc/nios2-elf/4.1.2/../../../../nios2-elf/lib\libc.a(lib_a-closer.o)
 .debug_frame   0x00001a6c       0x64 c:/altera/11.1/nios2eds/bin/gnu/h-i686-mingw32/bin/../lib/gcc/nios2-elf/4.1.2/../../../../nios2-elf/lib\libc.a(lib_a-dtoa.o)
 .debug_frame   0x00001ad0       0x20 c:/altera/11.1/nios2eds/bin/gnu/h-i686-mingw32/bin/../lib/gcc/nios2-elf/4.1.2/../../../../nios2-elf/lib\libc.a(lib_a-flags.o)
 .debug_frame   0x00001af0       0x38 c:/altera/11.1/nios2eds/bin/gnu/h-i686-mingw32/bin/../lib/gcc/nios2-elf/4.1.2/../../../../nios2-elf/lib\libc.a(lib_a-fvwrite.o)
 .debug_frame   0x00001b28       0x2c c:/altera/11.1/nios2eds/bin/gnu/h-i686-mingw32/bin/../lib/gcc/nios2-elf/4.1.2/../../../../nios2-elf/lib\libc.a(lib_a-isattyr.o)
 .debug_frame   0x00001b54       0x70 c:/altera/11.1/nios2eds/bin/gnu/h-i686-mingw32/bin/../lib/gcc/nios2-elf/4.1.2/../../../../nios2-elf/lib\libc.a(lib_a-locale.o)
 .debug_frame   0x00001bc4       0x2c c:/altera/11.1/nios2eds/bin/gnu/h-i686-mingw32/bin/../lib/gcc/nios2-elf/4.1.2/../../../../nios2-elf/lib\libc.a(lib_a-lseekr.o)
 .debug_frame   0x00001bf0       0x20 c:/altera/11.1/nios2eds/bin/gnu/h-i686-mingw32/bin/../lib/gcc/nios2-elf/4.1.2/../../../../nios2-elf/lib\libc.a(lib_a-memchr.o)
 .debug_frame   0x00001c10       0x20 c:/altera/11.1/nios2eds/bin/gnu/h-i686-mingw32/bin/../lib/gcc/nios2-elf/4.1.2/../../../../nios2-elf/lib\libc.a(lib_a-memmove.o)
 .debug_frame   0x00001c30      0x218 c:/altera/11.1/nios2eds/bin/gnu/h-i686-mingw32/bin/../lib/gcc/nios2-elf/4.1.2/../../../../nios2-elf/lib\libc.a(lib_a-mprec.o)
 .debug_frame   0x00001e48       0x4c c:/altera/11.1/nios2eds/bin/gnu/h-i686-mingw32/bin/../lib/gcc/nios2-elf/4.1.2/../../../../nios2-elf/lib\libc.a(lib_a-putc.o)
 .debug_frame   0x00001e94       0x2c c:/altera/11.1/nios2eds/bin/gnu/h-i686-mingw32/bin/../lib/gcc/nios2-elf/4.1.2/../../../../nios2-elf/lib\libc.a(lib_a-readr.o)
 .debug_frame   0x00001ec0       0x38 c:/altera/11.1/nios2eds/bin/gnu/h-i686-mingw32/bin/../lib/gcc/nios2-elf/4.1.2/../../../../nios2-elf/lib\libc.a(lib_a-reallocr.o)
 .debug_frame   0x00001ef8       0x20 c:/altera/11.1/nios2eds/bin/gnu/h-i686-mingw32/bin/../lib/gcc/nios2-elf/4.1.2/../../../../nios2-elf/lib\libc.a(lib_a-s_isinfd.o)
 .debug_frame   0x00001f18       0x20 c:/altera/11.1/nios2eds/bin/gnu/h-i686-mingw32/bin/../lib/gcc/nios2-elf/4.1.2/../../../../nios2-elf/lib\libc.a(lib_a-s_isnand.o)
 .debug_frame   0x00001f38       0x3c c:/altera/11.1/nios2eds/bin/gnu/h-i686-mingw32/bin/../lib/gcc/nios2-elf/4.1.2/../../../../nios2-elf/lib\libc.a(lib_a-wbuf.o)
 .debug_frame   0x00001f74       0x28 c:/altera/11.1/nios2eds/bin/gnu/h-i686-mingw32/bin/../lib/gcc/nios2-elf/4.1.2/../../../../nios2-elf/lib\libc.a(lib_a-callocr.o)
 .debug_frame   0x00001f9c       0x38 c:/altera/11.1/nios2eds/bin/gnu/h-i686-mingw32/bin/../lib/gcc/nios2-elf/4.1.2\libgcc.a(_udivdi3.o)
 .debug_frame   0x00001fd4       0x38 c:/altera/11.1/nios2eds/bin/gnu/h-i686-mingw32/bin/../lib/gcc/nios2-elf/4.1.2\libgcc.a(_umoddi3.o)
 .debug_frame   0x0000200c       0x70 c:/altera/11.1/nios2eds/bin/gnu/h-i686-mingw32/bin/../lib/gcc/nios2-elf/4.1.2\libgcc.a(_addsub_df.o)
 .debug_frame   0x0000207c       0x3c c:/altera/11.1/nios2eds/bin/gnu/h-i686-mingw32/bin/../lib/gcc/nios2-elf/4.1.2\libgcc.a(_mul_df.o)
 .debug_frame   0x000020b8       0x2c c:/altera/11.1/nios2eds/bin/gnu/h-i686-mingw32/bin/../lib/gcc/nios2-elf/4.1.2\libgcc.a(_eq_df.o)
 .debug_frame   0x000020e4       0x2c c:/altera/11.1/nios2eds/bin/gnu/h-i686-mingw32/bin/../lib/gcc/nios2-elf/4.1.2\libgcc.a(_ne_df.o)
 .debug_frame   0x00002110       0x2c c:/altera/11.1/nios2eds/bin/gnu/h-i686-mingw32/bin/../lib/gcc/nios2-elf/4.1.2\libgcc.a(_gt_df.o)
 .debug_frame   0x0000213c       0x2c c:/altera/11.1/nios2eds/bin/gnu/h-i686-mingw32/bin/../lib/gcc/nios2-elf/4.1.2\libgcc.a(_ge_df.o)
 .debug_frame   0x00002168       0x2c c:/altera/11.1/nios2eds/bin/gnu/h-i686-mingw32/bin/../lib/gcc/nios2-elf/4.1.2\libgcc.a(_lt_df.o)
 .debug_frame   0x00002194       0x30 c:/altera/11.1/nios2eds/bin/gnu/h-i686-mingw32/bin/../lib/gcc/nios2-elf/4.1.2\libgcc.a(_si_to_df.o)
 .debug_frame   0x000021c4       0x28 c:/altera/11.1/nios2eds/bin/gnu/h-i686-mingw32/bin/../lib/gcc/nios2-elf/4.1.2\libgcc.a(_df_to_si.o)
 .debug_frame   0x000021ec       0x38 c:/altera/11.1/nios2eds/bin/gnu/h-i686-mingw32/bin/../lib/gcc/nios2-elf/4.1.2\libgcc.a(_usi_to_df.o)
 .debug_frame   0x00002224       0x20 c:/altera/11.1/nios2eds/bin/gnu/h-i686-mingw32/bin/../lib/gcc/nios2-elf/4.1.2\libgcc.a(_fpcmp_parts_df.o)
 .debug_frame   0x00002244       0x48 ../DE2_SD_Card_Audio_bsp/\libhal_bsp.a(alt_close.o)
 .debug_frame   0x0000228c       0x2c ../DE2_SD_Card_Audio_bsp/\libhal_bsp.a(alt_dev.o)
 .debug_frame   0x000022b8       0x48 ../DE2_SD_Card_Audio_bsp/\libhal_bsp.a(alt_fstat.o)
 .debug_frame   0x00002300       0x2c ../DE2_SD_Card_Audio_bsp/\libhal_bsp.a(alt_irq_register.o)
 .debug_frame   0x0000232c       0x48 ../DE2_SD_Card_Audio_bsp/\libhal_bsp.a(alt_isatty.o)
 .debug_frame   0x00002374       0x48 ../DE2_SD_Card_Audio_bsp/\libhal_bsp.a(alt_load.o)
 .debug_frame   0x000023bc       0x48 ../DE2_SD_Card_Audio_bsp/\libhal_bsp.a(alt_lseek.o)
 .debug_frame   0x00002404       0x2c ../DE2_SD_Card_Audio_bsp/\libhal_bsp.a(alt_main.o)
 .debug_frame   0x00002430       0x48 ../DE2_SD_Card_Audio_bsp/\libhal_bsp.a(alt_malloc_lock.o)
 .debug_frame   0x00002478       0x64 ../DE2_SD_Card_Audio_bsp/\libhal_bsp.a(alt_open.o)
 .debug_frame   0x000024dc       0x48 ../DE2_SD_Card_Audio_bsp/\libhal_bsp.a(alt_read.o)
 .debug_frame   0x00002524       0x2c ../DE2_SD_Card_Audio_bsp/\libhal_bsp.a(alt_release_fd.o)
 .debug_frame   0x00002550       0x2c ../DE2_SD_Card_Audio_bsp/\libhal_bsp.a(alt_sbrk.o)
 .debug_frame   0x0000257c       0x48 ../DE2_SD_Card_Audio_bsp/\libhal_bsp.a(alt_tick.o)
 .debug_frame   0x000025c4       0x2c ../DE2_SD_Card_Audio_bsp/\libhal_bsp.a(alt_usleep.o)
 .debug_frame   0x000025f0       0x48 ../DE2_SD_Card_Audio_bsp/\libhal_bsp.a(alt_write.o)
 .debug_frame   0x00002638       0x64 ../DE2_SD_Card_Audio_bsp/\libhal_bsp.a(alt_sys_init.o)
 .debug_frame   0x0000269c       0xd4 ../DE2_SD_Card_Audio_bsp/\libhal_bsp.a(altera_avalon_cfi_flash.o)
 .debug_frame   0x00002770      0x210 ../DE2_SD_Card_Audio_bsp/\libhal_bsp.a(altera_avalon_cfi_flash_table.o)
 .debug_frame   0x00002980      0x128 ../DE2_SD_Card_Audio_bsp/\libhal_bsp.a(altera_avalon_epcs_flash_controller.o)
 .debug_frame   0x00002aa8       0x80 ../DE2_SD_Card_Audio_bsp/\libhal_bsp.a(altera_avalon_jtag_uart_fd.o)
 .debug_frame   0x00002b28       0x80 ../DE2_SD_Card_Audio_bsp/\libhal_bsp.a(altera_avalon_jtag_uart_init.o)
 .debug_frame   0x00002ba8       0x2c ../DE2_SD_Card_Audio_bsp/\libhal_bsp.a(altera_avalon_jtag_uart_ioctl.o)
 .debug_frame   0x00002bd4       0x2c ../DE2_SD_Card_Audio_bsp/\libhal_bsp.a(altera_avalon_jtag_uart_read.o)
 .debug_frame   0x00002c00       0x2c ../DE2_SD_Card_Audio_bsp/\libhal_bsp.a(altera_avalon_jtag_uart_write.o)
 .debug_frame   0x00002c2c      0x114 ../DE2_SD_Card_Audio_bsp/\libhal_bsp.a(altera_avalon_lcd_16207.o)
 .debug_frame   0x00002d40       0x2c ../DE2_SD_Card_Audio_bsp/\libhal_bsp.a(altera_avalon_lcd_16207_fd.o)
 .debug_frame   0x00002d6c       0x48 ../DE2_SD_Card_Audio_bsp/\libhal_bsp.a(altera_avalon_timer_sc.o)
 .debug_frame   0x00002db4       0x64 ../DE2_SD_Card_Audio_bsp/\libhal_bsp.a(altera_avalon_uart_fd.o)
 .debug_frame   0x00002e18       0x9c ../DE2_SD_Card_Audio_bsp/\libhal_bsp.a(altera_avalon_uart_init.o)
 .debug_frame   0x00002eb4       0x48 ../DE2_SD_Card_Audio_bsp/\libhal_bsp.a(altera_avalon_uart_read.o)
 .debug_frame   0x00002efc       0x48 ../DE2_SD_Card_Audio_bsp/\libhal_bsp.a(altera_avalon_uart_write.o)
 .debug_frame   0x00002f44      0x128 ../DE2_SD_Card_Audio_bsp/\libhal_bsp.a(epcs_commands.o)
 .debug_frame   0x0000306c       0x2c ../DE2_SD_Card_Audio_bsp/\libhal_bsp.a(alt_alarm_start.o)
 .debug_frame   0x00003098       0x2c ../DE2_SD_Card_Audio_bsp/\libhal_bsp.a(alt_busy_sleep.o)
 .debug_frame   0x000030c4       0x2c ../DE2_SD_Card_Audio_bsp/\libhal_bsp.a(alt_dcache_flush.o)
 .debug_frame   0x000030f0       0x2c ../DE2_SD_Card_Audio_bsp/\libhal_bsp.a(alt_dcache_flush_all.o)
 .debug_frame   0x0000311c       0x48 ../DE2_SD_Card_Audio_bsp/\libhal_bsp.a(alt_dev_llist_insert.o)
 .debug_frame   0x00003164       0x2c ../DE2_SD_Card_Audio_bsp/\libhal_bsp.a(alt_do_ctors.o)
 .debug_frame   0x00003190       0x2c ../DE2_SD_Card_Audio_bsp/\libhal_bsp.a(alt_do_dtors.o)
 .debug_frame   0x000031bc       0x2c ../DE2_SD_Card_Audio_bsp/\libhal_bsp.a(alt_find_dev.o)
 .debug_frame   0x000031e8       0x2c ../DE2_SD_Card_Audio_bsp/\libhal_bsp.a(alt_find_file.o)
 .debug_frame   0x00003214       0x48 ../DE2_SD_Card_Audio_bsp/\libhal_bsp.a(alt_flash_dev.o)
 .debug_frame   0x0000325c       0x2c ../DE2_SD_Card_Audio_bsp/\libhal_bsp.a(alt_get_fd.o)
 .debug_frame   0x00003288       0x2c ../DE2_SD_Card_Audio_bsp/\libhal_bsp.a(alt_icache_flush_all.o)
 .debug_frame   0x000032b4       0x80 ../DE2_SD_Card_Audio_bsp/\libhal_bsp.a(alt_iic.o)
 .debug_frame   0x00003334       0x2c ../DE2_SD_Card_Audio_bsp/\libhal_bsp.a(alt_iic_isr_register.o)
 .debug_frame   0x00003360       0x48 ../DE2_SD_Card_Audio_bsp/\libhal_bsp.a(alt_io_redirect.o)
 .debug_frame   0x000033a8       0x2c ../DE2_SD_Card_Audio_bsp/\libhal_bsp.a(alt_irq_handler.o)
 .debug_frame   0x000033d4       0x2c ../DE2_SD_Card_Audio_bsp/\libhal_bsp.a(altera_nios2_qsys_irq.o)
 .debug_frame   0x00003400       0x80 ../DE2_SD_Card_Audio_bsp/\libhal_bsp.a(altera_avalon_cfi_flash_amd.o)
 .debug_frame   0x00003480       0x80 ../DE2_SD_Card_Audio_bsp/\libhal_bsp.a(altera_avalon_cfi_flash_intel.o)
 .debug_frame   0x00003500       0x2c ../DE2_SD_Card_Audio_bsp/\libhal_bsp.a(altera_avalon_spi.o)
 .debug_frame   0x0000352c       0x2c ../DE2_SD_Card_Audio_bsp/\libhal_bsp.a(alt_icache_flush.o)
 .debug_frame   0x00003558       0x20 c:/altera/11.1/nios2eds/bin/gnu/h-i686-mingw32/bin/../lib/gcc/nios2-elf/4.1.2/../../../../nios2-elf/lib\libc.a(lib_a-atexit.o)
 .debug_frame   0x00003578       0x28 c:/altera/11.1/nios2eds/bin/gnu/h-i686-mingw32/bin/../lib/gcc/nios2-elf/4.1.2/../../../../nios2-elf/lib\libc.a(lib_a-exit.o)
 .debug_frame   0x000035a0       0x20 c:/altera/11.1/nios2eds/bin/gnu/h-i686-mingw32/bin/../lib/gcc/nios2-elf/4.1.2/../../../../nios2-elf/lib\libc.a(lib_a-memcmp.o)
 .debug_frame   0x000035c0       0x34 c:/altera/11.1/nios2eds/bin/gnu/h-i686-mingw32/bin/../lib/gcc/nios2-elf/4.1.2/../../../../nios2-elf/lib\libc.a(lib_a-__atexit.o)
 .debug_frame   0x000035f4       0x4c c:/altera/11.1/nios2eds/bin/gnu/h-i686-mingw32/bin/../lib/gcc/nios2-elf/4.1.2/../../../../nios2-elf/lib\libc.a(lib_a-__call_atexit.o)
 .debug_frame   0x00003640       0x48 ../DE2_SD_Card_Audio_bsp/\libhal_bsp.a(alt_exit.o)

.debug_str      0x00000000     0x2f04
 *(.debug_str)
 .debug_str     0x00000000       0x77 obj/default/main.o
 .debug_str     0x00000077       0xe7 obj/default/terasic_fat/FatFileSystem.o
 .debug_str     0x0000015e       0xc4 obj/default/terasic_fat/FatInternal.o
 .debug_str     0x00000222       0x44 obj/default/terasic_lib/AUDIO.o
 .debug_str     0x00000266       0x45 obj/default/terasic_lib/I2C.o
 .debug_str     0x000002ab       0x20 obj/default/terasic_lib/LCD.o
 .debug_str     0x000002cb       0x12 obj/default/terasic_lib/LED.o
 .debug_str     0x000002dd       0x26 obj/default/terasic_lib/SEG7.o
 .debug_str     0x00000303       0x36 obj/default/terasic_lib/WaveLib.o
 .debug_str     0x00000339       0x19 obj/default/terasic_lib/debug.o
 .debug_str     0x00000352       0x12 obj/default/terasic_sdcard/crc16.o
 .debug_str     0x00000364       0x12 obj/default/terasic_sdcard/crc7.o
 .debug_str     0x00000376       0x1b obj/default/terasic_sdcard/sd_hal.o
 .debug_str     0x00000391       0x28 obj/default/terasic_sdcard/sd_lib.o
 .debug_str     0x000003b9       0x75 obj/default/terasic_sdcard/sd_protocol.o
 .debug_str     0x0000042e      0x1c2 c:/altera/11.1/nios2eds/bin/gnu/h-i686-mingw32/bin/../lib/gcc/nios2-elf/4.1.2\libgcc.a(_mul_sf.o)
                                0x220 (size before relaxing)
 .debug_str     0x000005f0       0x35 c:/altera/11.1/nios2eds/bin/gnu/h-i686-mingw32/bin/../lib/gcc/nios2-elf/4.1.2\libgcc.a(_div_sf.o)
                                0x22b (size before relaxing)
 .debug_str     0x00000625       0x15 c:/altera/11.1/nios2eds/bin/gnu/h-i686-mingw32/bin/../lib/gcc/nios2-elf/4.1.2\libgcc.a(_sf_to_df.o)
                                0x1f2 (size before relaxing)
 .debug_str     0x00000000      0x1a3 c:/altera/11.1/nios2eds/bin/gnu/h-i686-mingw32/bin/../lib/gcc/nios2-elf/4.1.2\libgcc.a(_thenan_sf.o)
 .debug_str     0x0000063a       0x1b c:/altera/11.1/nios2eds/bin/gnu/h-i686-mingw32/bin/../lib/gcc/nios2-elf/4.1.2\libgcc.a(_usi_to_sf.o)
                                0x1da (size before relaxing)
 .debug_str     0x00000655       0x24 c:/altera/11.1/nios2eds/bin/gnu/h-i686-mingw32/bin/../lib/gcc/nios2-elf/4.1.2\libgcc.a(_div_df.o)
                                0x231 (size before relaxing)
 .debug_str     0x00000679        0xa c:/altera/11.1/nios2eds/bin/gnu/h-i686-mingw32/bin/../lib/gcc/nios2-elf/4.1.2\libgcc.a(_make_df.o)
                                0x1b9 (size before relaxing)
 .debug_str     0x00000683       0x14 c:/altera/11.1/nios2eds/bin/gnu/h-i686-mingw32/bin/../lib/gcc/nios2-elf/4.1.2\libgcc.a(_df_to_sf.o)
                                0x1fe (size before relaxing)
 .debug_str     0x00000000      0x1a3 c:/altera/11.1/nios2eds/bin/gnu/h-i686-mingw32/bin/../lib/gcc/nios2-elf/4.1.2\libgcc.a(_thenan_df.o)
 .debug_str     0x00000697       0xa1 c:/altera/11.1/nios2eds/bin/gnu/h-i686-mingw32/bin/../lib/gcc/nios2-elf/4.1.2\libgcc.a(lib2-divmod.o)
                                0x1b4 (size before relaxing)
 .debug_str     0x00000738       0x62 c:/altera/11.1/nios2eds/bin/gnu/h-i686-mingw32/bin/../lib/gcc/nios2-elf/4.1.2\libgcc.a(_muldi3.o)
                                0x1ac (size before relaxing)
 .debug_str     0x0000079a       0x20 c:/altera/11.1/nios2eds/bin/gnu/h-i686-mingw32/bin/../lib/gcc/nios2-elf/4.1.2\libgcc.a(_clzsi2.o)
                                0x17e (size before relaxing)
 .debug_str     0x000007ba       0x10 c:/altera/11.1/nios2eds/bin/gnu/h-i686-mingw32/bin/../lib/gcc/nios2-elf/4.1.2\libgcc.a(_pack_sf.o)
                                0x200 (size before relaxing)
 .debug_str     0x000007ca        0xb c:/altera/11.1/nios2eds/bin/gnu/h-i686-mingw32/bin/../lib/gcc/nios2-elf/4.1.2\libgcc.a(_unpack_sf.o)
                                0x1e2 (size before relaxing)
 .debug_str     0x000007d5        0xa c:/altera/11.1/nios2eds/bin/gnu/h-i686-mingw32/bin/../lib/gcc/nios2-elf/4.1.2\libgcc.a(_make_sf.o)
                                0x1b9 (size before relaxing)
 .debug_str     0x000007df        0x9 c:/altera/11.1/nios2eds/bin/gnu/h-i686-mingw32/bin/../lib/gcc/nios2-elf/4.1.2\libgcc.a(_pack_df.o)
                                0x206 (size before relaxing)
 .debug_str     0x000007e8        0xb c:/altera/11.1/nios2eds/bin/gnu/h-i686-mingw32/bin/../lib/gcc/nios2-elf/4.1.2\libgcc.a(_unpack_df.o)
                                0x1e8 (size before relaxing)
 .debug_str     0x00000000      0x161 c:/altera/11.1/nios2eds/bin/gnu/h-i686-mingw32/bin/../lib/gcc/nios2-elf/4.1.2\libgcc.a(_clz.o)
 .debug_str     0x000007f3      0x43c c:/altera/11.1/nios2eds/bin/gnu/h-i686-mingw32/bin/../lib/gcc/nios2-elf/4.1.2/../../../../nios2-elf/lib\libc.a(lib_a-fclose.o)
                                0x516 (size before relaxing)
 .debug_str     0x00000c2f       0x65 c:/altera/11.1/nios2eds/bin/gnu/h-i686-mingw32/bin/../lib/gcc/nios2-elf/4.1.2/../../../../nios2-elf/lib\libc.a(lib_a-fflush.o)
                                0x532 (size before relaxing)
 .debug_str     0x00000c94      0x102 c:/altera/11.1/nios2eds/bin/gnu/h-i686-mingw32/bin/../lib/gcc/nios2-elf/4.1.2/../../../../nios2-elf/lib\libc.a(lib_a-findfp.o)
                                0x5f4 (size before relaxing)
 .debug_str     0x00000d96       0x4f c:/altera/11.1/nios2eds/bin/gnu/h-i686-mingw32/bin/../lib/gcc/nios2-elf/4.1.2/../../../../nios2-elf/lib\libc.a(lib_a-fopen.o)
                                0x525 (size before relaxing)
 .debug_str     0x00000de5      0x1e7 c:/altera/11.1/nios2eds/bin/gnu/h-i686-mingw32/bin/../lib/gcc/nios2-elf/4.1.2/../../../../nios2-elf/lib\libc.a(lib_a-freer.o)
                                0x643 (size before relaxing)
 .debug_str     0x00000fcc      0x13a c:/altera/11.1/nios2eds/bin/gnu/h-i686-mingw32/bin/../lib/gcc/nios2-elf/4.1.2/../../../../nios2-elf/lib\libc.a(lib_a-fseek.o)
                                0x632 (size before relaxing)
 .debug_str     0x00001106       0xd4 c:/altera/11.1/nios2eds/bin/gnu/h-i686-mingw32/bin/../lib/gcc/nios2-elf/4.1.2/../../../../nios2-elf/lib\libc.a(lib_a-fstatr.o)
                                0x5f1 (size before relaxing)
 .debug_str     0x000011da       0x5e c:/altera/11.1/nios2eds/bin/gnu/h-i686-mingw32/bin/../lib/gcc/nios2-elf/4.1.2/../../../../nios2-elf/lib\libc.a(lib_a-fwalk.o)
                                0x535 (size before relaxing)
 .debug_str     0x00001238       0x87 c:/altera/11.1/nios2eds/bin/gnu/h-i686-mingw32/bin/../lib/gcc/nios2-elf/4.1.2/../../../../nios2-elf/lib\libc.a(lib_a-fwrite.o)
                                0x55f (size before relaxing)
 .debug_str     0x000012bf       0x46 c:/altera/11.1/nios2eds/bin/gnu/h-i686-mingw32/bin/../lib/gcc/nios2-elf/4.1.2/../../../../nios2-elf/lib\libc.a(lib_a-impure.o)
                                0x51a (size before relaxing)
 .debug_str     0x00001305       0x3d c:/altera/11.1/nios2eds/bin/gnu/h-i686-mingw32/bin/../lib/gcc/nios2-elf/4.1.2/../../../../nios2-elf/lib\libc.a(lib_a-int_errno.o)
                                0x163 (size before relaxing)
 .debug_str     0x00001342       0x53 c:/altera/11.1/nios2eds/bin/gnu/h-i686-mingw32/bin/../lib/gcc/nios2-elf/4.1.2/../../../../nios2-elf/lib\libc.a(lib_a-makebuf.o)
                                0x606 (size before relaxing)
 .debug_str     0x00001395       0x47 c:/altera/11.1/nios2eds/bin/gnu/h-i686-mingw32/bin/../lib/gcc/nios2-elf/4.1.2/../../../../nios2-elf/lib\libc.a(lib_a-malloc.o)
                                0x51c (size before relaxing)
 .debug_str     0x000013dc       0xe9 c:/altera/11.1/nios2eds/bin/gnu/h-i686-mingw32/bin/../lib/gcc/nios2-elf/4.1.2/../../../../nios2-elf/lib\libc.a(lib_a-mallocr.o)
                                0x6f1 (size before relaxing)
 .debug_str     0x000014c5       0xf5 c:/altera/11.1/nios2eds/bin/gnu/h-i686-mingw32/bin/../lib/gcc/nios2-elf/4.1.2/../../../../nios2-elf/lib\libc.a(lib_a-memcpy.o)
                                0x128 (size before relaxing)
 .debug_str     0x000015ba       0x56 c:/altera/11.1/nios2eds/bin/gnu/h-i686-mingw32/bin/../lib/gcc/nios2-elf/4.1.2/../../../../nios2-elf/lib\libc.a(lib_a-memset.o)
                                0x17e (size before relaxing)
 .debug_str     0x00001610       0x41 c:/altera/11.1/nios2eds/bin/gnu/h-i686-mingw32/bin/../lib/gcc/nios2-elf/4.1.2/../../../../nios2-elf/lib\libc.a(lib_a-openr.o)
                                0x50c (size before relaxing)
 .debug_str     0x00001651       0x53 c:/altera/11.1/nios2eds/bin/gnu/h-i686-mingw32/bin/../lib/gcc/nios2-elf/4.1.2/../../../../nios2-elf/lib\libc.a(lib_a-printf.o)
                                0x523 (size before relaxing)
 .debug_str     0x000016a4       0x4e c:/altera/11.1/nios2eds/bin/gnu/h-i686-mingw32/bin/../lib/gcc/nios2-elf/4.1.2/../../../../nios2-elf/lib\libc.a(lib_a-putchar.o)
                                0x50f (size before relaxing)
 .debug_str     0x000016f2       0x45 c:/altera/11.1/nios2eds/bin/gnu/h-i686-mingw32/bin/../lib/gcc/nios2-elf/4.1.2/../../../../nios2-elf/lib\libc.a(lib_a-puts.o)
                                0x549 (size before relaxing)
 .debug_str     0x00001737       0x4d c:/altera/11.1/nios2eds/bin/gnu/h-i686-mingw32/bin/../lib/gcc/nios2-elf/4.1.2/../../../../nios2-elf/lib\libc.a(lib_a-refill.o)
                                0x51a (size before relaxing)
 .debug_str     0x00001784       0x50 c:/altera/11.1/nios2eds/bin/gnu/h-i686-mingw32/bin/../lib/gcc/nios2-elf/4.1.2/../../../../nios2-elf/lib\libc.a(lib_a-sbrkr.o)
                                0x50b (size before relaxing)
 .debug_str     0x000017d4       0x4e c:/altera/11.1/nios2eds/bin/gnu/h-i686-mingw32/bin/../lib/gcc/nios2-elf/4.1.2/../../../../nios2-elf/lib\libc.a(lib_a-sprintf.o)
                                0x52b (size before relaxing)
 .debug_str     0x00001822       0x5b c:/altera/11.1/nios2eds/bin/gnu/h-i686-mingw32/bin/../lib/gcc/nios2-elf/4.1.2/../../../../nios2-elf/lib\libc.a(lib_a-stdio.o)
                                0x531 (size before relaxing)
 .debug_str     0x0000187d       0x56 c:/altera/11.1/nios2eds/bin/gnu/h-i686-mingw32/bin/../lib/gcc/nios2-elf/4.1.2/../../../../nios2-elf/lib\libc.a(lib_a-strcasecmp.o)
                                0x177 (size before relaxing)
 .debug_str     0x000018d3       0x42 c:/altera/11.1/nios2eds/bin/gnu/h-i686-mingw32/bin/../lib/gcc/nios2-elf/4.1.2/../../../../nios2-elf/lib\libc.a(lib_a-strcmp.o)
                                0x163 (size before relaxing)
 .debug_str     0x00001915       0x42 c:/altera/11.1/nios2eds/bin/gnu/h-i686-mingw32/bin/../lib/gcc/nios2-elf/4.1.2/../../../../nios2-elf/lib\libc.a(lib_a-strcpy.o)
                                0x185 (size before relaxing)
 .debug_str     0x00001957       0x42 c:/altera/11.1/nios2eds/bin/gnu/h-i686-mingw32/bin/../lib/gcc/nios2-elf/4.1.2/../../../../nios2-elf/lib\libc.a(lib_a-strlen.o)
                                0x17d (size before relaxing)
 .debug_str     0x00001999      0x180 c:/altera/11.1/nios2eds/bin/gnu/h-i686-mingw32/bin/../lib/gcc/nios2-elf/4.1.2/../../../../nios2-elf/lib\libc.a(lib_a-vfprintf.o)
                                0x6f8 (size before relaxing)
 .debug_str     0x00001b19       0x54 c:/altera/11.1/nios2eds/bin/gnu/h-i686-mingw32/bin/../lib/gcc/nios2-elf/4.1.2/../../../../nios2-elf/lib\libc.a(lib_a-vsnprintf.o)
                                0x53d (size before relaxing)
 .debug_str     0x00001b6d       0x4c c:/altera/11.1/nios2eds/bin/gnu/h-i686-mingw32/bin/../lib/gcc/nios2-elf/4.1.2/../../../../nios2-elf/lib\libc.a(lib_a-writer.o)
                                0x50e (size before relaxing)
 .debug_str     0x00001bb9       0x46 c:/altera/11.1/nios2eds/bin/gnu/h-i686-mingw32/bin/../lib/gcc/nios2-elf/4.1.2/../../../../nios2-elf/lib\libc.a(lib_a-wsetup.o)
                                0x50c (size before relaxing)
 .debug_str     0x00001bff       0x43 c:/altera/11.1/nios2eds/bin/gnu/h-i686-mingw32/bin/../lib/gcc/nios2-elf/4.1.2/../../../../nios2-elf/lib\libc.a(lib_a-closer.o)
                                0x4fe (size before relaxing)
 .debug_str     0x00001c42       0xd6 c:/altera/11.1/nios2eds/bin/gnu/h-i686-mingw32/bin/../lib/gcc/nios2-elf/4.1.2/../../../../nios2-elf/lib\libc.a(lib_a-ctype_.o)
                                0x105 (size before relaxing)
 .debug_str     0x00001d18      0x102 c:/altera/11.1/nios2eds/bin/gnu/h-i686-mingw32/bin/../lib/gcc/nios2-elf/4.1.2/../../../../nios2-elf/lib\libc.a(lib_a-dtoa.o)
                                0x601 (size before relaxing)
 .debug_str     0x00001e1a       0x47 c:/altera/11.1/nios2eds/bin/gnu/h-i686-mingw32/bin/../lib/gcc/nios2-elf/4.1.2/../../../../nios2-elf/lib\libc.a(lib_a-flags.o)
                                0x501 (size before relaxing)
 .debug_str     0x00001e61       0x66 c:/altera/11.1/nios2eds/bin/gnu/h-i686-mingw32/bin/../lib/gcc/nios2-elf/4.1.2/../../../../nios2-elf/lib\libc.a(lib_a-fvwrite.o)
                                0x563 (size before relaxing)
 .debug_str     0x00001ec7       0x45 c:/altera/11.1/nios2eds/bin/gnu/h-i686-mingw32/bin/../lib/gcc/nios2-elf/4.1.2/../../../../nios2-elf/lib\libc.a(lib_a-isattyr.o)
                                0x500 (size before relaxing)
 .debug_str     0x00001f0c      0x225 c:/altera/11.1/nios2eds/bin/gnu/h-i686-mingw32/bin/../lib/gcc/nios2-elf/4.1.2/../../../../nios2-elf/lib\libc.a(lib_a-locale.o)
                                0x6a9 (size before relaxing)
 .debug_str     0x00002131       0x43 c:/altera/11.1/nios2eds/bin/gnu/h-i686-mingw32/bin/../lib/gcc/nios2-elf/4.1.2/../../../../nios2-elf/lib\libc.a(lib_a-lseekr.o)
                                0x50c (size before relaxing)
 .debug_str     0x00002174       0x55 c:/altera/11.1/nios2eds/bin/gnu/h-i686-mingw32/bin/../lib/gcc/nios2-elf/4.1.2/../../../../nios2-elf/lib\libc.a(lib_a-memchr.o)
                                0x18b (size before relaxing)
 .debug_str     0x000021c9       0x4d c:/altera/11.1/nios2eds/bin/gnu/h-i686-mingw32/bin/../lib/gcc/nios2-elf/4.1.2/../../../../nios2-elf/lib\libc.a(lib_a-memmove.o)
                                0x19d (size before relaxing)
 .debug_str     0x00002216       0xf8 c:/altera/11.1/nios2eds/bin/gnu/h-i686-mingw32/bin/../lib/gcc/nios2-elf/4.1.2/../../../../nios2-elf/lib\libc.a(lib_a-mprec.o)
                                0x60e (size before relaxing)
 .debug_str     0x0000230e       0x45 c:/altera/11.1/nios2eds/bin/gnu/h-i686-mingw32/bin/../lib/gcc/nios2-elf/4.1.2/../../../../nios2-elf/lib\libc.a(lib_a-putc.o)
                                0x512 (size before relaxing)
 .debug_str     0x00002353       0x41 c:/altera/11.1/nios2eds/bin/gnu/h-i686-mingw32/bin/../lib/gcc/nios2-elf/4.1.2/../../../../nios2-elf/lib\libc.a(lib_a-readr.o)
                                0x50c (size before relaxing)
 .debug_str     0x00002394       0x59 c:/altera/11.1/nios2eds/bin/gnu/h-i686-mingw32/bin/../lib/gcc/nios2-elf/4.1.2/../../../../nios2-elf/lib\libc.a(lib_a-reallocr.o)
                                0x5c3 (size before relaxing)
 .debug_str     0x000023ed       0xdc c:/altera/11.1/nios2eds/bin/gnu/h-i686-mingw32/bin/../lib/gcc/nios2-elf/4.1.2/../../../../nios2-elf/lib\libc.a(lib_a-s_isinfd.o)
                                0x18a (size before relaxing)
 .debug_str     0x000024c9       0x46 c:/altera/11.1/nios2eds/bin/gnu/h-i686-mingw32/bin/../lib/gcc/nios2-elf/4.1.2/../../../../nios2-elf/lib\libc.a(lib_a-s_isnand.o)
                                0x18a (size before relaxing)
 .debug_str     0x0000250f       0x4a c:/altera/11.1/nios2eds/bin/gnu/h-i686-mingw32/bin/../lib/gcc/nios2-elf/4.1.2/../../../../nios2-elf/lib\libc.a(lib_a-wbuf.o)
                                0x510 (size before relaxing)
 .debug_str     0x00002559       0x19 c:/altera/11.1/nios2eds/bin/gnu/h-i686-mingw32/bin/../lib/gcc/nios2-elf/4.1.2/../../../../nios2-elf/lib\libc.a(lib_a-callocr.o)
                                0x542 (size before relaxing)
 .debug_str     0x00002572       0x35 c:/altera/11.1/nios2eds/bin/gnu/h-i686-mingw32/bin/../lib/gcc/nios2-elf/4.1.2\libgcc.a(_udivdi3.o)
                                0x1f7 (size before relaxing)
 .debug_str     0x000025a7        0xa c:/altera/11.1/nios2eds/bin/gnu/h-i686-mingw32/bin/../lib/gcc/nios2-elf/4.1.2\libgcc.a(_umoddi3.o)
                                0x1f7 (size before relaxing)
 .debug_str     0x000025b1       0x67 c:/altera/11.1/nios2eds/bin/gnu/h-i686-mingw32/bin/../lib/gcc/nios2-elf/4.1.2\libgcc.a(_addsub_df.o)
                                0x26f (size before relaxing)
 .debug_str     0x00002618       0x33 c:/altera/11.1/nios2eds/bin/gnu/h-i686-mingw32/bin/../lib/gcc/nios2-elf/4.1.2\libgcc.a(_mul_df.o)
                                0x241 (size before relaxing)
 .debug_str     0x0000264b        0x8 c:/altera/11.1/nios2eds/bin/gnu/h-i686-mingw32/bin/../lib/gcc/nios2-elf/4.1.2\libgcc.a(_eq_df.o)
                                0x1fe (size before relaxing)
 .debug_str     0x00002653        0x8 c:/altera/11.1/nios2eds/bin/gnu/h-i686-mingw32/bin/../lib/gcc/nios2-elf/4.1.2\libgcc.a(_ne_df.o)
                                0x1fe (size before relaxing)
 .debug_str     0x0000265b        0x8 c:/altera/11.1/nios2eds/bin/gnu/h-i686-mingw32/bin/../lib/gcc/nios2-elf/4.1.2\libgcc.a(_gt_df.o)
                                0x1fe (size before relaxing)
 .debug_str     0x00002663        0x8 c:/altera/11.1/nios2eds/bin/gnu/h-i686-mingw32/bin/../lib/gcc/nios2-elf/4.1.2\libgcc.a(_ge_df.o)
                                0x1fe (size before relaxing)
 .debug_str     0x0000266b        0x8 c:/altera/11.1/nios2eds/bin/gnu/h-i686-mingw32/bin/../lib/gcc/nios2-elf/4.1.2\libgcc.a(_lt_df.o)
                                0x1fe (size before relaxing)
 .debug_str     0x00002673       0x11 c:/altera/11.1/nios2eds/bin/gnu/h-i686-mingw32/bin/../lib/gcc/nios2-elf/4.1.2\libgcc.a(_si_to_df.o)
                                0x1de (size before relaxing)
 .debug_str     0x00002684        0xa c:/altera/11.1/nios2eds/bin/gnu/h-i686-mingw32/bin/../lib/gcc/nios2-elf/4.1.2\libgcc.a(_df_to_si.o)
                                0x207 (size before relaxing)
 .debug_str     0x0000268e        0xe c:/altera/11.1/nios2eds/bin/gnu/h-i686-mingw32/bin/../lib/gcc/nios2-elf/4.1.2\libgcc.a(_usi_to_df.o)
                                0x1da (size before relaxing)
 .debug_str     0x0000269c       0x10 c:/altera/11.1/nios2eds/bin/gnu/h-i686-mingw32/bin/../lib/gcc/nios2-elf/4.1.2\libgcc.a(_fpcmp_parts_df.o)
                                0x1c6 (size before relaxing)
 .debug_str     0x000026ac       0x12 ../DE2_SD_Card_Audio_bsp/\libhal_bsp.a(alt_close.o)
 .debug_str     0x000026be       0x12 ../DE2_SD_Card_Audio_bsp/\libhal_bsp.a(alt_dev.o)
 .debug_str     0x000026d0       0x12 ../DE2_SD_Card_Audio_bsp/\libhal_bsp.a(alt_errno.o)
 .debug_str     0x000026e2       0x12 ../DE2_SD_Card_Audio_bsp/\libhal_bsp.a(alt_fstat.o)
 .debug_str     0x000026f4       0x21 ../DE2_SD_Card_Audio_bsp/\libhal_bsp.a(alt_irq_register.o)
 .debug_str     0x00002715       0x12 ../DE2_SD_Card_Audio_bsp/\libhal_bsp.a(alt_isatty.o)
 .debug_str     0x00002727       0x12 ../DE2_SD_Card_Audio_bsp/\libhal_bsp.a(alt_load.o)
 .debug_str     0x00002739       0x12 ../DE2_SD_Card_Audio_bsp/\libhal_bsp.a(alt_lseek.o)
 .debug_str     0x0000274b       0x12 ../DE2_SD_Card_Audio_bsp/\libhal_bsp.a(alt_main.o)
 .debug_str     0x0000275d       0x20 ../DE2_SD_Card_Audio_bsp/\libhal_bsp.a(alt_malloc_lock.o)
 .debug_str     0x0000277d       0x12 ../DE2_SD_Card_Audio_bsp/\libhal_bsp.a(alt_open.o)
 .debug_str     0x0000278f       0x12 ../DE2_SD_Card_Audio_bsp/\libhal_bsp.a(alt_read.o)
 .debug_str     0x000027a1       0x1a ../DE2_SD_Card_Audio_bsp/\libhal_bsp.a(alt_sbrk.o)
 .debug_str     0x000027bb       0x1a ../DE2_SD_Card_Audio_bsp/\libhal_bsp.a(alt_tick.o)
 .debug_str     0x000027d5       0x12 ../DE2_SD_Card_Audio_bsp/\libhal_bsp.a(alt_usleep.o)
 .debug_str     0x000027e7       0x12 ../DE2_SD_Card_Audio_bsp/\libhal_bsp.a(alt_write.o)
 .debug_str     0x000027f9       0x52 ../DE2_SD_Card_Audio_bsp/\libhal_bsp.a(alt_sys_init.o)
 .debug_str     0x0000284b       0x82 ../DE2_SD_Card_Audio_bsp/\libhal_bsp.a(altera_avalon_cfi_flash.o)
 .debug_str     0x000028cd       0x6d ../DE2_SD_Card_Audio_bsp/\libhal_bsp.a(altera_avalon_cfi_flash_table.o)
 .debug_str     0x0000293a       0x90 ../DE2_SD_Card_Audio_bsp/\libhal_bsp.a(altera_avalon_epcs_flash_controller.o)
 .debug_str     0x000029ca       0x12 ../DE2_SD_Card_Audio_bsp/\libhal_bsp.a(altera_avalon_jtag_uart_fd.o)
 .debug_str     0x000029dc       0x1a ../DE2_SD_Card_Audio_bsp/\libhal_bsp.a(altera_avalon_jtag_uart_init.o)
 .debug_str     0x000029f6       0x12 ../DE2_SD_Card_Audio_bsp/\libhal_bsp.a(altera_avalon_jtag_uart_ioctl.o)
 .debug_str     0x00002a08       0x1a ../DE2_SD_Card_Audio_bsp/\libhal_bsp.a(altera_avalon_jtag_uart_read.o)
 .debug_str     0x00002a22       0x1a ../DE2_SD_Card_Audio_bsp/\libhal_bsp.a(altera_avalon_jtag_uart_write.o)
 .debug_str     0x00002a3c       0x25 ../DE2_SD_Card_Audio_bsp/\libhal_bsp.a(altera_avalon_lcd_16207.o)
 .debug_str     0x00002a61       0x12 ../DE2_SD_Card_Audio_bsp/\libhal_bsp.a(altera_avalon_lcd_16207_fd.o)
 .debug_str     0x00002a73       0x12 ../DE2_SD_Card_Audio_bsp/\libhal_bsp.a(altera_avalon_timer_sc.o)
 .debug_str     0x00002a85       0x12 ../DE2_SD_Card_Audio_bsp/\libhal_bsp.a(altera_avalon_timer_vars.o)
 .debug_str     0x00002a97       0x12 ../DE2_SD_Card_Audio_bsp/\libhal_bsp.a(altera_avalon_uart_fd.o)
 .debug_str     0x00002aa9       0x19 ../DE2_SD_Card_Audio_bsp/\libhal_bsp.a(altera_avalon_uart_init.o)
 .debug_str     0x00002ac2       0x1a ../DE2_SD_Card_Audio_bsp/\libhal_bsp.a(altera_avalon_uart_read.o)
 .debug_str     0x00002adc       0x1a ../DE2_SD_Card_Audio_bsp/\libhal_bsp.a(altera_avalon_uart_write.o)
 .debug_str     0x00002af6       0x1e ../DE2_SD_Card_Audio_bsp/\libhal_bsp.a(epcs_commands.o)
 .debug_str     0x00002b14       0x23 ../DE2_SD_Card_Audio_bsp/\libhal_bsp.a(alt_alarm_start.o)
 .debug_str     0x00002b37       0x12 ../DE2_SD_Card_Audio_bsp/\libhal_bsp.a(alt_busy_sleep.o)
 .debug_str     0x00002b49       0x12 ../DE2_SD_Card_Audio_bsp/\libhal_bsp.a(alt_dcache_flush.o)
 .debug_str     0x00002b5b       0x12 ../DE2_SD_Card_Audio_bsp/\libhal_bsp.a(alt_dcache_flush_all.o)
 .debug_str     0x00002b6d       0x12 ../DE2_SD_Card_Audio_bsp/\libhal_bsp.a(alt_dev_llist_insert.o)
 .debug_str     0x00002b7f       0x12 ../DE2_SD_Card_Audio_bsp/\libhal_bsp.a(alt_find_dev.o)
 .debug_str     0x00002b91       0x12 ../DE2_SD_Card_Audio_bsp/\libhal_bsp.a(alt_find_file.o)
 .debug_str     0x00002ba3       0x2d ../DE2_SD_Card_Audio_bsp/\libhal_bsp.a(alt_flash_dev.o)
 .debug_str     0x00002bd0       0x12 ../DE2_SD_Card_Audio_bsp/\libhal_bsp.a(alt_get_fd.o)
 .debug_str     0x00002be2       0x12 ../DE2_SD_Card_Audio_bsp/\libhal_bsp.a(alt_icache_flush_all.o)
 .debug_str     0x00002bf4       0x18 ../DE2_SD_Card_Audio_bsp/\libhal_bsp.a(alt_iic.o)
 .debug_str     0x00002c0c       0x1a ../DE2_SD_Card_Audio_bsp/\libhal_bsp.a(alt_iic_isr_register.o)
 .debug_str     0x00002c26       0x12 ../DE2_SD_Card_Audio_bsp/\libhal_bsp.a(alt_io_redirect.o)
 .debug_str     0x00002c38       0x12 ../DE2_SD_Card_Audio_bsp/\libhal_bsp.a(alt_irq_handler.o)
 .debug_str     0x00002c4a       0x12 ../DE2_SD_Card_Audio_bsp/\libhal_bsp.a(altera_nios2_qsys_irq.o)
 .debug_str     0x00002c5c       0x76 ../DE2_SD_Card_Audio_bsp/\libhal_bsp.a(altera_avalon_cfi_flash_amd.o)
 .debug_str     0x00002cd2       0x7d ../DE2_SD_Card_Audio_bsp/\libhal_bsp.a(altera_avalon_cfi_flash_intel.o)
 .debug_str     0x00002d4f       0x12 ../DE2_SD_Card_Audio_bsp/\libhal_bsp.a(alt_icache_flush.o)
 .debug_str     0x00002d61       0x3b c:/altera/11.1/nios2eds/bin/gnu/h-i686-mingw32/bin/../lib/gcc/nios2-elf/4.1.2/../../../../nios2-elf/lib\libc.a(lib_a-atexit.o)
                                0x1bf (size before relaxing)
 .debug_str     0x00002d9c       0x3e c:/altera/11.1/nios2eds/bin/gnu/h-i686-mingw32/bin/../lib/gcc/nios2-elf/4.1.2/../../../../nios2-elf/lib\libc.a(lib_a-exit.o)
                                0x50c (size before relaxing)
 .debug_str     0x00002dda       0x42 c:/altera/11.1/nios2eds/bin/gnu/h-i686-mingw32/bin/../lib/gcc/nios2-elf/4.1.2/../../../../nios2-elf/lib\libc.a(lib_a-memcmp.o)
                                0x16a (size before relaxing)
 .debug_str     0x00002e1c       0x51 c:/altera/11.1/nios2eds/bin/gnu/h-i686-mingw32/bin/../lib/gcc/nios2-elf/4.1.2/../../../../nios2-elf/lib\libc.a(lib_a-__atexit.o)
                                0x524 (size before relaxing)
 .debug_str     0x00002e6d       0x7b c:/altera/11.1/nios2eds/bin/gnu/h-i686-mingw32/bin/../lib/gcc/nios2-elf/4.1.2/../../../../nios2-elf/lib\libc.a(lib_a-__call_atexit.o)
                                0x54e (size before relaxing)
 .debug_str     0x00002ee8       0x1c ../DE2_SD_Card_Audio_bsp/\libhal_bsp.a(alt_exit.o)

.debug_loc      0x00000000     0xf72f
 *(.debug_loc)
 .debug_loc     0x00000000      0x336 obj/default/main.o
 .debug_loc     0x00000336      0x28a obj/default/terasic_fat/FatFileSystem.o
 .debug_loc     0x000005c0      0x332 obj/default/terasic_fat/FatInternal.o
 .debug_loc     0x000008f2      0x387 obj/default/terasic_lib/AUDIO.o
 .debug_loc     0x00000c79      0x12d obj/default/terasic_lib/I2C.o
 .debug_loc     0x00000da6       0xac obj/default/terasic_lib/LCD.o
 .debug_loc     0x00000e52       0xac obj/default/terasic_lib/LED.o
 .debug_loc     0x00000efe       0xd7 obj/default/terasic_lib/SEG7.o
 .debug_loc     0x00000fd5      0x12d obj/default/terasic_lib/WaveLib.o
 .debug_loc     0x00001102       0xad obj/default/terasic_lib/debug.o
 .debug_loc     0x000011af       0x2b obj/default/terasic_sdcard/crc16.o
 .debug_loc     0x000011da       0x56 obj/default/terasic_sdcard/crc7.o
 .debug_loc     0x00001230      0x12d obj/default/terasic_sdcard/sd_hal.o
 .debug_loc     0x0000135d       0x81 obj/default/terasic_sdcard/sd_lib.o
 .debug_loc     0x000013de      0x331 obj/default/terasic_sdcard/sd_protocol.o
 .debug_loc     0x0000170f      0x103 c:/altera/11.1/nios2eds/bin/gnu/h-i686-mingw32/bin/../lib/gcc/nios2-elf/4.1.2\libgcc.a(_mul_sf.o)
 .debug_loc     0x00001812      0x11d c:/altera/11.1/nios2eds/bin/gnu/h-i686-mingw32/bin/../lib/gcc/nios2-elf/4.1.2\libgcc.a(_div_sf.o)
 .debug_loc     0x0000192f       0x32 c:/altera/11.1/nios2eds/bin/gnu/h-i686-mingw32/bin/../lib/gcc/nios2-elf/4.1.2\libgcc.a(_sf_to_df.o)
 .debug_loc     0x00001961       0x87 c:/altera/11.1/nios2eds/bin/gnu/h-i686-mingw32/bin/../lib/gcc/nios2-elf/4.1.2\libgcc.a(_usi_to_sf.o)
 .debug_loc     0x000019e8      0x1df c:/altera/11.1/nios2eds/bin/gnu/h-i686-mingw32/bin/../lib/gcc/nios2-elf/4.1.2\libgcc.a(_div_df.o)
 .debug_loc     0x00001bc7       0x58 c:/altera/11.1/nios2eds/bin/gnu/h-i686-mingw32/bin/../lib/gcc/nios2-elf/4.1.2\libgcc.a(_make_df.o)
 .debug_loc     0x00001c1f       0x6a c:/altera/11.1/nios2eds/bin/gnu/h-i686-mingw32/bin/../lib/gcc/nios2-elf/4.1.2\libgcc.a(_df_to_sf.o)
 .debug_loc     0x00001c89      0x1d2 c:/altera/11.1/nios2eds/bin/gnu/h-i686-mingw32/bin/../lib/gcc/nios2-elf/4.1.2\libgcc.a(lib2-divmod.o)
 .debug_loc     0x00001e5b       0xc4 c:/altera/11.1/nios2eds/bin/gnu/h-i686-mingw32/bin/../lib/gcc/nios2-elf/4.1.2\libgcc.a(_muldi3.o)
 .debug_loc     0x00001f1f       0x1e c:/altera/11.1/nios2eds/bin/gnu/h-i686-mingw32/bin/../lib/gcc/nios2-elf/4.1.2\libgcc.a(_clzsi2.o)
 .debug_loc     0x00001f3d       0xf9 c:/altera/11.1/nios2eds/bin/gnu/h-i686-mingw32/bin/../lib/gcc/nios2-elf/4.1.2\libgcc.a(_pack_sf.o)
 .debug_loc     0x00002036       0x31 c:/altera/11.1/nios2eds/bin/gnu/h-i686-mingw32/bin/../lib/gcc/nios2-elf/4.1.2\libgcc.a(_unpack_sf.o)
 .debug_loc     0x00002067       0x6b c:/altera/11.1/nios2eds/bin/gnu/h-i686-mingw32/bin/../lib/gcc/nios2-elf/4.1.2\libgcc.a(_make_sf.o)
 .debug_loc     0x000020d2      0x184 c:/altera/11.1/nios2eds/bin/gnu/h-i686-mingw32/bin/../lib/gcc/nios2-elf/4.1.2\libgcc.a(_pack_df.o)
 .debug_loc     0x00002256       0xe5 c:/altera/11.1/nios2eds/bin/gnu/h-i686-mingw32/bin/../lib/gcc/nios2-elf/4.1.2\libgcc.a(_unpack_df.o)
 .debug_loc     0x0000233b       0xe4 c:/altera/11.1/nios2eds/bin/gnu/h-i686-mingw32/bin/../lib/gcc/nios2-elf/4.1.2/../../../../nios2-elf/lib\libc.a(lib_a-fclose.o)
 .debug_loc     0x0000241f      0x1f6 c:/altera/11.1/nios2eds/bin/gnu/h-i686-mingw32/bin/../lib/gcc/nios2-elf/4.1.2/../../../../nios2-elf/lib\libc.a(lib_a-fflush.o)
 .debug_loc     0x00002615      0x19f c:/altera/11.1/nios2eds/bin/gnu/h-i686-mingw32/bin/../lib/gcc/nios2-elf/4.1.2/../../../../nios2-elf/lib\libc.a(lib_a-findfp.o)
 .debug_loc     0x000027b4      0x1c9 c:/altera/11.1/nios2eds/bin/gnu/h-i686-mingw32/bin/../lib/gcc/nios2-elf/4.1.2/../../../../nios2-elf/lib\libc.a(lib_a-fopen.o)
 .debug_loc     0x0000297d      0x4a7 c:/altera/11.1/nios2eds/bin/gnu/h-i686-mingw32/bin/../lib/gcc/nios2-elf/4.1.2/../../../../nios2-elf/lib\libc.a(lib_a-freer.o)
 .debug_loc     0x00002e24      0x348 c:/altera/11.1/nios2eds/bin/gnu/h-i686-mingw32/bin/../lib/gcc/nios2-elf/4.1.2/../../../../nios2-elf/lib\libc.a(lib_a-fseek.o)
 .debug_loc     0x0000316c       0x79 c:/altera/11.1/nios2eds/bin/gnu/h-i686-mingw32/bin/../lib/gcc/nios2-elf/4.1.2/../../../../nios2-elf/lib\libc.a(lib_a-fstatr.o)
 .debug_loc     0x000031e5      0x1d2 c:/altera/11.1/nios2eds/bin/gnu/h-i686-mingw32/bin/../lib/gcc/nios2-elf/4.1.2/../../../../nios2-elf/lib\libc.a(lib_a-fwalk.o)
 .debug_loc     0x000033b7      0x18e c:/altera/11.1/nios2eds/bin/gnu/h-i686-mingw32/bin/../lib/gcc/nios2-elf/4.1.2/../../../../nios2-elf/lib\libc.a(lib_a-fwrite.o)
 .debug_loc     0x00003545      0x11c c:/altera/11.1/nios2eds/bin/gnu/h-i686-mingw32/bin/../lib/gcc/nios2-elf/4.1.2/../../../../nios2-elf/lib\libc.a(lib_a-makebuf.o)
 .debug_loc     0x00003661       0x3c c:/altera/11.1/nios2eds/bin/gnu/h-i686-mingw32/bin/../lib/gcc/nios2-elf/4.1.2/../../../../nios2-elf/lib\libc.a(lib_a-malloc.o)
 .debug_loc     0x0000369d      0xaeb c:/altera/11.1/nios2eds/bin/gnu/h-i686-mingw32/bin/../lib/gcc/nios2-elf/4.1.2/../../../../nios2-elf/lib\libc.a(lib_a-mallocr.o)
 .debug_loc     0x00004188       0xca c:/altera/11.1/nios2eds/bin/gnu/h-i686-mingw32/bin/../lib/gcc/nios2-elf/4.1.2/../../../../nios2-elf/lib\libc.a(lib_a-memcpy.o)
 .debug_loc     0x00004252       0xa1 c:/altera/11.1/nios2eds/bin/gnu/h-i686-mingw32/bin/../lib/gcc/nios2-elf/4.1.2/../../../../nios2-elf/lib\libc.a(lib_a-memset.o)
 .debug_loc     0x000042f3       0x97 c:/altera/11.1/nios2eds/bin/gnu/h-i686-mingw32/bin/../lib/gcc/nios2-elf/4.1.2/../../../../nios2-elf/lib\libc.a(lib_a-openr.o)
 .debug_loc     0x0000438a       0xcb c:/altera/11.1/nios2eds/bin/gnu/h-i686-mingw32/bin/../lib/gcc/nios2-elf/4.1.2/../../../../nios2-elf/lib\libc.a(lib_a-printf.o)
 .debug_loc     0x00004455       0x44 c:/altera/11.1/nios2eds/bin/gnu/h-i686-mingw32/bin/../lib/gcc/nios2-elf/4.1.2/../../../../nios2-elf/lib\libc.a(lib_a-putchar.o)
 .debug_loc     0x00004499       0xa2 c:/altera/11.1/nios2eds/bin/gnu/h-i686-mingw32/bin/../lib/gcc/nios2-elf/4.1.2/../../../../nios2-elf/lib\libc.a(lib_a-puts.o)
 .debug_loc     0x0000453b       0xd1 c:/altera/11.1/nios2eds/bin/gnu/h-i686-mingw32/bin/../lib/gcc/nios2-elf/4.1.2/../../../../nios2-elf/lib\libc.a(lib_a-refill.o)
 .debug_loc     0x0000460c       0x5b c:/altera/11.1/nios2eds/bin/gnu/h-i686-mingw32/bin/../lib/gcc/nios2-elf/4.1.2/../../../../nios2-elf/lib\libc.a(lib_a-sbrkr.o)
 .debug_loc     0x00004667       0xc0 c:/altera/11.1/nios2eds/bin/gnu/h-i686-mingw32/bin/../lib/gcc/nios2-elf/4.1.2/../../../../nios2-elf/lib\libc.a(lib_a-sprintf.o)
 .debug_loc     0x00004727      0x21f c:/altera/11.1/nios2eds/bin/gnu/h-i686-mingw32/bin/../lib/gcc/nios2-elf/4.1.2/../../../../nios2-elf/lib\libc.a(lib_a-stdio.o)
 .debug_loc     0x00004946       0x88 c:/altera/11.1/nios2eds/bin/gnu/h-i686-mingw32/bin/../lib/gcc/nios2-elf/4.1.2/../../../../nios2-elf/lib\libc.a(lib_a-strcasecmp.o)
 .debug_loc     0x000049ce       0x65 c:/altera/11.1/nios2eds/bin/gnu/h-i686-mingw32/bin/../lib/gcc/nios2-elf/4.1.2/../../../../nios2-elf/lib\libc.a(lib_a-strcmp.o)
 .debug_loc     0x00004a33       0x8b c:/altera/11.1/nios2eds/bin/gnu/h-i686-mingw32/bin/../lib/gcc/nios2-elf/4.1.2/../../../../nios2-elf/lib\libc.a(lib_a-strcpy.o)
 .debug_loc     0x00004abe       0x3c c:/altera/11.1/nios2eds/bin/gnu/h-i686-mingw32/bin/../lib/gcc/nios2-elf/4.1.2/../../../../nios2-elf/lib\libc.a(lib_a-strlen.o)
 .debug_loc     0x00004afa     0x1e0d c:/altera/11.1/nios2eds/bin/gnu/h-i686-mingw32/bin/../lib/gcc/nios2-elf/4.1.2/../../../../nios2-elf/lib\libc.a(lib_a-vfprintf.o)
 .debug_loc     0x00006907      0x1a5 c:/altera/11.1/nios2eds/bin/gnu/h-i686-mingw32/bin/../lib/gcc/nios2-elf/4.1.2/../../../../nios2-elf/lib\libc.a(lib_a-vsnprintf.o)
 .debug_loc     0x00006aac       0x97 c:/altera/11.1/nios2eds/bin/gnu/h-i686-mingw32/bin/../lib/gcc/nios2-elf/4.1.2/../../../../nios2-elf/lib\libc.a(lib_a-writer.o)
 .debug_loc     0x00006b43       0x7c c:/altera/11.1/nios2eds/bin/gnu/h-i686-mingw32/bin/../lib/gcc/nios2-elf/4.1.2/../../../../nios2-elf/lib\libc.a(lib_a-wsetup.o)
 .debug_loc     0x00006bbf       0x5b c:/altera/11.1/nios2eds/bin/gnu/h-i686-mingw32/bin/../lib/gcc/nios2-elf/4.1.2/../../../../nios2-elf/lib\libc.a(lib_a-closer.o)
 .debug_loc     0x00006c1a     0x1dfa c:/altera/11.1/nios2eds/bin/gnu/h-i686-mingw32/bin/../lib/gcc/nios2-elf/4.1.2/../../../../nios2-elf/lib\libc.a(lib_a-dtoa.o)
 .debug_loc     0x00008a14       0xa4 c:/altera/11.1/nios2eds/bin/gnu/h-i686-mingw32/bin/../lib/gcc/nios2-elf/4.1.2/../../../../nios2-elf/lib\libc.a(lib_a-flags.o)
 .debug_loc     0x00008ab8      0x4e4 c:/altera/11.1/nios2eds/bin/gnu/h-i686-mingw32/bin/../lib/gcc/nios2-elf/4.1.2/../../../../nios2-elf/lib\libc.a(lib_a-fvwrite.o)
 .debug_loc     0x00008f9c       0x5b c:/altera/11.1/nios2eds/bin/gnu/h-i686-mingw32/bin/../lib/gcc/nios2-elf/4.1.2/../../../../nios2-elf/lib\libc.a(lib_a-isattyr.o)
 .debug_loc     0x00008ff7       0xe1 c:/altera/11.1/nios2eds/bin/gnu/h-i686-mingw32/bin/../lib/gcc/nios2-elf/4.1.2/../../../../nios2-elf/lib\libc.a(lib_a-locale.o)
 .debug_loc     0x000090d8       0x97 c:/altera/11.1/nios2eds/bin/gnu/h-i686-mingw32/bin/../lib/gcc/nios2-elf/4.1.2/../../../../nios2-elf/lib\libc.a(lib_a-lseekr.o)
 .debug_loc     0x0000916f      0x106 c:/altera/11.1/nios2eds/bin/gnu/h-i686-mingw32/bin/../lib/gcc/nios2-elf/4.1.2/../../../../nios2-elf/lib\libc.a(lib_a-memchr.o)
 .debug_loc     0x00009275      0x117 c:/altera/11.1/nios2eds/bin/gnu/h-i686-mingw32/bin/../lib/gcc/nios2-elf/4.1.2/../../../../nios2-elf/lib\libc.a(lib_a-memmove.o)
 .debug_loc     0x0000938c     0x14d6 c:/altera/11.1/nios2eds/bin/gnu/h-i686-mingw32/bin/../lib/gcc/nios2-elf/4.1.2/../../../../nios2-elf/lib\libc.a(lib_a-mprec.o)
 .debug_loc     0x0000a862      0x20d c:/altera/11.1/nios2eds/bin/gnu/h-i686-mingw32/bin/../lib/gcc/nios2-elf/4.1.2/../../../../nios2-elf/lib\libc.a(lib_a-putc.o)
 .debug_loc     0x0000aa6f       0x97 c:/altera/11.1/nios2eds/bin/gnu/h-i686-mingw32/bin/../lib/gcc/nios2-elf/4.1.2/../../../../nios2-elf/lib\libc.a(lib_a-readr.o)
 .debug_loc     0x0000ab06      0x8c0 c:/altera/11.1/nios2eds/bin/gnu/h-i686-mingw32/bin/../lib/gcc/nios2-elf/4.1.2/../../../../nios2-elf/lib\libc.a(lib_a-reallocr.o)
 .debug_loc     0x0000b3c6       0x36 c:/altera/11.1/nios2eds/bin/gnu/h-i686-mingw32/bin/../lib/gcc/nios2-elf/4.1.2/../../../../nios2-elf/lib\libc.a(lib_a-s_isinfd.o)
 .debug_loc     0x0000b3fc       0x18 c:/altera/11.1/nios2eds/bin/gnu/h-i686-mingw32/bin/../lib/gcc/nios2-elf/4.1.2/../../../../nios2-elf/lib\libc.a(lib_a-s_isnand.o)
 .debug_loc     0x0000b414      0x157 c:/altera/11.1/nios2eds/bin/gnu/h-i686-mingw32/bin/../lib/gcc/nios2-elf/4.1.2/../../../../nios2-elf/lib\libc.a(lib_a-wbuf.o)
 .debug_loc     0x0000b56b       0xe9 c:/altera/11.1/nios2eds/bin/gnu/h-i686-mingw32/bin/../lib/gcc/nios2-elf/4.1.2/../../../../nios2-elf/lib\libc.a(lib_a-callocr.o)
 .debug_loc     0x0000b654      0xc12 c:/altera/11.1/nios2eds/bin/gnu/h-i686-mingw32/bin/../lib/gcc/nios2-elf/4.1.2\libgcc.a(_udivdi3.o)
 .debug_loc     0x0000c266      0xc31 c:/altera/11.1/nios2eds/bin/gnu/h-i686-mingw32/bin/../lib/gcc/nios2-elf/4.1.2\libgcc.a(_umoddi3.o)
 .debug_loc     0x0000ce97      0x47a c:/altera/11.1/nios2eds/bin/gnu/h-i686-mingw32/bin/../lib/gcc/nios2-elf/4.1.2\libgcc.a(_addsub_df.o)
 .debug_loc     0x0000d311      0x3b4 c:/altera/11.1/nios2eds/bin/gnu/h-i686-mingw32/bin/../lib/gcc/nios2-elf/4.1.2\libgcc.a(_mul_df.o)
 .debug_loc     0x0000d6c5       0x70 c:/altera/11.1/nios2eds/bin/gnu/h-i686-mingw32/bin/../lib/gcc/nios2-elf/4.1.2\libgcc.a(_eq_df.o)
 .debug_loc     0x0000d735       0x70 c:/altera/11.1/nios2eds/bin/gnu/h-i686-mingw32/bin/../lib/gcc/nios2-elf/4.1.2\libgcc.a(_ne_df.o)
 .debug_loc     0x0000d7a5       0x70 c:/altera/11.1/nios2eds/bin/gnu/h-i686-mingw32/bin/../lib/gcc/nios2-elf/4.1.2\libgcc.a(_gt_df.o)
 .debug_loc     0x0000d815       0x70 c:/altera/11.1/nios2eds/bin/gnu/h-i686-mingw32/bin/../lib/gcc/nios2-elf/4.1.2\libgcc.a(_ge_df.o)
 .debug_loc     0x0000d885       0x70 c:/altera/11.1/nios2eds/bin/gnu/h-i686-mingw32/bin/../lib/gcc/nios2-elf/4.1.2\libgcc.a(_lt_df.o)
 .debug_loc     0x0000d8f5       0x9a c:/altera/11.1/nios2eds/bin/gnu/h-i686-mingw32/bin/../lib/gcc/nios2-elf/4.1.2\libgcc.a(_si_to_df.o)
 .debug_loc     0x0000d98f       0x8b c:/altera/11.1/nios2eds/bin/gnu/h-i686-mingw32/bin/../lib/gcc/nios2-elf/4.1.2\libgcc.a(_df_to_si.o)
 .debug_loc     0x0000da1a       0x5b c:/altera/11.1/nios2eds/bin/gnu/h-i686-mingw32/bin/../lib/gcc/nios2-elf/4.1.2\libgcc.a(_usi_to_df.o)
 .debug_loc     0x0000da75       0x56 ../DE2_SD_Card_Audio_bsp/\libhal_bsp.a(alt_close.o)
 .debug_loc     0x0000dacb       0x2b ../DE2_SD_Card_Audio_bsp/\libhal_bsp.a(alt_dev.o)
 .debug_loc     0x0000daf6       0x56 ../DE2_SD_Card_Audio_bsp/\libhal_bsp.a(alt_fstat.o)
 .debug_loc     0x0000db4c       0x2c ../DE2_SD_Card_Audio_bsp/\libhal_bsp.a(alt_irq_register.o)
 .debug_loc     0x0000db78       0x57 ../DE2_SD_Card_Audio_bsp/\libhal_bsp.a(alt_isatty.o)
 .debug_loc     0x0000dbcf       0x56 ../DE2_SD_Card_Audio_bsp/\libhal_bsp.a(alt_load.o)
 .debug_loc     0x0000dc25       0x56 ../DE2_SD_Card_Audio_bsp/\libhal_bsp.a(alt_lseek.o)
 .debug_loc     0x0000dc7b       0x2b ../DE2_SD_Card_Audio_bsp/\libhal_bsp.a(alt_main.o)
 .debug_loc     0x0000dca6       0x56 ../DE2_SD_Card_Audio_bsp/\libhal_bsp.a(alt_malloc_lock.o)
 .debug_loc     0x0000dcfc       0x81 ../DE2_SD_Card_Audio_bsp/\libhal_bsp.a(alt_open.o)
 .debug_loc     0x0000dd7d       0x56 ../DE2_SD_Card_Audio_bsp/\libhal_bsp.a(alt_read.o)
 .debug_loc     0x0000ddd3       0x2b ../DE2_SD_Card_Audio_bsp/\libhal_bsp.a(alt_release_fd.o)
 .debug_loc     0x0000ddfe       0x2b ../DE2_SD_Card_Audio_bsp/\libhal_bsp.a(alt_sbrk.o)
 .debug_loc     0x0000de29       0x56 ../DE2_SD_Card_Audio_bsp/\libhal_bsp.a(alt_tick.o)
 .debug_loc     0x0000de7f       0x2b ../DE2_SD_Card_Audio_bsp/\libhal_bsp.a(alt_usleep.o)
 .debug_loc     0x0000deaa       0x56 ../DE2_SD_Card_Audio_bsp/\libhal_bsp.a(alt_write.o)
 .debug_loc     0x0000df00       0x81 ../DE2_SD_Card_Audio_bsp/\libhal_bsp.a(alt_sys_init.o)
 .debug_loc     0x0000df81      0x12e ../DE2_SD_Card_Audio_bsp/\libhal_bsp.a(altera_avalon_cfi_flash.o)
 .debug_loc     0x0000e0af      0x306 ../DE2_SD_Card_Audio_bsp/\libhal_bsp.a(altera_avalon_cfi_flash_table.o)
 .debug_loc     0x0000e3b5      0x1af ../DE2_SD_Card_Audio_bsp/\libhal_bsp.a(altera_avalon_epcs_flash_controller.o)
 .debug_loc     0x0000e564       0xac ../DE2_SD_Card_Audio_bsp/\libhal_bsp.a(altera_avalon_jtag_uart_fd.o)
 .debug_loc     0x0000e610       0xac ../DE2_SD_Card_Audio_bsp/\libhal_bsp.a(altera_avalon_jtag_uart_init.o)
 .debug_loc     0x0000e6bc       0x2b ../DE2_SD_Card_Audio_bsp/\libhal_bsp.a(altera_avalon_jtag_uart_ioctl.o)
 .debug_loc     0x0000e6e7       0x2b ../DE2_SD_Card_Audio_bsp/\libhal_bsp.a(altera_avalon_jtag_uart_read.o)
 .debug_loc     0x0000e712       0x2b ../DE2_SD_Card_Audio_bsp/\libhal_bsp.a(altera_avalon_jtag_uart_write.o)
 .debug_loc     0x0000e73d      0x183 ../DE2_SD_Card_Audio_bsp/\libhal_bsp.a(altera_avalon_lcd_16207.o)
 .debug_loc     0x0000e8c0       0x2b ../DE2_SD_Card_Audio_bsp/\libhal_bsp.a(altera_avalon_lcd_16207_fd.o)
 .debug_loc     0x0000e8eb       0x56 ../DE2_SD_Card_Audio_bsp/\libhal_bsp.a(altera_avalon_timer_sc.o)
 .debug_loc     0x0000e941       0x81 ../DE2_SD_Card_Audio_bsp/\libhal_bsp.a(altera_avalon_uart_fd.o)
 .debug_loc     0x0000e9c2       0xd7 ../DE2_SD_Card_Audio_bsp/\libhal_bsp.a(altera_avalon_uart_init.o)
 .debug_loc     0x0000ea99       0x57 ../DE2_SD_Card_Audio_bsp/\libhal_bsp.a(altera_avalon_uart_read.o)
 .debug_loc     0x0000eaf0       0x56 ../DE2_SD_Card_Audio_bsp/\libhal_bsp.a(altera_avalon_uart_write.o)
 .debug_loc     0x0000eb46      0x1ae ../DE2_SD_Card_Audio_bsp/\libhal_bsp.a(epcs_commands.o)
 .debug_loc     0x0000ecf4       0x2b ../DE2_SD_Card_Audio_bsp/\libhal_bsp.a(alt_alarm_start.o)
 .debug_loc     0x0000ed1f       0x2b ../DE2_SD_Card_Audio_bsp/\libhal_bsp.a(alt_busy_sleep.o)
 .debug_loc     0x0000ed4a       0x2b ../DE2_SD_Card_Audio_bsp/\libhal_bsp.a(alt_dcache_flush.o)
 .debug_loc     0x0000ed75       0x2b ../DE2_SD_Card_Audio_bsp/\libhal_bsp.a(alt_dcache_flush_all.o)
 .debug_loc     0x0000eda0       0x56 ../DE2_SD_Card_Audio_bsp/\libhal_bsp.a(alt_dev_llist_insert.o)
 .debug_loc     0x0000edf6       0x2b ../DE2_SD_Card_Audio_bsp/\libhal_bsp.a(alt_do_ctors.o)
 .debug_loc     0x0000ee21       0x2b ../DE2_SD_Card_Audio_bsp/\libhal_bsp.a(alt_do_dtors.o)
 .debug_loc     0x0000ee4c       0x2b ../DE2_SD_Card_Audio_bsp/\libhal_bsp.a(alt_find_dev.o)
 .debug_loc     0x0000ee77       0x2b ../DE2_SD_Card_Audio_bsp/\libhal_bsp.a(alt_find_file.o)
 .debug_loc     0x0000eea2       0x56 ../DE2_SD_Card_Audio_bsp/\libhal_bsp.a(alt_flash_dev.o)
 .debug_loc     0x0000eef8       0x2b ../DE2_SD_Card_Audio_bsp/\libhal_bsp.a(alt_get_fd.o)
 .debug_loc     0x0000ef23       0x2b ../DE2_SD_Card_Audio_bsp/\libhal_bsp.a(alt_icache_flush_all.o)
 .debug_loc     0x0000ef4e       0xac ../DE2_SD_Card_Audio_bsp/\libhal_bsp.a(alt_iic.o)
 .debug_loc     0x0000effa       0x2b ../DE2_SD_Card_Audio_bsp/\libhal_bsp.a(alt_iic_isr_register.o)
 .debug_loc     0x0000f025       0x56 ../DE2_SD_Card_Audio_bsp/\libhal_bsp.a(alt_io_redirect.o)
 .debug_loc     0x0000f07b       0x2b ../DE2_SD_Card_Audio_bsp/\libhal_bsp.a(alt_irq_handler.o)
 .debug_loc     0x0000f0a6       0x2b ../DE2_SD_Card_Audio_bsp/\libhal_bsp.a(altera_nios2_qsys_irq.o)
 .debug_loc     0x0000f0d1       0xac ../DE2_SD_Card_Audio_bsp/\libhal_bsp.a(altera_avalon_cfi_flash_amd.o)
 .debug_loc     0x0000f17d       0xac ../DE2_SD_Card_Audio_bsp/\libhal_bsp.a(altera_avalon_cfi_flash_intel.o)
 .debug_loc     0x0000f229       0x2b ../DE2_SD_Card_Audio_bsp/\libhal_bsp.a(altera_avalon_spi.o)
 .debug_loc     0x0000f254       0x2b ../DE2_SD_Card_Audio_bsp/\libhal_bsp.a(alt_icache_flush.o)
 .debug_loc     0x0000f27f       0x1e c:/altera/11.1/nios2eds/bin/gnu/h-i686-mingw32/bin/../lib/gcc/nios2-elf/4.1.2/../../../../nios2-elf/lib\libc.a(lib_a-atexit.o)
 .debug_loc     0x0000f29d       0x3d c:/altera/11.1/nios2eds/bin/gnu/h-i686-mingw32/bin/../lib/gcc/nios2-elf/4.1.2/../../../../nios2-elf/lib\libc.a(lib_a-exit.o)
 .debug_loc     0x0000f2da      0x114 c:/altera/11.1/nios2eds/bin/gnu/h-i686-mingw32/bin/../lib/gcc/nios2-elf/4.1.2/../../../../nios2-elf/lib\libc.a(lib_a-memcmp.o)
 .debug_loc     0x0000f3ee      0x120 c:/altera/11.1/nios2eds/bin/gnu/h-i686-mingw32/bin/../lib/gcc/nios2-elf/4.1.2/../../../../nios2-elf/lib\libc.a(lib_a-__atexit.o)
 .debug_loc     0x0000f50e      0x1cb c:/altera/11.1/nios2eds/bin/gnu/h-i686-mingw32/bin/../lib/gcc/nios2-elf/4.1.2/../../../../nios2-elf/lib\libc.a(lib_a-__call_atexit.o)
 .debug_loc     0x0000f6d9       0x56 ../DE2_SD_Card_Audio_bsp/\libhal_bsp.a(alt_exit.o)

.debug_macinfo
 *(.debug_macinfo)

.debug_weaknames
 *(.debug_weaknames)

.debug_funcnames
 *(.debug_funcnames)

.debug_typenames
 *(.debug_typenames)

.debug_varnames
 *(.debug_varnames)

.debug_alt_sim_info
                0x00000000       0x60
 *(.debug_alt_sim_info)
 .debug_alt_sim_info
                0x00000000       0x30 ../DE2_SD_Card_Audio_bsp//obj/HAL/src/crt0.o
 .debug_alt_sim_info
                0x00000030       0x30 ../DE2_SD_Card_Audio_bsp/\libhal_bsp.a(alt_busy_sleep.o)
                0x01800000                __alt_data_end = 0x1800000
                0x01800000                PROVIDE (__alt_stack_pointer, __alt_data_end)
                0x01022028                PROVIDE (__alt_stack_limit, __alt_stack_base)
                0x01022028                PROVIDE (__alt_heap_start, end)
                0x01800000                PROVIDE (__alt_heap_limit, 0x1800000)
OUTPUT(DE2_SD_Card_Audio.elf elf32-littlenios2)

.debug_ranges   0x00000000      0xab0
 .debug_ranges  0x00000000       0x20 ../DE2_SD_Card_Audio_bsp//obj/HAL/src/crt0.o
 .debug_ranges  0x00000020       0x80 c:/altera/11.1/nios2eds/bin/gnu/h-i686-mingw32/bin/../lib/gcc/nios2-elf/4.1.2\libgcc.a(_mul_sf.o)
 .debug_ranges  0x000000a0       0x60 c:/altera/11.1/nios2eds/bin/gnu/h-i686-mingw32/bin/../lib/gcc/nios2-elf/4.1.2\libgcc.a(_div_sf.o)
 .debug_ranges  0x00000100       0x40 c:/altera/11.1/nios2eds/bin/gnu/h-i686-mingw32/bin/../lib/gcc/nios2-elf/4.1.2\libgcc.a(_usi_to_sf.o)
 .debug_ranges  0x00000140       0x50 c:/altera/11.1/nios2eds/bin/gnu/h-i686-mingw32/bin/../lib/gcc/nios2-elf/4.1.2\libgcc.a(_div_df.o)
 .debug_ranges  0x00000190       0x68 c:/altera/11.1/nios2eds/bin/gnu/h-i686-mingw32/bin/../lib/gcc/nios2-elf/4.1.2\libgcc.a(_muldi3.o)
 .debug_ranges  0x000001f8       0x28 c:/altera/11.1/nios2eds/bin/gnu/h-i686-mingw32/bin/../lib/gcc/nios2-elf/4.1.2\libgcc.a(_clzsi2.o)
 .debug_ranges  0x00000220       0x28 c:/altera/11.1/nios2eds/bin/gnu/h-i686-mingw32/bin/../lib/gcc/nios2-elf/4.1.2\libgcc.a(_pack_df.o)
 .debug_ranges  0x00000248       0x20 c:/altera/11.1/nios2eds/bin/gnu/h-i686-mingw32/bin/../lib/gcc/nios2-elf/4.1.2/../../../../nios2-elf/lib\libc.a(lib_a-fflush.o)
 .debug_ranges  0x00000268       0xa0 c:/altera/11.1/nios2eds/bin/gnu/h-i686-mingw32/bin/../lib/gcc/nios2-elf/4.1.2/../../../../nios2-elf/lib\libc.a(lib_a-fwalk.o)
 .debug_ranges  0x00000308       0x70 c:/altera/11.1/nios2eds/bin/gnu/h-i686-mingw32/bin/../lib/gcc/nios2-elf/4.1.2/../../../../nios2-elf/lib\libc.a(lib_a-mallocr.o)
 .debug_ranges  0x00000378      0x168 c:/altera/11.1/nios2eds/bin/gnu/h-i686-mingw32/bin/../lib/gcc/nios2-elf/4.1.2/../../../../nios2-elf/lib\libc.a(lib_a-vfprintf.o)
 .debug_ranges  0x000004e0       0x28 c:/altera/11.1/nios2eds/bin/gnu/h-i686-mingw32/bin/../lib/gcc/nios2-elf/4.1.2/../../../../nios2-elf/lib\libc.a(lib_a-fvwrite.o)
 .debug_ranges  0x00000508      0x110 c:/altera/11.1/nios2eds/bin/gnu/h-i686-mingw32/bin/../lib/gcc/nios2-elf/4.1.2/../../../../nios2-elf/lib\libc.a(lib_a-reallocr.o)
 .debug_ranges  0x00000618       0x38 c:/altera/11.1/nios2eds/bin/gnu/h-i686-mingw32/bin/../lib/gcc/nios2-elf/4.1.2/../../../../nios2-elf/lib\libc.a(lib_a-callocr.o)
 .debug_ranges  0x00000650      0x188 c:/altera/11.1/nios2eds/bin/gnu/h-i686-mingw32/bin/../lib/gcc/nios2-elf/4.1.2\libgcc.a(_udivdi3.o)
 .debug_ranges  0x000007d8      0x198 c:/altera/11.1/nios2eds/bin/gnu/h-i686-mingw32/bin/../lib/gcc/nios2-elf/4.1.2\libgcc.a(_umoddi3.o)
 .debug_ranges  0x00000970       0x30 c:/altera/11.1/nios2eds/bin/gnu/h-i686-mingw32/bin/../lib/gcc/nios2-elf/4.1.2\libgcc.a(_addsub_df.o)
 .debug_ranges  0x000009a0       0x88 c:/altera/11.1/nios2eds/bin/gnu/h-i686-mingw32/bin/../lib/gcc/nios2-elf/4.1.2\libgcc.a(_mul_df.o)
 .debug_ranges  0x00000a28       0x18 c:/altera/11.1/nios2eds/bin/gnu/h-i686-mingw32/bin/../lib/gcc/nios2-elf/4.1.2\libgcc.a(_usi_to_df.o)
 .debug_ranges  0x00000a40       0x28 ../DE2_SD_Card_Audio_bsp/\libhal_bsp.a(alt_irq_entry.o)
 .debug_ranges  0x00000a68       0x30 ../DE2_SD_Card_Audio_bsp/\libhal_bsp.a(alt_exception_entry.o)
 .debug_ranges  0x00000a98       0x18 c:/altera/11.1/nios2eds/bin/gnu/h-i686-mingw32/bin/../lib/gcc/nios2-elf/4.1.2/../../../../nios2-elf/lib\libc.a(lib_a-__call_atexit.o)
