
DE2_NIOS_HOST_MOUSE_VGA.elf:     file format elf32-littlenios2
DE2_NIOS_HOST_MOUSE_VGA.elf
architecture: nios2, flags 0x00000112:
EXEC_P, HAS_SYMS, D_PAGED
start address 0x00800000

Program Header:
    LOAD off    0x00001000 vaddr 0x00800000 paddr 0x00800000 align 2**12
         filesz 0x0001a664 memsz 0x0001ea48 flags rwx
    LOAD off    0x0001c000 vaddr 0x01400000 paddr 0x01400000 align 2**12
         filesz 0x00000000 memsz 0x00000000 flags r-x
    LOAD off    0x0001c020 vaddr 0x01a80020 paddr 0x01a80020 align 2**12
         filesz 0x00000194 memsz 0x00000194 flags r-x

Sections:
Idx Name          Size      VMA       LMA       File off  Algn
  0 .entry        00000000  01400000  01400000  0001c000  2**5
                  CONTENTS, ALLOC, LOAD, READONLY, CODE
  1 .exceptions   00000194  01a80020  01a80020  0001c020  2**2
                  CONTENTS, ALLOC, LOAD, READONLY, CODE
  2 .text         00017ba8  00800000  00800000  00001000  2**2
                  CONTENTS, ALLOC, LOAD, READONLY, CODE
  3 .rodata       00000cb4  00817ba8  00817ba8  00018ba8  2**2
                  CONTENTS, ALLOC, LOAD, READONLY, DATA
  4 .rwdata       00001e08  0081885c  0081885c  0001985c  2**2
                  CONTENTS, ALLOC, LOAD, DATA, SMALL_DATA
  5 .bss          000043e4  0081a664  0081a664  0001b664  2**2
                  ALLOC, SMALL_DATA
  6 .comment      00000026  00000000  00000000  0001c1b4  2**0
                  CONTENTS, READONLY
  7 .debug_aranges 00000ff0  00000000  00000000  0001c1e0  2**3
                  CONTENTS, READONLY, DEBUGGING
  8 .debug_pubnames 000025cf  00000000  00000000  0001d1d0  2**0
                  CONTENTS, READONLY, DEBUGGING
  9 .debug_info   0002f1d2  00000000  00000000  0001f79f  2**0
                  CONTENTS, READONLY, DEBUGGING
 10 .debug_abbrev 00009846  00000000  00000000  0004e971  2**0
                  CONTENTS, READONLY, DEBUGGING
 11 .debug_line   0001b970  00000000  00000000  000581b7  2**0
                  CONTENTS, READONLY, DEBUGGING
 12 .debug_frame  00003018  00000000  00000000  00073b28  2**2
                  CONTENTS, READONLY, DEBUGGING
 13 .debug_str    00002828  00000000  00000000  00076b40  2**0
                  CONTENTS, READONLY, DEBUGGING
 14 .debug_loc    0000dfb2  00000000  00000000  00079368  2**0
                  CONTENTS, READONLY, DEBUGGING
 15 .debug_alt_sim_info 00000050  00000000  00000000  0008731c  2**2
                  CONTENTS, READONLY, DEBUGGING
 16 .debug_ranges 00000970  00000000  00000000  00087370  2**3
                  CONTENTS, READONLY, DEBUGGING
 17 .thread_model 00000003  00000000  00000000  0008ccf7  2**0
                  CONTENTS, READONLY
 18 .cpu          00000005  00000000  00000000  0008ccfa  2**0
                  CONTENTS, READONLY
 19 .qsys         00000001  00000000  00000000  0008ccff  2**0
                  CONTENTS, READONLY
 20 .simulation_enabled 00000001  00000000  00000000  0008cd00  2**0
                  CONTENTS, READONLY
 21 .sysid_hash   00000004  00000000  00000000  0008cd01  2**0
                  CONTENTS, READONLY
 22 .sysid_base   00000004  00000000  00000000  0008cd05  2**0
                  CONTENTS, READONLY
 23 .sysid_time   00000004  00000000  00000000  0008cd09  2**0
                  CONTENTS, READONLY
 24 .stderr_dev   0000000b  00000000  00000000  0008cd0d  2**0
                  CONTENTS, READONLY
 25 .stdin_dev    0000000b  00000000  00000000  0008cd18  2**0
                  CONTENTS, READONLY
 26 .stdout_dev   0000000b  00000000  00000000  0008cd23  2**0
                  CONTENTS, READONLY
 27 .sopc_system_name 00000008  00000000  00000000  0008cd2e  2**0
                  CONTENTS, READONLY
 28 .quartus_project_dir 00000036  00000000  00000000  0008cd36  2**0
                  CONTENTS, READONLY
 29 .jdi          00004a66  00000000  00000000  0008cd6c  2**0
                  CONTENTS, READONLY
SYMBOL TABLE:
01400000 l    d  .entry	00000000 .entry
01a80020 l    d  .exceptions	00000000 .exceptions
00800000 l    d  .text	00000000 .text
00817ba8 l    d  .rodata	00000000 .rodata
0081885c l    d  .rwdata	00000000 .rwdata
0081a664 l    d  .bss	00000000 .bss
00000000 l    d  .comment	00000000 .comment
00000000 l    d  .debug_aranges	00000000 .debug_aranges
00000000 l    d  .debug_pubnames	00000000 .debug_pubnames
00000000 l    d  .debug_info	00000000 .debug_info
00000000 l    d  .debug_abbrev	00000000 .debug_abbrev
00000000 l    d  .debug_line	00000000 .debug_line
00000000 l    d  .debug_frame	00000000 .debug_frame
00000000 l    d  .debug_str	00000000 .debug_str
00000000 l    d  .debug_loc	00000000 .debug_loc
00000000 l    d  .debug_alt_sim_info	00000000 .debug_alt_sim_info
00000000 l    d  .debug_ranges	00000000 .debug_ranges
00800044 l       .text	00000000 alt_after_alt_main
00000000 l    df *ABS*	00000000 alt_irq_handler.c
00000000 l    df *ABS*	00000000 BUF_MAN.c
00000000 l    df *ABS*	00000000 CHEEYU.c
00000000 l    df *ABS*	00000000 HAL4D13.c
00000000 l    df *ABS*	00000000 LCD.c
00000000 l    df *ABS*	00000000 MOUSE.c
00000000 l    df *ABS*	00000000 PORT.c
00000000 l    df *ABS*	00000000 PTD.c
0081a6cc l     O .bss	00002000 c2.2482
0081c6cc l     O .bss	00002000 c1.2481
0081a670 l     O .bss	00000004 cnt.2480
0081e6cc l     O .bss	00000020 ipro.2513
0081e6ec l     O .bss	00000020 iman.2512
0081e70c l     O .bss	00000020 maxpac.2511
0081e72c l     O .bss	00000020 speed.2510
00000000 l    df *ABS*	00000000 REG.c
00000000 l    df *ABS*	00000000 SEG7.c
0081885c l     O .rwdata	00000010 szMap
00000000 l    df *ABS*	00000000 Test.c
00000000 l    df *ABS*	00000000 USB.c
0081a674 l     O .bss	00000004 MaxPacSize.2588
0081a678 l     O .bss	00000004 iInterface.2587
0081a67c l     O .bss	00000004 iProduct.2586
0081a680 l     O .bss	00000004 iManufacturer.2585
00000000 l    df *ABS*	00000000 VGA.c
00000000 l    df *ABS*	00000000 main.c
00000000 l    df *ABS*	00000000 usb_irq.c
00000000 l    df *ABS*	00000000 lib2-divmod.c
00806724 l     F .text	0000007c udivmodsi4
00000000 l    df *ABS*	00000000 printf.c
00000000 l    df *ABS*	00000000 puts.c
00000000 l    df *ABS*	00000000 sprintf.c
00000000 l    df *ABS*	00000000 strlen.c
00000000 l    df *ABS*	00000000 vfprintf.c
00806ae4 l     F .text	00000058 __sprint_r
008182c2 l     O .rodata	00000010 blanks.3452
008182b2 l     O .rodata	00000010 zeroes.3453
00000000 l    df *ABS*	00000000 wsetup.c
00000000 l    df *ABS*	00000000 dtoa.c
00808b48 l     F .text	00000218 quorem
00000000 l    df *ABS*	00000000 fflush.c
00000000 l    df *ABS*	00000000 findfp.c
0080a544 l     F .text	00000058 std
0080a650 l     F .text	00000008 __fp_lock
0080a658 l     F .text	00000008 __fp_unlock
00000000 l    df *ABS*	00000000 mallocr.c
00000000 l    df *ABS*	00000000 fvwrite.c
00000000 l    df *ABS*	00000000 fwalk.c
00000000 l    df *ABS*	00000000 impure.c
0081886c l     O .rwdata	00000400 impure_data
00000000 l    df *ABS*	00000000 locale.c
0081a620 l     O .rwdata	00000004 charset
008182f8 l     O .rodata	00000030 lconv
00000000 l    df *ABS*	00000000 makebuf.c
00000000 l    df *ABS*	00000000 mallocr.c
00000000 l    df *ABS*	00000000 memchr.c
00000000 l    df *ABS*	00000000 memcpy.c
00000000 l    df *ABS*	00000000 memmove.c
00000000 l    df *ABS*	00000000 memset.c
00000000 l    df *ABS*	00000000 mprec.c
00818440 l     O .rodata	0000000c p05.2458
00000000 l    df *ABS*	00000000 mallocr.c
00000000 l    df *ABS*	00000000 s_isinfd.c
00000000 l    df *ABS*	00000000 s_isnand.c
00000000 l    df *ABS*	00000000 sbrkr.c
00000000 l    df *ABS*	00000000 stdio.c
00000000 l    df *ABS*	00000000 strcmp.c
00000000 l    df *ABS*	00000000 writer.c
00000000 l    df *ABS*	00000000 mallocr.c
00000000 l    df *ABS*	00000000 closer.c
00000000 l    df *ABS*	00000000 fclose.c
00000000 l    df *ABS*	00000000 fstatr.c
00000000 l    df *ABS*	00000000 int_errno.c
00000000 l    df *ABS*	00000000 isattyr.c
00000000 l    df *ABS*	00000000 lseekr.c
00000000 l    df *ABS*	00000000 readr.c
00000000 l    df *ABS*	00000000 libgcc2.c
00000000 l    df *ABS*	00000000 libgcc2.c
00000000 l    df *ABS*	00000000 dp-bit.c
0080e7e4 l     F .text	00000410 _fpadd_parts
00000000 l    df *ABS*	00000000 dp-bit.c
00000000 l    df *ABS*	00000000 dp-bit.c
00000000 l    df *ABS*	00000000 dp-bit.c
00000000 l    df *ABS*	00000000 dp-bit.c
00000000 l    df *ABS*	00000000 dp-bit.c
00000000 l    df *ABS*	00000000 dp-bit.c
00000000 l    df *ABS*	00000000 dp-bit.c
00000000 l    df *ABS*	00000000 dp-bit.c
00000000 l    df *ABS*	00000000 dp-bit.c
00000000 l    df *ABS*	00000000 dp-bit.c
00000000 l    df *ABS*	00000000 dp-bit.c
00000000 l    df *ABS*	00000000 libgcc2.c
00000000 l    df *ABS*	00000000 libgcc2.c
00000000 l    df *ABS*	00000000 libgcc2.c
00000000 l    df *ABS*	00000000 dp-bit.c
00000000 l    df *ABS*	00000000 dp-bit.c
00000000 l    df *ABS*	00000000 dp-bit.c
00000000 l    df *ABS*	00000000 alt_close.c
00810038 l     F .text	00000060 alt_get_errno
00000000 l    df *ABS*	00000000 alt_dev.c
00810098 l     F .text	0000002c alt_dev_null_write
00000000 l    df *ABS*	00000000 alt_errno.c
00000000 l    df *ABS*	00000000 alt_fstat.c
00810198 l     F .text	00000060 alt_get_errno
00000000 l    df *ABS*	00000000 alt_irq_register.c
00000000 l    df *ABS*	00000000 alt_irq_vars.c
00000000 l    df *ABS*	00000000 alt_isatty.c
00810478 l     F .text	00000060 alt_get_errno
00000000 l    df *ABS*	00000000 alt_lseek.c
008105c8 l     F .text	00000060 alt_get_errno
00000000 l    df *ABS*	00000000 alt_main.c
00000000 l    df *ABS*	00000000 alt_malloc_lock.c
00000000 l    df *ABS*	00000000 alt_read.c
008107f4 l     F .text	00000060 alt_get_errno
00000000 l    df *ABS*	00000000 alt_release_fd.c
00000000 l    df *ABS*	00000000 alt_sbrk.c
0081a648 l     O .rwdata	00000004 heap_end
00000000 l    df *ABS*	00000000 alt_usleep.c
00000000 l    df *ABS*	00000000 alt_write.c
00810ac0 l     F .text	00000060 alt_get_errno
00000000 l    df *ABS*	00000000 alt_sys_init.c
00819228 l     O .rwdata	000000d8 cfi_flash_0
00819300 l     O .rwdata	000000c4 epcs_controller
008193c4 l     O .rwdata	00001060 jtag_uart_0
0081a424 l     O .rwdata	00000120 LCD
0081a544 l     O .rwdata	000000c4 uart_0
00810c00 l     F .text	00000038 alt_dev_reg
00000000 l    df *ABS*	00000000 altera_avalon_cfi_flash.c
00810cd4 l     F .text	00000038 alt_flash_device_register
00000000 l    df *ABS*	00000000 altera_avalon_cfi_flash_table.c
00811ac4 l     F .text	0000007c alt_read_16bit_query_entry
00000000 l    df *ABS*	00000000 altera_avalon_epcs_flash_controller.c
008129d4 l     F .text	000001ec alt_epcs_flash_query
0081299c l     F .text	00000038 alt_flash_device_register
00812bc0 l     F .text	00000108 alt_epcs_flash_memcmp
0081304c l     F .text	00000094 alt_epcs_test_address
00000000 l    df *ABS*	00000000 altera_avalon_jtag_uart_fd.c
00000000 l    df *ABS*	00000000 altera_avalon_jtag_uart_init.c
00813484 l     F .text	00000228 altera_avalon_jtag_uart_irq
008136ac l     F .text	000000b0 altera_avalon_jtag_uart_timeout
00000000 l    df *ABS*	00000000 altera_avalon_jtag_uart_ioctl.c
00000000 l    df *ABS*	00000000 altera_avalon_jtag_uart_read.c
00000000 l    df *ABS*	00000000 altera_avalon_jtag_uart_write.c
00000000 l    df *ABS*	00000000 altera_avalon_lcd_16207.c
0081a64c l     O .rwdata	00000004 colstart
00813d28 l     F .text	000000b8 lcd_write_command
00813de0 l     F .text	000000d4 lcd_write_data
00813eb4 l     F .text	000000c4 lcd_clear_screen
00813f78 l     F .text	000001ec lcd_repaint_screen
00814164 l     F .text	000000c8 lcd_scroll_up
0081422c l     F .text	000002d0 lcd_handle_escape
00814a08 l     F .text	000000cc alt_lcd_16207_timeout
00000000 l    df *ABS*	00000000 altera_avalon_lcd_16207_fd.c
00000000 l    df *ABS*	00000000 altera_avalon_timer_sc.c
00814c68 l     F .text	00000070 alt_avalon_timer_sc_irq
00000000 l    df *ABS*	00000000 altera_avalon_uart_fd.c
00000000 l    df *ABS*	00000000 altera_avalon_uart_init.c
00814f28 l     F .text	0000009c altera_avalon_uart_irq
00814fc4 l     F .text	000000e0 altera_avalon_uart_rxirq
008150a4 l     F .text	0000015c altera_avalon_uart_txirq
00000000 l    df *ABS*	00000000 altera_avalon_uart_read.c
00815490 l     F .text	00000060 alt_get_errno
00000000 l    df *ABS*	00000000 altera_avalon_uart_write.c
008156b8 l     F .text	00000060 alt_get_errno
00000000 l    df *ABS*	00000000 epcs_commands.c
008157f4 l     F .text	00000038 epcs_await_wip_released
0081582c l     F .text	00000038 epcs_test_wip
00000000 l    df *ABS*	00000000 alt_alarm_start.c
00000000 l    df *ABS*	00000000 alt_busy_sleep.c
00000000 l    df *ABS*	00000000 alt_dcache_flush.c
00000000 l    df *ABS*	00000000 alt_dev_llist_insert.c
00815f44 l     F .text	00000060 alt_get_errno
00000000 l    df *ABS*	00000000 alt_do_ctors.c
00000000 l    df *ABS*	00000000 alt_do_dtors.c
00000000 l    df *ABS*	00000000 alt_flash_dev.c
00000000 l    df *ABS*	00000000 alt_iic.c
00000000 l    df *ABS*	00000000 alt_iic_isr_register.c
00000000 l    df *ABS*	00000000 alt_io_redirect.c
00816408 l     F .text	000000c4 alt_open_fd
00000000 l    df *ABS*	00000000 alt_open.c
00816544 l     F .text	000000dc alt_file_locked
008167a8 l     F .text	00000060 alt_get_errno
00000000 l    df *ABS*	00000000 alt_tick.c
00000000 l    df *ABS*	00000000 altera_nios2_qsys_irq.c
00000000 l    df *ABS*	00000000 altera_avalon_cfi_flash_amd.c
00816d70 l     F .text	000000bc alt_write_word_amd
00816c4c l     F .text	00000124 alt_wait_for_command_to_complete_amd
00000000 l    df *ABS*	00000000 altera_avalon_cfi_flash_intel.c
00817024 l     F .text	0000018c alt_unlock_block_intel
008171b0 l     F .text	000000dc alt_write_word_intel
00000000 l    df *ABS*	00000000 altera_avalon_spi.c
00000000 l    df *ABS*	00000000 alt_find_dev.c
00000000 l    df *ABS*	00000000 alt_find_file.c
00000000 l    df *ABS*	00000000 alt_get_fd.c
00000000 l    df *ABS*	00000000 atexit.c
00000000 l    df *ABS*	00000000 ctype_.c
008186d9 l     O .rodata	00000180 _ctype_b
00000000 l    df *ABS*	00000000 exit.c
00000000 l    df *ABS*	00000000 memcmp.c
00000000 l    df *ABS*	00000000 __atexit.c
00000000 l    df *ABS*	00000000 __call_atexit.c
00817924 l     F .text	00000004 register_fini
00000000 l    df *ABS*	00000000 alt_exit.c
00817ad8 l     F .text	00000040 alt_sim_halt
00805918 g     F .text	0000075c get_control
0080c300 g     F .text	00000094 _mprec_log10
00801924 g     F .text	00000054 Hal4D13_GetErrorCode
00812f48 g     F .text	00000090 alt_epcs_flash_get_info
0080c3ec g     F .text	00000088 __any_on
0080daf8 g     F .text	00000070 _isatty_r
00818418 g     O .rodata	00000028 __mprec_tinytens
00810628 g     F .text	0000006c alt_main
00801a98 g     F .text	00000168 Hal4D13_RegAccess
00801878 g     F .text	0000005c Hal4D13_LockDevice
008068e8 g     F .text	000000a0 _puts_r
00811584 g     F .text	00000048 alt_read_query_entry_32bit
0081e7b8 g     O .bss	00000100 alt_irq
00800b38 g     F .text	0000006c get16_bit
0080db68 g     F .text	00000078 _lseek_r
008014c8 g     F .text	00000070 Hal4D13_SetIntEnable
00810d0c g     F .text	000002c0 alt_flash_cfi_write
008016b8 g     F .text	00000040 Hal4D13_SetDMAConfig
0080f304 g     F .text	00000088 __eqdf2
00803dac g     F .text	00000218 make_xbulk
0081ea48 g       *ABS*	00000000 __alt_heap_start
00806870 g     F .text	00000044 printf
0080d5c4 g     F .text	00000068 __sseek
0080a5ac g     F .text	000000a4 __sinit
0080b284 g     F .text	00000084 _setlocale_r
0080a6ac g     F .text	00000068 __sfmoreglue
008106b4 g     F .text	00000020 __malloc_unlock
0081a684 g     O .bss	00000004 hc_data
0080bd7c g     F .text	000000e0 memmove
0080a69c g     F .text	00000010 _cleanup
008038c4 g     F .text	00000270 new_make_ptd
0080c474 g     F .text	000000bc _Balloc
00802e30 g     F .text	0000023c addr_info
00801e94 g     F .text	0000008c LCD_Test
0080f414 g     F .text	00000088 __gtdf2
00000000  w      *UND*	00000000 __errno
00801738 g     F .text	00000040 Hal4D13_SetDMACounter
00815778 g     F .text	0000007c epcs_sector_erase
008017b8 g     F .text	00000040 Hal4D13_GetDataFromChipRam
00811710 g     F .text	00000048 alt_write_flash_command_32bit_device_16bit_mode
00806520 g     F .text	00000058 Set_Pixel_On_Color
01400000 g     F .entry	00000000 __reset
0080da84 g     F .text	00000074 _fstat_r
00811228 g     F .text	000002d8 alt_flash_program_block
0081a6b0 g     O .bss	00000004 errno
008026c4 g     F .text	0000004c set_operational
0081a6bc g     O .bss	00000004 alt_argv
00822608 g       *ABS*	00000000 _gp
00810970 g     F .text	00000030 usleep
0080105c g     F .text	000000fc Hal4D13_ReadBulkEndpoint
00804044 g     F .text	00000254 ptl_ptd
00800688 g     F .text	00000084 erase_all
01b01800 g       *ABS*	00000000 __alt_mem_epcs_controller
008190a8 g     O .rwdata	00000180 alt_fd_list
0080070c g     F .text	00000094 set_all
00815968 g     F .text	00000064 epcs_write_status_register
008174c4 g     F .text	00000094 alt_find_dev
0080bcdc g     F .text	000000a0 memcpy
0080a690 g     F .text	0000000c _cleanup_r
0080f5ac g     F .text	000000f8 __floatsidf
008164cc g     F .text	00000078 alt_io_redirect
0080f524 g     F .text	00000088 __ltdf2
00817ba8 g       *ABS*	00000000 __DTOR_END__
00806988 g     F .text	00000014 puts
00802d14 g     F .text	0000011c error_recorder
008130e0 g     F .text	00000110 alt_epcs_flash_write_block
0080c250 g     F .text	000000b0 __ratio
00801a34 g     F .text	0000001c Hal4D13_ConfigDevice
00802cd0 g     F .text	00000044 send_iso
008138c4 g     F .text	00000224 altera_avalon_jtag_uart_read
00000000  w      *UND*	00000000 malloc
008068b4 g     F .text	00000034 _printf_r
00806860 g     F .text	00000008 __udivsi3
008103b8 g     F .text	000000c0 isatty
008016f8 g     F .text	00000040 Hal4D13_GetDMAConfig
008030cc g     F .text	00000084 set_port_speed
00818328 g     O .rodata	000000c8 __mprec_tens
0080b260 g     F .text	00000008 __locale_charset
0081a6a4 g     O .bss	00000004 __malloc_top_pad
0081a688 g     O .bss	00000004 dc_data
00801f74 g     F .text	000002e8 play_mouse
00801838 g     F .text	00000040 Hal4D13_ReadCurrentFrameNumber
0081a61c g     O .rwdata	00000004 __mb_cur_max
0080b268 g     F .text	0000000c _localeconv_r
0080cb6c g     F .text	0000003c __i2b
0080ac44 g     F .text	0000049c __sfvwrite_r
00804940 g     F .text	0000005c SEG7_Clear
00801a18 g     F .text	0000001c Hal4D13_UnconfigDevice
0080d54c g     F .text	00000070 _sbrk_r
00816e2c g     F .text	00000084 alt_program_intel
0080dbe0 g     F .text	00000078 _read_r
008046e0 g     F .text	00000060 w16
00815e18 g     F .text	00000078 alt_dcache_flush
00818c6c g     O .rwdata	0000000c __lc_ctype
00800c40 g     F .text	0000002c Hal4D13_ResetDevice
0081a63c g     O .rwdata	00000004 alt_max_fd
00811500 g     F .text	00000040 alt_read_query_entry_8bit
0080fd3c g     F .text	00000138 __unpack_d
0080d960 g     F .text	00000110 _fclose_r
0080306c g     F .text	00000060 get_port_speed
00816eb0 g     F .text	00000174 alt_erase_block_intel
0080a510 g     F .text	00000034 fflush
0081a6a8 g     O .bss	00000004 __malloc_max_sbrked_mem
008101f8 g     F .text	000001c0 alt_irq_register
00801538 g     F .text	00000070 Hal4D13_ReadInterruptRegister
0080ec74 g     F .text	00000074 __adddf3
00812fd8 g     F .text	00000074 alt_epcs_flash_erase_block
0080c130 g     F .text	00000120 __b2d
00802584 g     F .text	000000f4 enable_port
0080e234 g     F .text	000005b0 __umoddi3
008104d8 g     F .text	000000f0 lseek
00803fc4 g     F .text	00000080 send_ptl
0081a618 g     O .rwdata	00000004 _global_impure_ptr
008062f0 g     F .text	00000194 set_interface
0080cee8 g     F .text	000005f4 _realloc_r
0081ea48 g       *ABS*	00000000 __bss_end
00816310 g     F .text	000000f8 alt_iic_isr_register
00802710 g     F .text	00000224 port_monitor
008168a0 g     F .text	0000010c alt_tick
0080dc58 g     F .text	000005dc __udivdi3
008183f0 g     O .rodata	00000028 __mprec_bigtens
0080cdc8 g     F .text	00000120 __s2b
0081a664 g     O .bss	00000004 port1speed
0080f77c g     F .text	00000194 __floatunsidf
008066e0 g     F .text	00000044 enable
0080c050 g     F .text	00000060 __mcmp
00814e60 g     F .text	000000c8 altera_avalon_uart_init
0081a660 g     O .rwdata	00000004 __ctype_ptr
0080a678 g     F .text	00000018 __fp_lock_all
008162c8 g     F .text	00000048 alt_ic_irq_enabled
00804a00 g     F .text	00000078 SEG7_Number
00816808 g     F .text	00000098 alt_alarm_stop
0081e774 g     O .bss	00000034 ptd2send
0081a6b4 g     O .bss	00000004 alt_irq_active
01a800ec g     F .exceptions	000000c8 alt_irq_handler
00819080 g     O .rwdata	00000028 alt_dev_null
00804578 g     F .text	00000088 r32
00806484 g     F .text	00000044 Set_Cursor_XY
00811a18 g     F .text	000000ac alt_set_flash_algorithm_func
00800f60 g     F .text	000000fc Hal4D13_ReadEndpoint
0080bf1c g     F .text	00000070 __hi0bits
008044d8 g     F .text	00000048 OneuSDelay
0080f6a4 g     F .text	000000d8 __fixdfsi
008007a0 g     F .text	000000b8 random_read
008115cc g     F .text	0000003c alt_write_flash_command_8bit_device_8bit_mode
00804600 g     F .text	0000008c w32
0081a634 g     O .rwdata	00000008 alt_dev_list
00803308 g     F .text	000000dc send_int
008109a0 g     F .text	00000120 write
00800e34 g     F .text	00000098 Hal4D13_SoftConnect
00804c64 g     F .text	0000002c basic_test
008100c4 g     F .text	000000d4 fstat
00804298 g     F .text	00000240 iso_ptd
0081286c g     F .text	000000dc alt_check_primary_table
008005bc g     F .text	000000cc write_ptl
0080cca8 g     F .text	00000120 __pow5mult
0081a698 g     O .bss	00000004 __nlocale_changed
00806868 g     F .text	00000008 __umodsi3
0081105c g     F .text	00000068 alt_flash_cfi_read
00800ef8 g     F .text	00000034 Hal4D13_ClearBuffer
008117a0 g     F .text	00000034 alt_write_native_8bit
00815aa4 g     F .text	0000006c epcs_read_electronic_signature
0081ea48 g       *ABS*	00000000 end
0081a68c g     O .bss	00000004 hc_com
00811608 g     F .text	0000007c alt_write_flash_command_16bit_device_8bit_mode
0080146c g     F .text	0000005c Hal4D13_GetIntEnable
008144fc g     F .text	0000050c altera_avalon_lcd_16207_write
00806690 g     F .text	00000050 disable
008154f0 g     F .text	000001c8 altera_avalon_uart_write
0080027c g     F .text	0000009c read_atl
00811b40 g     F .text	00000580 alt_read_cfi_table
008133c4 g     F .text	000000c0 altera_avalon_jtag_uart_init
00800d2c g     F .text	0000004c Hal4D13_GetMode
00817ba4 g       *ABS*	00000000 __CTOR_LIST__
01000000 g       *ABS*	00000000 __alt_stack_pointer
00814cd8 g     F .text	00000090 alt_avalon_timer_sc_init
00814dc0 g     F .text	00000058 altera_avalon_uart_write_fd
0080f9a8 g     F .text	00000080 __clzsi2
00814e18 g     F .text	00000048 altera_avalon_uart_close_fd
00813ae8 g     F .text	00000240 altera_avalon_jtag_uart_write
00810c38 g     F .text	0000009c alt_flash_cfi_init
0080a59c g     F .text	00000004 __sfp_lock_acquire
0080bbf8 g     F .text	000000e4 memchr
00806b3c g     F .text	00001eac ___vfprintf_internal_r
00806a10 g     F .text	00000060 _sprintf_r
01400000 g       *ABS*	00000000 __alt_mem_cfi_flash_0
0080a930 g     F .text	00000314 _free_r
00817928 g     F .text	000001b0 __call_exitprocs
0081a69c g     O .bss	00000004 __mlocale_changed
0081a628 g     O .rwdata	00000004 __malloc_sbrk_base
00800000 g     F .text	00000048 _start
0081a6c4 g     O .bss	00000004 _alt_tick_rate
00805110 g     F .text	00000808 get_control_old
00806074 g     F .text	0000027c set_sound
0080c838 g     F .text	0000014c __lshift
0081728c g     F .text	00000238 alt_avalon_spi_command
0081a6c8 g     O .bss	00000004 _alt_nticks
00801254 g     F .text	00000128 Hal4D13_WriteEndpoint
008106d4 g     F .text	00000120 read
00810b54 g     F .text	000000ac alt_sys_init
00801a50 g     F .text	00000048 Hal4D13_SingleTransmitEP0
008177f0 g     F .text	00000134 __register_exitproc
00802678 g     F .text	0000004c reset_usb
00811540 g     F .text	00000044 alt_read_query_entry_16bit
0080c984 g     F .text	000001e8 __multiply
00801650 g     F .text	00000068 Hal4D13_SetEndpointStatus
0081375c g     F .text	00000074 altera_avalon_jtag_uart_close
0081e74c g     O .bss	00000028 __malloc_current_mallinfo
00811838 g     F .text	000001e0 alt_set_flash_width_func
0080c530 g     F .text	0000017c __d2b
00815718 g     F .text	00000060 epcs_read_status_register
00804740 g     F .text	00000094 dc_r32
0081a610 g     O .rwdata	00000001 INT_Enabled
0081327c g     F .text	00000058 altera_avalon_jtag_uart_read_fd
00817678 g     F .text	000000b8 alt_get_fd
00815ccc g     F .text	0000014c alt_busy_sleep
0080fe74 g     F .text	000000c8 __fpcmp_parts_d
00804874 g     F .text	0000005c dc_r16
0080d8f0 g     F .text	00000070 _close_r
00801c3c g     F .text	0000003c Hal4D13_StallEP0InControlRead
00800858 g     F .text	000000bc random_write
00816a34 g     F .text	00000218 alt_erase_block_amd
00815b10 g     F .text	00000068 epcs_read_device_id
0081777c g     F .text	00000074 memcmp
0081332c g     F .text	00000048 altera_avalon_jtag_uart_close_fd
0081ea48 g       *ABS*	00000000 __alt_stack_base
00813374 g     F .text	00000050 altera_avalon_jtag_uart_ioctl_fd
00808a0c g     F .text	0000013c __swsetup_r
008120c0 g     F .text	000007ac alt_read_cfi_width
0080f0ac g     F .text	00000258 __divdf3
0080a714 g     F .text	000000f0 __sfp
0080c394 g     F .text	00000058 __copybits
00818c78 g     O .rwdata	00000408 __malloc_av_
0080a5a8 g     F .text	00000004 __sinit_lock_release
0080ece8 g     F .text	000003c4 __muldf3
0080d6a8 g     F .text	00000060 __sread
00804f6c g     F .text	000001a4 set_config
0081a608 g     O .rwdata	00000004 wait_time
0080499c g     F .text	00000064 SEG7_Full
00803654 g     F .text	00000270 make_ptd
00800ba4 g     F .text	00000060 read_key
00817558 g     F .text	00000120 alt_find_file
00804b48 g     F .text	000000e4 SEG7_Decimal
00815e90 g     F .text	000000b4 alt_dev_llist_insert
00810694 g     F .text	00000020 __malloc_lock
008108b4 g     F .text	000000bc sbrk
00800128 g     F .text	000000ac direct_read
00800048 g     F .text	00000078 Set_DirAddrLen
0081a690 g     O .bss	00000004 dc_com
0080a314 g     F .text	000001fc _fflush_r
0080d83c g     F .text	000000b4 _calloc_r
0081a650 g     O .rwdata	00000008 alt_flash_dev_list
008116cc g     F .text	00000044 alt_write_flash_command_16bit_device_16bit_mode
008015a8 g     F .text	00000054 Hal4D13_GetEndpointStatusWInteruptClear
0081a664 g       *ABS*	00000000 __bss_start
008000c0 g     F .text	00000068 make_DirAddrLen
00801d34 g     F .text	0000009c LCD_Init
0080be5c g     F .text	00000098 memset
00800cec g     F .text	00000040 Hal4D13_SetMode
008065d0 g     F .text	000000c0 main
0081a6c0 g     O .bss	00000004 alt_envp
0081a6ac g     O .bss	00000004 __malloc_max_total_mem
008048d0 g     F .text	00000070 dc_w16
008132d4 g     F .text	00000058 altera_avalon_jtag_uart_write_fd
008064c8 g     F .text	00000058 Set_Cursor_Color
00804ddc g     F .text	00000190 set_address
00814ad4 g     F .text	0000013c altera_avalon_lcd_16207_init
00801e58 g     F .text	0000003c LCD_Line2
0080d5bc g     F .text	00000008 __sclose
01000000 g       *ABS*	00000000 __alt_heap_limit
00801978 g     F .text	00000054 Hal4D13_GetEndpointConfig
0080da70 g     F .text	00000014 fclose
0081e8b8 g     O .bss	00000190 _atexit0
00808d60 g     F .text	000015b4 _dtoa_r
0080b4b8 g     F .text	00000740 _malloc_r
0081a640 g     O .rwdata	00000004 alt_errno
00800d78 g     F .text	0000004c Hal4D13_GetAddress
008004f4 g     F .text	000000c8 read_ptl
00811758 g     F .text	00000048 alt_write_flash_command_32bit_device_32bit_mode
00803150 g     F .text	0000003c poll
0080b1a8 g     F .text	000000b8 _fwalk
008110c4 g     F .text	00000164 alt_write_value_to_flash
008117d4 g     F .text	00000034 alt_write_native_16bit
008067a0 g     F .text	00000060 __divsi3
0081844c g     O .rodata	00000014 __thenan_df
00801c00 g     F .text	0000003c Hal4D13_StallEP0InControlWrite
0080a804 g     F .text	0000012c _malloc_trim_r
0080468c g     F .text	00000054 r16
00817ba8 g       *ABS*	00000000 __CTOR_END__
00812cc8 g     F .text	00000280 alt_epcs_flash_write
0080d708 g     F .text	000000bc strcmp
00817ba8 g       *ABS*	00000000 __DTOR_LIST__
00801cf8 g     F .text	0000003c Read_HC_Config_Reg
00800f2c g     F .text	00000034 Hal4D13_ValidBuffer
008018d4 g     F .text	00000050 Hal4D13_ReadChipID
0081a60c g     O .rwdata	00000004 retry
0080137c g     F .text	000000f0 Hal4D13_WriteBulkEndpoint
0080f38c g     F .text	00000088 __nedf2
01a80000 g       *ABS*	00000000 __alt_mem_sram_0
00810b20 g     F .text	00000034 alt_irq_init
0081a668 g     O .bss	00000004 port2speed
00801dd0 g     F .text	00000088 LCD_Show_Text
00810854 g     F .text	00000060 alt_release_fd
00801f20 g     F .text	00000054 maxmin
00804c48 g     F .text	0000001c init_button_irq
0080699c g     F .text	00000074 sprintf
00818460 g     O .rodata	00000100 __clz_tab
00804a78 g     F .text	000000d0 SEG7_Hex
0081a6a0 g     O .bss	00000004 _PathLocale
00817730 g     F .text	00000014 atexit
00800cac g     F .text	00000040 Hal4D13_SetDevConfig
0080d7c4 g     F .text	00000078 _write_r
00800c6c g     F .text	00000040 Hal4D13_GetDevConfig
0080b308 g     F .text	0000001c setlocale
00801c78 g     F .text	00000040 Hal4D13_IsSetupPktInvalid
00800454 g     F .text	000000a0 write_int
0081a614 g     O .rwdata	00000004 _impure_ptr
0081a6b8 g     O .bss	00000004 alt_argc
008003b8 g     F .text	0000009c read_int
00816008 g     F .text	00000064 _do_dtors
00800000 g       *ABS*	00000000 __alt_mem_sdram_0
01a80020 g       .exceptions	00000000 alt_irq_entry
008033e4 g     F .text	00000270 full_ptd
0080c0b0 g     F .text	00000080 __ulp
0080d4dc g     F .text	00000040 __isinfd
0080a660 g     F .text	00000018 __fp_unlock_all
0080225c g     F .text	00000328 mouse
00814c10 g     F .text	00000058 altera_avalon_lcd_16207_write_fd
0081a62c g     O .rwdata	00000008 alt_fs_list
00811684 g     F .text	00000048 alt_write_flash_command_32bit_device_8bit_mode
00806578 g     F .text	00000058 Set_Pixel_Off_Color
0080b274 g     F .text	00000010 localeconv
00815864 g     F .text	000000b4 epcs_read_buffer
00812948 g     F .text	00000054 alt_epcs_flash_init
008047d4 g     F .text	000000a0 dc_w32
0081613c g     F .text	00000050 alt_ic_isr_register
008019cc g     F .text	0000004c Hal4D13_SetEndpointConfig
0081a664 g       *ABS*	00000000 _edata
00814d68 g     F .text	00000058 altera_avalon_uart_read_fd
00802934 g     F .text	0000015c check_ports
0081ea48 g       *ABS*	00000000 _end
0081606c g     F .text	0000007c alt_flash_open_dev
008137d0 g     F .text	000000f4 altera_avalon_jtag_uart_ioctl
00801cb8 g     F .text	00000040 Write_HC_Config_Reg
00816228 g     F .text	000000a0 alt_ic_irq_disable
00800dc4 g     F .text	00000070 Hal4D13_SetAddressEnable
0080d62c g     F .text	0000007c __swrite
0081a624 g     O .rwdata	00000004 __malloc_trim_threshold
008017f8 g     F .text	00000040 Hal4D13_SetDataToChipRam
00800318 g     F .text	000000a0 write_atl
008169ac g     F .text	00000020 altera_nios2_qsys_irq_init
00817744 g     F .text	00000038 exit
0081e7a8 g     O .bss	00000010 c_ptd
0080b0e0 g     F .text	000000c8 _fwalk_reent
0080c6ac g     F .text	0000018c __mdiff
008160e8 g     F .text	00000054 alt_flash_close_dev
00806800 g     F .text	00000060 __modsi3
01000000 g       *ABS*	00000000 __alt_data_end
01a80020 g     F .exceptions	00000000 alt_exception
0080a5a0 g     F .text	00000004 __sfp_lock_release
00800ecc g     F .text	0000002c Hal4D13_AcknowledgeSETUP
00801778 g     F .text	00000040 Hal4D13_GetDMACounter
008185d8 g     O .rodata	00000101 _ctype_
00815200 g     F .text	00000060 altera_avalon_uart_close
00800a00 g     F .text	000000bc convert_string
00817b18 g     F .text	00000020 _exit
0080d51c g     F .text	00000030 __isnand
00815b78 g     F .text	00000154 alt_alarm_start
008015fc g     F .text	00000054 Hal4D13_GetEndpointStatusWOInteruptClear
0080f910 g     F .text	00000098 __muldi3
0080b324 g     F .text	00000194 __smakebuf_r
00811808 g     F .text	00000030 alt_write_native_32bit
00804c90 g     F .text	0000014c device_info
00806a70 g     F .text	00000074 strlen
00800914 g     F .text	000000ec see_buf
00815918 g     F .text	00000050 epcs_write_enable
00816620 g     F .text	00000188 open
0080f49c g     F .text	00000088 __gedf2
00804520 g     F .text	00000058 uSDelay
00810fcc g     F .text	00000090 alt_flash_cfi_get_info
0081a644 g     O .rwdata	00000004 alt_priority_mask
0081618c g     F .text	0000009c alt_ic_irq_enable
008089e8 g     F .text	00000024 __vfprintf_internal
00815260 g     F .text	00000230 altera_avalon_uart_read
0080ebf4 g     F .text	00000080 __subdf3
00803b34 g     F .text	00000278 make_int_ptd
008131f0 g     F .text	0000008c alt_epcs_flash_read
008001d4 g     F .text	000000a8 direct_write
0080bf8c g     F .text	000000c4 __lo0bits
0080318c g     F .text	0000017c send_control
0081a658 g     O .rwdata	00000008 alt_alarm_list
00815fa4 g     F .text	00000064 _do_ctors
0081a694 g     O .bss	00000004 status
00801158 g     F .text	000000fc Hal4D13_ReadEndpointWOClearBuffer
00804c2c g     F .text	0000001c handle_button_interrupts
0080ff3c g     F .text	000000fc close
008169cc g     F .text	00000068 alt_program_amd
00800c04 g     F .text	0000003c Hal4D13_AcquireD13
00802a90 g     F .text	00000240 assign_address
0080fa28 g     F .text	00000314 __pack_d
00800abc g     F .text	0000007c array_app
00000000  w      *UND*	00000000 free
0080a5a4 g     F .text	00000004 __sinit_lock_acquire
008159cc g     F .text	000000d8 epcs_write_buffer
0080cba8 g     F .text	00000100 __multadd
0080bef4 g     F .text	00000028 _Bfree
0081a66c g     O .bss	00000004 port_speed



Disassembly of section .exceptions:

01a80020 <alt_exception>:
         * Process an exception.  For all exceptions we must preserve all
         * caller saved registers on the stack (See the Nios2 ABI
         * documentation for details).
         */

        addi  sp, sp, -76
 1a80020:	deffed04 	addi	sp,sp,-76

#endif

#endif

        stw   ra,  0(sp)
 1a80024:	dfc00015 	stw	ra,0(sp)
        /*
         * Leave a gap in the stack frame at 4(sp) for the muldiv handler to
         * store zero into.
         */

        stw   r1,   8(sp)
 1a80028:	d8400215 	stw	at,8(sp)
        stw   r2,  12(sp)
 1a8002c:	d8800315 	stw	r2,12(sp)
        stw   r3,  16(sp)
 1a80030:	d8c00415 	stw	r3,16(sp)
        stw   r4,  20(sp)
 1a80034:	d9000515 	stw	r4,20(sp)
        stw   r5,  24(sp)
 1a80038:	d9400615 	stw	r5,24(sp)
        stw   r6,  28(sp)
 1a8003c:	d9800715 	stw	r6,28(sp)
        stw   r7,  32(sp)
 1a80040:	d9c00815 	stw	r7,32(sp)

        rdctl r5, estatus
 1a80044:	000b307a 	rdctl	r5,estatus

        stw   r8,  36(sp)
 1a80048:	da000915 	stw	r8,36(sp)
        stw   r9,  40(sp)
 1a8004c:	da400a15 	stw	r9,40(sp)
        stw   r10, 44(sp)
 1a80050:	da800b15 	stw	r10,44(sp)
        stw   r11, 48(sp)
 1a80054:	dac00c15 	stw	r11,48(sp)
        stw   r12, 52(sp)
 1a80058:	db000d15 	stw	r12,52(sp)
        stw   r13, 56(sp)
 1a8005c:	db400e15 	stw	r13,56(sp)
        stw   r14, 60(sp)
 1a80060:	db800f15 	stw	r14,60(sp)
        stw   r15, 64(sp)
 1a80064:	dbc01015 	stw	r15,64(sp)
        /*
         * ea-4 contains the address of the instruction being executed
         * when the exception occured. For interrupt exceptions, we will
         * will be re-issue the isntruction. Store it in 72(sp)
         */
        stw   r5,  68(sp)  /* estatus */
 1a80068:	d9401115 	stw	r5,68(sp)
        addi  r15, ea, -4  /* instruction that caused exception */
 1a8006c:	ebffff04 	addi	r15,ea,-4
        stw   r15,  72(sp)
 1a80070:	dbc01215 	stw	r15,72(sp)
#else
        /*
         * Test to see if the exception was a software exception or caused 
         * by an external interrupt, and vector accordingly.
         */
        rdctl r4, ipending
 1a80074:	0009313a 	rdctl	r4,ipending
        andi  r2, r5, 1
 1a80078:	2880004c 	andi	r2,r5,1
        beq   r2, zero, .Lnot_irq
 1a8007c:	10000326 	beq	r2,zero,1a8008c <alt_exception+0x6c>
        beq   r4, zero, .Lnot_irq
 1a80080:	20000226 	beq	r4,zero,1a8008c <alt_exception+0x6c>
        /*
         * Now that all necessary registers have been preserved, call 
         * alt_irq_handler() to process the interrupts.
         */

        call alt_irq_handler
 1a80084:	1a800ec0 	call	1a800ec <alt_irq_handler>

        .section .exceptions.irqreturn, "xa"

        br    .Lexception_exit
 1a80088:	00000306 	br	1a80098 <alt_exception+0x78>
         * upon completion, so we write ea (address of instruction *after*
         * the one where the exception occured) into 72(sp). The actual
         * instruction that caused the exception is written in r2, which these
         * handlers will utilize.
         */
        stw   ea,  72(sp)  /* Don't re-issue */
 1a8008c:	df401215 	stw	ea,72(sp)
        ldw   r2, -4(ea)   /* Instruction that caused exception */
 1a80090:	e8bfff17 	ldw	r2,-4(ea)
#ifdef NIOS2_HAS_DEBUG_STUB
       /*
        *  Either tell the user now (if there is a debugger attached) or go into
        *  the debug monitor which will loop until a debugger is attached.
        */
        break
 1a80094:	003da03a 	break	0
        /* 
         * Restore the saved registers, so that all general purpose registers 
         * have been restored to their state at the time the interrupt occured.
         */

        ldw   r5,  68(sp)
 1a80098:	d9401117 	ldw	r5,68(sp)
        ldw   ea,  72(sp)  /* This becomes the PC once eret is executed */
 1a8009c:	df401217 	ldw	ea,72(sp)
        ldw   ra,   0(sp)
 1a800a0:	dfc00017 	ldw	ra,0(sp)

        wrctl estatus, r5
 1a800a4:	2801707a 	wrctl	estatus,r5

        ldw   r1,   8(sp)
 1a800a8:	d8400217 	ldw	at,8(sp)
        ldw   r2,  12(sp)
 1a800ac:	d8800317 	ldw	r2,12(sp)
        ldw   r3,  16(sp)
 1a800b0:	d8c00417 	ldw	r3,16(sp)
        ldw   r4,  20(sp)
 1a800b4:	d9000517 	ldw	r4,20(sp)
        ldw   r5,  24(sp)
 1a800b8:	d9400617 	ldw	r5,24(sp)
        ldw   r6,  28(sp)
 1a800bc:	d9800717 	ldw	r6,28(sp)
        ldw   r7,  32(sp)
 1a800c0:	d9c00817 	ldw	r7,32(sp)
#ifdef ALT_STACK_CHECK
        ldw   et, %gprel(alt_exception_old_stack_limit)(gp)
#endif
#endif

        ldw   r8,  36(sp)
 1a800c4:	da000917 	ldw	r8,36(sp)
        ldw   r9,  40(sp)
 1a800c8:	da400a17 	ldw	r9,40(sp)
        ldw   r10, 44(sp)
 1a800cc:	da800b17 	ldw	r10,44(sp)
        ldw   r11, 48(sp)
 1a800d0:	dac00c17 	ldw	r11,48(sp)
        ldw   r12, 52(sp)
 1a800d4:	db000d17 	ldw	r12,52(sp)
        ldw   r13, 56(sp)
 1a800d8:	db400e17 	ldw	r13,56(sp)
        ldw   r14, 60(sp)
 1a800dc:	db800f17 	ldw	r14,60(sp)
        ldw   r15, 64(sp)
 1a800e0:	dbc01017 	ldw	r15,64(sp)
#endif

        ldw   sp,  76(sp)

#else
        addi  sp, sp, 76
 1a800e4:	dec01304 	addi	sp,sp,76

        /*
         * Return to the interrupted instruction.
         */

        eret
 1a800e8:	ef80083a 	eret

01a800ec <alt_irq_handler>:
 * instruction is present if the macro ALT_CI_INTERRUPT_VECTOR defined.
 */

void alt_irq_handler (void) __attribute__ ((section (".exceptions")));
void alt_irq_handler (void)
{
 1a800ec:	defff904 	addi	sp,sp,-28
 1a800f0:	dfc00615 	stw	ra,24(sp)
 1a800f4:	df000515 	stw	fp,20(sp)
 1a800f8:	df000504 	addi	fp,sp,20
#ifndef NIOS2_EIC_PRESENT
static ALT_INLINE alt_u32 ALT_ALWAYS_INLINE alt_irq_pending (void)
{
  alt_u32 active;

  NIOS2_READ_IPENDING (active);
 1a800fc:	0005313a 	rdctl	r2,ipending
 1a80100:	e0bffc15 	stw	r2,-16(fp)

  return active;
 1a80104:	e0bffc17 	ldw	r2,-16(fp)
   * Consider the case where the high priority interupt is asserted during
   * the interrupt entry sequence for a lower priority interrupt to see why
   * this is the case.
   */

  active = alt_irq_pending ();
 1a80108:	e0bfff15 	stw	r2,-4(fp)

  do
  {
    i = 0;
 1a8010c:	e03ffd15 	stw	zero,-12(fp)
    mask = 1;
 1a80110:	00800044 	movi	r2,1
 1a80114:	e0bffe15 	stw	r2,-8(fp)
     * called to clear the interrupt condition.
     */

    do
    {
      if (active & mask)
 1a80118:	e0ffff17 	ldw	r3,-4(fp)
 1a8011c:	e0bffe17 	ldw	r2,-8(fp)
 1a80120:	1884703a 	and	r2,r3,r2
 1a80124:	1005003a 	cmpeq	r2,r2,zero
 1a80128:	1000161e 	bne	r2,zero,1a80184 <alt_irq_handler+0x98>
      { 
#ifdef ALT_ENHANCED_INTERRUPT_API_PRESENT
        alt_irq[i].handler(alt_irq[i].context); 
 1a8012c:	e0bffd17 	ldw	r2,-12(fp)
 1a80130:	00c020b4 	movhi	r3,130
 1a80134:	18f9ee04 	addi	r3,r3,-6216
 1a80138:	100490fa 	slli	r2,r2,3
 1a8013c:	10c5883a 	add	r2,r2,r3
 1a80140:	11400017 	ldw	r5,0(r2)
 1a80144:	e0bffd17 	ldw	r2,-12(fp)
 1a80148:	00c020b4 	movhi	r3,130
 1a8014c:	18f9ee04 	addi	r3,r3,-6216
 1a80150:	100490fa 	slli	r2,r2,3
 1a80154:	10c5883a 	add	r2,r2,r3
 1a80158:	10800104 	addi	r2,r2,4
 1a8015c:	11000017 	ldw	r4,0(r2)
 1a80160:	283ee83a 	callr	r5
#ifndef NIOS2_EIC_PRESENT
static ALT_INLINE alt_u32 ALT_ALWAYS_INLINE alt_irq_pending (void)
{
  alt_u32 active;

  NIOS2_READ_IPENDING (active);
 1a80164:	0005313a 	rdctl	r2,ipending
 1a80168:	e0bffb15 	stw	r2,-20(fp)

  return active;
 1a8016c:	e0bffb17 	ldw	r2,-20(fp)
      mask <<= 1;
      i++;

    } while (1);

    active = alt_irq_pending ();
 1a80170:	e0bfff15 	stw	r2,-4(fp)
    
  } while (active);
 1a80174:	e0bfff17 	ldw	r2,-4(fp)
 1a80178:	1004c03a 	cmpne	r2,r2,zero
 1a8017c:	103fe31e 	bne	r2,zero,1a8010c <alt_irq_handler+0x20>
 1a80180:	00000706 	br	1a801a0 <alt_irq_handler+0xb4>
#else
        alt_irq[i].handler(alt_irq[i].context, i); 
#endif
        break;
      }
      mask <<= 1;
 1a80184:	e0bffe17 	ldw	r2,-8(fp)
 1a80188:	1085883a 	add	r2,r2,r2
 1a8018c:	e0bffe15 	stw	r2,-8(fp)
      i++;
 1a80190:	e0bffd17 	ldw	r2,-12(fp)
 1a80194:	10800044 	addi	r2,r2,1
 1a80198:	e0bffd15 	stw	r2,-12(fp)

    } while (1);
 1a8019c:	003fde06 	br	1a80118 <alt_irq_handler+0x2c>
  /*
   * Notify the operating system that interrupt processing is complete.
   */ 

  ALT_OS_INT_EXIT();
}
 1a801a0:	e037883a 	mov	sp,fp
 1a801a4:	dfc00117 	ldw	ra,4(sp)
 1a801a8:	df000017 	ldw	fp,0(sp)
 1a801ac:	dec00204 	addi	sp,sp,8
 1a801b0:	f800283a 	ret

Disassembly of section .text:

00800000 <_start>:

    /* Assume the data cache size is always a power of two. */
#if NIOS2_DCACHE_SIZE > 0x8000
    movhi r2, %hi(NIOS2_DCACHE_SIZE)
#else
    movui r2, NIOS2_DCACHE_SIZE
  800000:	00820014 	movui	r2,2048
#endif

0:
    initd 0(r2)
  800004:	10000033 	initd	0(r2)
    addi r2, r2, -NIOS2_DCACHE_LINE_SIZE
  800008:	10bfff04 	addi	r2,r2,-4
    bgt r2, zero, 0b
  80000c:	00bffd16 	blt	zero,r2,800004 <_start+0x4>
#if (NIOS2_NUM_OF_SHADOW_REG_SETS == 0)    
    /*
     * Now that the caches are initialized, set up the stack pointer.
     * The value provided by the linker is assumed to be correctly aligned.
     */
    movhi sp, %hi(__alt_stack_pointer)
  800010:	06c04034 	movhi	sp,256
    ori sp, sp, %lo(__alt_stack_pointer)
  800014:	dec00014 	ori	sp,sp,0

    /* Set up the global pointer. */
    movhi gp, %hi(_gp)
  800018:	068020b4 	movhi	gp,130
    ori gp, gp, %lo(_gp)
  80001c:	d6898214 	ori	gp,gp,9736
 */
#ifndef ALT_SIM_OPTIMIZE
    /* Log that the BSS is about to be cleared. */
    ALT_LOG_PUTS(alt_log_msg_bss)

    movhi r2, %hi(__bss_start)
  800020:	00802074 	movhi	r2,129
    ori r2, r2, %lo(__bss_start)
  800024:	10a99914 	ori	r2,r2,42596

    movhi r3, %hi(__bss_end)
  800028:	00c02074 	movhi	r3,129
    ori r3, r3, %lo(__bss_end)
  80002c:	18fa9214 	ori	r3,r3,59976

    beq r2, r3, 1f
  800030:	10c00326 	beq	r2,r3,800040 <_start+0x40>

0:
    stw zero, (r2)
  800034:	10000015 	stw	zero,0(r2)
    addi r2, r2, 4
  800038:	10800104 	addi	r2,r2,4
    bltu r2, r3, 0b
  80003c:	10fffd36 	bltu	r2,r3,800034 <_start+0x34>

    /* Log that alt_main is about to be called. */
    ALT_LOG_PUTS(alt_log_msg_alt_main)

    /* Call the C entry point. It should never return. */
    call alt_main
  800040:	08106280 	call	810628 <alt_main>

00800044 <alt_after_alt_main>:

    /* Wait in infinite loop in case alt_main does return. */
alt_after_alt_main:
    br alt_after_alt_main
  800044:	003fff06 	br	800044 <alt_after_alt_main>

00800048 <Set_DirAddrLen>:

#include <stdio.h>


void Set_DirAddrLen(unsigned int count,unsigned char flow,unsigned int addr)
{
  800048:	defffa04 	addi	sp,sp,-24
  80004c:	dfc00515 	stw	ra,20(sp)
  800050:	df000415 	stw	fp,16(sp)
  800054:	df000404 	addi	fp,sp,16
  800058:	e13ffd15 	stw	r4,-12(fp)
  80005c:	e1bfff15 	stw	r6,-4(fp)
  800060:	e17ffe05 	stb	r5,-8(fp)
 unsigned long addr2return;

 addr2return =(long)(addr&0x7FFF);
  800064:	e0bfff17 	ldw	r2,-4(fp)
  800068:	109fffcc 	andi	r2,r2,32767
  80006c:	e0bffc15 	stw	r2,-16(fp)
 addr2return|=((long)flow)<<15;
  800070:	e0bffe03 	ldbu	r2,-8(fp)
  800074:	100493fa 	slli	r2,r2,15
  800078:	1007883a 	mov	r3,r2
  80007c:	e0bffc17 	ldw	r2,-16(fp)
  800080:	10c4b03a 	or	r2,r2,r3
  800084:	e0bffc15 	stw	r2,-16(fp)
 addr2return|=(((long)count)<<16);
  800088:	e0bffd17 	ldw	r2,-12(fp)
  80008c:	1004943a 	slli	r2,r2,16
  800090:	1007883a 	mov	r3,r2
  800094:	e0bffc17 	ldw	r2,-16(fp)
  800098:	10c4b03a 	or	r2,r2,r3
  80009c:	e0bffc15 	stw	r2,-16(fp)

 w32(HcDirAddrLen,addr2return);
  8000a0:	01000c84 	movi	r4,50
  8000a4:	e17ffc17 	ldw	r5,-16(fp)
  8000a8:	08046000 	call	804600 <w32>
}
  8000ac:	e037883a 	mov	sp,fp
  8000b0:	dfc00117 	ldw	ra,4(sp)
  8000b4:	df000017 	ldw	fp,0(sp)
  8000b8:	dec00204 	addi	sp,sp,8
  8000bc:	f800283a 	ret

008000c0 <make_DirAddrLen>:

long make_DirAddrLen(unsigned int count,unsigned char flow,unsigned int addr)
{
  8000c0:	defffb04 	addi	sp,sp,-20
  8000c4:	df000415 	stw	fp,16(sp)
  8000c8:	df000404 	addi	fp,sp,16
  8000cc:	e13ffd15 	stw	r4,-12(fp)
  8000d0:	e1bfff15 	stw	r6,-4(fp)
  8000d4:	e17ffe05 	stb	r5,-8(fp)
 unsigned long addr2return;

 addr2return =(long)(addr&0x7FFF);
  8000d8:	e0bfff17 	ldw	r2,-4(fp)
  8000dc:	109fffcc 	andi	r2,r2,32767
  8000e0:	e0bffc15 	stw	r2,-16(fp)
 addr2return|=((long)flow)<<15;
  8000e4:	e0bffe03 	ldbu	r2,-8(fp)
  8000e8:	100493fa 	slli	r2,r2,15
  8000ec:	1007883a 	mov	r3,r2
  8000f0:	e0bffc17 	ldw	r2,-16(fp)
  8000f4:	10c4b03a 	or	r2,r2,r3
  8000f8:	e0bffc15 	stw	r2,-16(fp)
 addr2return|=(((long)count)<<16);
  8000fc:	e0bffd17 	ldw	r2,-12(fp)
  800100:	1004943a 	slli	r2,r2,16
  800104:	1007883a 	mov	r3,r2
  800108:	e0bffc17 	ldw	r2,-16(fp)
  80010c:	10c4b03a 	or	r2,r2,r3
  800110:	e0bffc15 	stw	r2,-16(fp)

 return(addr2return);
  800114:	e0bffc17 	ldw	r2,-16(fp)
}
  800118:	e037883a 	mov	sp,fp
  80011c:	df000017 	ldw	fp,0(sp)
  800120:	dec00104 	addi	sp,sp,4
  800124:	f800283a 	ret

00800128 <direct_read>:

void direct_read(unsigned int *a_ptr)
{
  800128:	defff704 	addi	sp,sp,-36
  80012c:	dfc00815 	stw	ra,32(sp)
  800130:	df000715 	stw	fp,28(sp)
  800134:	df000704 	addi	fp,sp,28
  800138:	e13fff15 	stw	r4,-4(fp)
 unsigned long word_cnt,test_target;
 unsigned int test_size=4096;
  80013c:	00840004 	movi	r2,4096
  800140:	e0bffc15 	stw	r2,-16(fp)
 unsigned long DirAddrLen_data;
 unsigned cnt;
 unsigned long rb;

 DirAddrLen_data=make_DirAddrLen(test_size,0,0);
  800144:	e13ffc17 	ldw	r4,-16(fp)
  800148:	000b883a 	mov	r5,zero
  80014c:	000d883a 	mov	r6,zero
  800150:	08000c00 	call	8000c0 <make_DirAddrLen>
  800154:	e0bffb15 	stw	r2,-20(fp)
 w32(HcDirAddrLen,DirAddrLen_data);
  800158:	01000c84 	movi	r4,50
  80015c:	e17ffb17 	ldw	r5,-20(fp)
  800160:	08046000 	call	804600 <w32>

 USB_HC_CMD_WRITE(HcDirAddr_Port);//IOWR(ISP1362_BASE,HC_COMMAND_PORT,HcDirAddr_Port);
  800164:	00c06c34 	movhi	r3,432
  800168:	18c83d04 	addi	r3,r3,8436
  80016c:	00801144 	movi	r2,69
  800170:	18800035 	stwio	r2,0(r3)

 uSDelay(10);	//waste some time
  800174:	01000284 	movi	r4,10
  800178:	08045200 	call	804520 <uSDelay>

 cnt=0;
  80017c:	e03ffa15 	stw	zero,-24(fp)
  do
   {
    *(a_ptr+cnt)=USB_HC_DATA_READ();//IORD(ISP1362_BASE,HC_DATA_PORT);
  800180:	e0bffa17 	ldw	r2,-24(fp)
  800184:	1085883a 	add	r2,r2,r2
  800188:	1085883a 	add	r2,r2,r2
  80018c:	1007883a 	mov	r3,r2
  800190:	e0bfff17 	ldw	r2,-4(fp)
  800194:	1887883a 	add	r3,r3,r2
  800198:	00806c34 	movhi	r2,432
  80019c:	10883c04 	addi	r2,r2,8432
  8001a0:	10800037 	ldwio	r2,0(r2)
  8001a4:	18800015 	stw	r2,0(r3)
	cnt++;
  8001a8:	e0bffa17 	ldw	r2,-24(fp)
  8001ac:	10800044 	addi	r2,r2,1
  8001b0:	e0bffa15 	stw	r2,-24(fp)
   }
  while(cnt<2048);
  8001b4:	e0bffa17 	ldw	r2,-24(fp)
  8001b8:	10820030 	cmpltui	r2,r2,2048
  8001bc:	103ff01e 	bne	r2,zero,800180 <direct_read+0x58>
}
  8001c0:	e037883a 	mov	sp,fp
  8001c4:	dfc00117 	ldw	ra,4(sp)
  8001c8:	df000017 	ldw	fp,0(sp)
  8001cc:	dec00204 	addi	sp,sp,8
  8001d0:	f800283a 	ret

008001d4 <direct_write>:

void direct_write(unsigned int *w_ptr)
{
  8001d4:	defff704 	addi	sp,sp,-36
  8001d8:	dfc00815 	stw	ra,32(sp)
  8001dc:	df000715 	stw	fp,28(sp)
  8001e0:	df000704 	addi	fp,sp,28
  8001e4:	e13fff15 	stw	r4,-4(fp)
 unsigned long DirAddrLen_data;
 unsigned cnt;
 unsigned long rb;
 unsigned long *data_ptr;

 DirAddrLen_data=make_DirAddrLen(4096,0,0);
  8001e8:	01040004 	movi	r4,4096
  8001ec:	000b883a 	mov	r5,zero
  8001f0:	000d883a 	mov	r6,zero
  8001f4:	08000c00 	call	8000c0 <make_DirAddrLen>
  8001f8:	e0bffc15 	stw	r2,-16(fp)
 w32(HcDirAddrLen,DirAddrLen_data);
  8001fc:	01000c84 	movi	r4,50
  800200:	e17ffc17 	ldw	r5,-16(fp)
  800204:	08046000 	call	804600 <w32>

 USB_HC_CMD_WRITE(HcDirAddr_Port|0x80);//IOWR(ISP1362_BASE,HC_COMMAND_PORT,HcDirAddr_Port|0x80);
  800208:	00c06c34 	movhi	r3,432
  80020c:	18c83d04 	addi	r3,r3,8436
  800210:	00803144 	movi	r2,197
  800214:	18800035 	stwio	r2,0(r3)

 uSDelay(10);	//waste some time
  800218:	01000284 	movi	r4,10
  80021c:	08045200 	call	804520 <uSDelay>

 cnt=0;
  800220:	e03ffb15 	stw	zero,-20(fp)
  do
   {
    USB_HC_DATA_WRITE(*(w_ptr+cnt));//IOWR(ISP1362_BASE,HC_DATA_PORT,*(w_ptr+cnt));
  800224:	e0bffb17 	ldw	r2,-20(fp)
  800228:	1085883a 	add	r2,r2,r2
  80022c:	1085883a 	add	r2,r2,r2
  800230:	1007883a 	mov	r3,r2
  800234:	e0bfff17 	ldw	r2,-4(fp)
  800238:	1885883a 	add	r2,r3,r2
  80023c:	10800017 	ldw	r2,0(r2)
  800240:	1007883a 	mov	r3,r2
  800244:	00806c34 	movhi	r2,432
  800248:	10883c04 	addi	r2,r2,8432
  80024c:	10c00035 	stwio	r3,0(r2)
	cnt++;
  800250:	e0bffb17 	ldw	r2,-20(fp)
  800254:	10800044 	addi	r2,r2,1
  800258:	e0bffb15 	stw	r2,-20(fp)
   }
  while(cnt<2048);
  80025c:	e0bffb17 	ldw	r2,-20(fp)
  800260:	10820030 	cmpltui	r2,r2,2048
  800264:	103fef1e 	bne	r2,zero,800224 <direct_write+0x50>
}
  800268:	e037883a 	mov	sp,fp
  80026c:	dfc00117 	ldw	ra,4(sp)
  800270:	df000017 	ldw	fp,0(sp)
  800274:	dec00204 	addi	sp,sp,8
  800278:	f800283a 	ret

0080027c <read_atl>:

void read_atl(unsigned int *a_ptr, unsigned int data_size)
{
  80027c:	defffb04 	addi	sp,sp,-20
  800280:	dfc00415 	stw	ra,16(sp)
  800284:	df000315 	stw	fp,12(sp)
  800288:	df000304 	addi	fp,sp,12
  80028c:	e13ffe15 	stw	r4,-8(fp)
  800290:	e17fff15 	stw	r5,-4(fp)
 int cnt;

 w16(HcTransferCnt,data_size*2);
  800294:	e0bfff17 	ldw	r2,-4(fp)
  800298:	1085883a 	add	r2,r2,r2
  80029c:	100b883a 	mov	r5,r2
  8002a0:	01000884 	movi	r4,34
  8002a4:	08046e00 	call	8046e0 <w16>
 USB_HC_CMD_WRITE(HcATL_Port);//IOWR(ISP1362_BASE,HC_COMMAND_PORT,HcATL_Port);
  8002a8:	00c06c34 	movhi	r3,432
  8002ac:	18c83d04 	addi	r3,r3,8436
  8002b0:	00801104 	movi	r2,68
  8002b4:	18800035 	stwio	r2,0(r3)

 uSDelay(10);	//waste some time
  8002b8:	01000284 	movi	r4,10
  8002bc:	08045200 	call	804520 <uSDelay>

 cnt=0;
  8002c0:	e03ffd15 	stw	zero,-12(fp)
 do
  {
   *(a_ptr+cnt)=USB_HC_DATA_READ();//IORD(ISP1362_BASE,HC_DATA_PORT);
  8002c4:	e0bffd17 	ldw	r2,-12(fp)
  8002c8:	1085883a 	add	r2,r2,r2
  8002cc:	1085883a 	add	r2,r2,r2
  8002d0:	1007883a 	mov	r3,r2
  8002d4:	e0bffe17 	ldw	r2,-8(fp)
  8002d8:	1887883a 	add	r3,r3,r2
  8002dc:	00806c34 	movhi	r2,432
  8002e0:	10883c04 	addi	r2,r2,8432
  8002e4:	10800037 	ldwio	r2,0(r2)
  8002e8:	18800015 	stw	r2,0(r3)
   cnt++;
  8002ec:	e0bffd17 	ldw	r2,-12(fp)
  8002f0:	10800044 	addi	r2,r2,1
  8002f4:	e0bffd15 	stw	r2,-12(fp)
  }
 while(cnt<(data_size));
  8002f8:	e0fffd17 	ldw	r3,-12(fp)
  8002fc:	e0bfff17 	ldw	r2,-4(fp)
  800300:	18bff036 	bltu	r3,r2,8002c4 <read_atl+0x48>
}
  800304:	e037883a 	mov	sp,fp
  800308:	dfc00117 	ldw	ra,4(sp)
  80030c:	df000017 	ldw	fp,0(sp)
  800310:	dec00204 	addi	sp,sp,8
  800314:	f800283a 	ret

00800318 <write_atl>:

void write_atl(unsigned int *a_ptr, unsigned int data_size)
{
  800318:	defffb04 	addi	sp,sp,-20
  80031c:	dfc00415 	stw	ra,16(sp)
  800320:	df000315 	stw	fp,12(sp)
  800324:	df000304 	addi	fp,sp,12
  800328:	e13ffe15 	stw	r4,-8(fp)
  80032c:	e17fff15 	stw	r5,-4(fp)
 int cnt;

 w16(HcTransferCnt,data_size*2);
  800330:	e0bfff17 	ldw	r2,-4(fp)
  800334:	1085883a 	add	r2,r2,r2
  800338:	100b883a 	mov	r5,r2
  80033c:	01000884 	movi	r4,34
  800340:	08046e00 	call	8046e0 <w16>
 USB_HC_CMD_WRITE(HcATL_Port|0x80);//IOWR(ISP1362_BASE,HC_COMMAND_PORT,HcATL_Port|0x80);
  800344:	00c06c34 	movhi	r3,432
  800348:	18c83d04 	addi	r3,r3,8436
  80034c:	00803104 	movi	r2,196
  800350:	18800035 	stwio	r2,0(r3)

 uSDelay(10);	//waste some time
  800354:	01000284 	movi	r4,10
  800358:	08045200 	call	804520 <uSDelay>

 cnt=0;
  80035c:	e03ffd15 	stw	zero,-12(fp)
 do
  {
   //IOWR(ISP1362_BASE,HC_DATA_PORT,*(a_ptr+cnt));
   USB_HC_DATA_WRITE(*(a_ptr+cnt));
  800360:	e0bffd17 	ldw	r2,-12(fp)
  800364:	1085883a 	add	r2,r2,r2
  800368:	1085883a 	add	r2,r2,r2
  80036c:	1007883a 	mov	r3,r2
  800370:	e0bffe17 	ldw	r2,-8(fp)
  800374:	1885883a 	add	r2,r3,r2
  800378:	10800017 	ldw	r2,0(r2)
  80037c:	1007883a 	mov	r3,r2
  800380:	00806c34 	movhi	r2,432
  800384:	10883c04 	addi	r2,r2,8432
  800388:	10c00035 	stwio	r3,0(r2)
   cnt++;
  80038c:	e0bffd17 	ldw	r2,-12(fp)
  800390:	10800044 	addi	r2,r2,1
  800394:	e0bffd15 	stw	r2,-12(fp)
  }
 while(cnt<(data_size));
  800398:	e0fffd17 	ldw	r3,-12(fp)
  80039c:	e0bfff17 	ldw	r2,-4(fp)
  8003a0:	18bfef36 	bltu	r3,r2,800360 <write_atl+0x48>
}
  8003a4:	e037883a 	mov	sp,fp
  8003a8:	dfc00117 	ldw	ra,4(sp)
  8003ac:	df000017 	ldw	fp,0(sp)
  8003b0:	dec00204 	addi	sp,sp,8
  8003b4:	f800283a 	ret

008003b8 <read_int>:

void read_int(unsigned int *a_ptr, unsigned int data_size)
{
  8003b8:	defffb04 	addi	sp,sp,-20
  8003bc:	dfc00415 	stw	ra,16(sp)
  8003c0:	df000315 	stw	fp,12(sp)
  8003c4:	df000304 	addi	fp,sp,12
  8003c8:	e13ffe15 	stw	r4,-8(fp)
  8003cc:	e17fff15 	stw	r5,-4(fp)
 int cnt;

 w16(HcTransferCnt,data_size*2);
  8003d0:	e0bfff17 	ldw	r2,-4(fp)
  8003d4:	1085883a 	add	r2,r2,r2
  8003d8:	100b883a 	mov	r5,r2
  8003dc:	01000884 	movi	r4,34
  8003e0:	08046e00 	call	8046e0 <w16>
 USB_HC_CMD_WRITE(HcInt_Port);//IOWR(ISP1362_BASE,HC_COMMAND_PORT,HcInt_Port);
  8003e4:	00c06c34 	movhi	r3,432
  8003e8:	18c83d04 	addi	r3,r3,8436
  8003ec:	008010c4 	movi	r2,67
  8003f0:	18800035 	stwio	r2,0(r3)

 uSDelay(10);	//waste some time
  8003f4:	01000284 	movi	r4,10
  8003f8:	08045200 	call	804520 <uSDelay>
 cnt=0;
  8003fc:	e03ffd15 	stw	zero,-12(fp)
 do
  {
   *(a_ptr+cnt)=USB_HC_DATA_READ();//IORD(ISP1362_BASE,HC_DATA_PORT);
  800400:	e0bffd17 	ldw	r2,-12(fp)
  800404:	1085883a 	add	r2,r2,r2
  800408:	1085883a 	add	r2,r2,r2
  80040c:	1007883a 	mov	r3,r2
  800410:	e0bffe17 	ldw	r2,-8(fp)
  800414:	1887883a 	add	r3,r3,r2
  800418:	00806c34 	movhi	r2,432
  80041c:	10883c04 	addi	r2,r2,8432
  800420:	10800037 	ldwio	r2,0(r2)
  800424:	18800015 	stw	r2,0(r3)
   cnt++;
  800428:	e0bffd17 	ldw	r2,-12(fp)
  80042c:	10800044 	addi	r2,r2,1
  800430:	e0bffd15 	stw	r2,-12(fp)
  }
 while(cnt<(data_size));
  800434:	e0fffd17 	ldw	r3,-12(fp)
  800438:	e0bfff17 	ldw	r2,-4(fp)
  80043c:	18bff036 	bltu	r3,r2,800400 <read_int+0x48>
}
  800440:	e037883a 	mov	sp,fp
  800444:	dfc00117 	ldw	ra,4(sp)
  800448:	df000017 	ldw	fp,0(sp)
  80044c:	dec00204 	addi	sp,sp,8
  800450:	f800283a 	ret

00800454 <write_int>:

void write_int(unsigned int *a_ptr, unsigned int data_size)
{
  800454:	defffb04 	addi	sp,sp,-20
  800458:	dfc00415 	stw	ra,16(sp)
  80045c:	df000315 	stw	fp,12(sp)
  800460:	df000304 	addi	fp,sp,12
  800464:	e13ffe15 	stw	r4,-8(fp)
  800468:	e17fff15 	stw	r5,-4(fp)
 int cnt;

 w16(HcTransferCnt,data_size*2);
  80046c:	e0bfff17 	ldw	r2,-4(fp)
  800470:	1085883a 	add	r2,r2,r2
  800474:	100b883a 	mov	r5,r2
  800478:	01000884 	movi	r4,34
  80047c:	08046e00 	call	8046e0 <w16>
 USB_HC_CMD_WRITE(HcInt_Port|0x80);//IOWR(ISP1362_BASE,HC_COMMAND_PORT,HcInt_Port|0x80);
  800480:	00c06c34 	movhi	r3,432
  800484:	18c83d04 	addi	r3,r3,8436
  800488:	008030c4 	movi	r2,195
  80048c:	18800035 	stwio	r2,0(r3)

 uSDelay(10);	//waste some time
  800490:	01000284 	movi	r4,10
  800494:	08045200 	call	804520 <uSDelay>
 cnt=0;
  800498:	e03ffd15 	stw	zero,-12(fp)
 do
  {
   //IOWR(ISP1362_BASE,HC_DATA_PORT,*(a_ptr+cnt));
   USB_HC_DATA_WRITE(*(a_ptr+cnt));
  80049c:	e0bffd17 	ldw	r2,-12(fp)
  8004a0:	1085883a 	add	r2,r2,r2
  8004a4:	1085883a 	add	r2,r2,r2
  8004a8:	1007883a 	mov	r3,r2
  8004ac:	e0bffe17 	ldw	r2,-8(fp)
  8004b0:	1885883a 	add	r2,r3,r2
  8004b4:	10800017 	ldw	r2,0(r2)
  8004b8:	1007883a 	mov	r3,r2
  8004bc:	00806c34 	movhi	r2,432
  8004c0:	10883c04 	addi	r2,r2,8432
  8004c4:	10c00035 	stwio	r3,0(r2)
   cnt++;
  8004c8:	e0bffd17 	ldw	r2,-12(fp)
  8004cc:	10800044 	addi	r2,r2,1
  8004d0:	e0bffd15 	stw	r2,-12(fp)
  }
 while(cnt<(data_size));
  8004d4:	e0fffd17 	ldw	r3,-12(fp)
  8004d8:	e0bfff17 	ldw	r2,-4(fp)
  8004dc:	18bfef36 	bltu	r3,r2,80049c <write_int+0x48>
}
  8004e0:	e037883a 	mov	sp,fp
  8004e4:	dfc00117 	ldw	ra,4(sp)
  8004e8:	df000017 	ldw	fp,0(sp)
  8004ec:	dec00204 	addi	sp,sp,8
  8004f0:	f800283a 	ret

008004f4 <read_ptl>:

void read_ptl(unsigned int *a_ptr, unsigned int data_size, char ptl)
{
  8004f4:	defffa04 	addi	sp,sp,-24
  8004f8:	dfc00515 	stw	ra,20(sp)
  8004fc:	df000415 	stw	fp,16(sp)
  800500:	df000404 	addi	fp,sp,16
  800504:	e13ffd15 	stw	r4,-12(fp)
  800508:	e17ffe15 	stw	r5,-8(fp)
  80050c:	e1bfff05 	stb	r6,-4(fp)
 int cnt;

 w16(HcTransferCnt,data_size*2);
  800510:	e0bffe17 	ldw	r2,-8(fp)
  800514:	1085883a 	add	r2,r2,r2
  800518:	100b883a 	mov	r5,r2
  80051c:	01000884 	movi	r4,34
  800520:	08046e00 	call	8046e0 <w16>
// if(ptl==0){IOWR(ISP1362_BASE,HC_COMMAND_PORT,HcPTL0_Port);}
// if(ptl==1){IOWR(ISP1362_BASE,HC_COMMAND_PORT,HcPTL1_Port);}
 if(ptl==0){USB_HC_CMD_WRITE(HcPTL0_Port);}
  800524:	e0bfff07 	ldb	r2,-4(fp)
  800528:	1004c03a 	cmpne	r2,r2,zero
  80052c:	1000041e 	bne	r2,zero,800540 <read_ptl+0x4c>
  800530:	00c06c34 	movhi	r3,432
  800534:	18c83d04 	addi	r3,r3,8436
  800538:	00801004 	movi	r2,64
  80053c:	18800035 	stwio	r2,0(r3)
 if(ptl==1){USB_HC_CMD_WRITE(HcPTL1_Port);}
  800540:	e0bfff07 	ldb	r2,-4(fp)
  800544:	10800058 	cmpnei	r2,r2,1
  800548:	1000041e 	bne	r2,zero,80055c <read_ptl+0x68>
  80054c:	00c06c34 	movhi	r3,432
  800550:	18c83d04 	addi	r3,r3,8436
  800554:	00801084 	movi	r2,66
  800558:	18800035 	stwio	r2,0(r3)


 uSDelay(10);	//waste some time
  80055c:	01000284 	movi	r4,10
  800560:	08045200 	call	804520 <uSDelay>
 cnt=0;
  800564:	e03ffc15 	stw	zero,-16(fp)
 do
  {
   *(a_ptr+cnt)=USB_HC_DATA_READ();//IORD(ISP1362_BASE,HC_DATA_PORT);
  800568:	e0bffc17 	ldw	r2,-16(fp)
  80056c:	1085883a 	add	r2,r2,r2
  800570:	1085883a 	add	r2,r2,r2
  800574:	1007883a 	mov	r3,r2
  800578:	e0bffd17 	ldw	r2,-12(fp)
  80057c:	1887883a 	add	r3,r3,r2
  800580:	00806c34 	movhi	r2,432
  800584:	10883c04 	addi	r2,r2,8432
  800588:	10800037 	ldwio	r2,0(r2)
  80058c:	18800015 	stw	r2,0(r3)
   cnt++;
  800590:	e0bffc17 	ldw	r2,-16(fp)
  800594:	10800044 	addi	r2,r2,1
  800598:	e0bffc15 	stw	r2,-16(fp)
  }
 while(cnt<(data_size));
  80059c:	e0fffc17 	ldw	r3,-16(fp)
  8005a0:	e0bffe17 	ldw	r2,-8(fp)
  8005a4:	18bff036 	bltu	r3,r2,800568 <read_ptl+0x74>
}
  8005a8:	e037883a 	mov	sp,fp
  8005ac:	dfc00117 	ldw	ra,4(sp)
  8005b0:	df000017 	ldw	fp,0(sp)
  8005b4:	dec00204 	addi	sp,sp,8
  8005b8:	f800283a 	ret

008005bc <write_ptl>:

void write_ptl(unsigned int *a_ptr, unsigned int data_size, char ptl)
{
  8005bc:	defffa04 	addi	sp,sp,-24
  8005c0:	dfc00515 	stw	ra,20(sp)
  8005c4:	df000415 	stw	fp,16(sp)
  8005c8:	df000404 	addi	fp,sp,16
  8005cc:	e13ffd15 	stw	r4,-12(fp)
  8005d0:	e17ffe15 	stw	r5,-8(fp)
  8005d4:	e1bfff05 	stb	r6,-4(fp)
 int cnt;

 w16(HcTransferCnt,data_size*2);
  8005d8:	e0bffe17 	ldw	r2,-8(fp)
  8005dc:	1085883a 	add	r2,r2,r2
  8005e0:	100b883a 	mov	r5,r2
  8005e4:	01000884 	movi	r4,34
  8005e8:	08046e00 	call	8046e0 <w16>
// if(ptl==0) {IOWR(ISP1362_BASE,HC_COMMAND_PORT,HcPTL0_Port|0x80);}
// if(ptl==1) {IOWR(ISP1362_BASE,HC_COMMAND_PORT,HcPTL1_Port|0x80);}
 if(ptl==0) {USB_HC_CMD_WRITE(HcPTL0_Port|0x80);}
  8005ec:	e0bfff07 	ldb	r2,-4(fp)
  8005f0:	1004c03a 	cmpne	r2,r2,zero
  8005f4:	1000041e 	bne	r2,zero,800608 <write_ptl+0x4c>
  8005f8:	00c06c34 	movhi	r3,432
  8005fc:	18c83d04 	addi	r3,r3,8436
  800600:	00803004 	movi	r2,192
  800604:	18800035 	stwio	r2,0(r3)
 if(ptl==1) {USB_HC_CMD_WRITE(HcPTL1_Port|0x80);}
  800608:	e0bfff07 	ldb	r2,-4(fp)
  80060c:	10800058 	cmpnei	r2,r2,1
  800610:	1000041e 	bne	r2,zero,800624 <write_ptl+0x68>
  800614:	00c06c34 	movhi	r3,432
  800618:	18c83d04 	addi	r3,r3,8436
  80061c:	00803084 	movi	r2,194
  800620:	18800035 	stwio	r2,0(r3)

 uSDelay(10);	//waste some time
  800624:	01000284 	movi	r4,10
  800628:	08045200 	call	804520 <uSDelay>
 cnt=0;
  80062c:	e03ffc15 	stw	zero,-16(fp)
 do
  {
   //IOWR(ISP1362_BASE,HC_DATA_PORT,*(a_ptr+cnt));
   USB_HC_DATA_WRITE(*(a_ptr+cnt));
  800630:	e0bffc17 	ldw	r2,-16(fp)
  800634:	1085883a 	add	r2,r2,r2
  800638:	1085883a 	add	r2,r2,r2
  80063c:	1007883a 	mov	r3,r2
  800640:	e0bffd17 	ldw	r2,-12(fp)
  800644:	1885883a 	add	r2,r3,r2
  800648:	10800017 	ldw	r2,0(r2)
  80064c:	1007883a 	mov	r3,r2
  800650:	00806c34 	movhi	r2,432
  800654:	10883c04 	addi	r2,r2,8432
  800658:	10c00035 	stwio	r3,0(r2)
   cnt++;
  80065c:	e0bffc17 	ldw	r2,-16(fp)
  800660:	10800044 	addi	r2,r2,1
  800664:	e0bffc15 	stw	r2,-16(fp)
  }
 while(cnt<(data_size));
  800668:	e0fffc17 	ldw	r3,-16(fp)
  80066c:	e0bffe17 	ldw	r2,-8(fp)
  800670:	18bfef36 	bltu	r3,r2,800630 <write_ptl+0x74>
}
  800674:	e037883a 	mov	sp,fp
  800678:	dfc00117 	ldw	ra,4(sp)
  80067c:	df000017 	ldw	fp,0(sp)
  800680:	dec00204 	addi	sp,sp,8
  800684:	f800283a 	ret

00800688 <erase_all>:

void erase_all(void)
{
  800688:	defff704 	addi	sp,sp,-36
  80068c:	dfc00815 	stw	ra,32(sp)
  800690:	df000715 	stw	fp,28(sp)
  800694:	df000704 	addi	fp,sp,28
 unsigned long word_cnt,test_target;
 unsigned int test_size=4096;
  800698:	00840004 	movi	r2,4096
  80069c:	e0bffd15 	stw	r2,-12(fp)
 unsigned long DirAddrLen_data;
 unsigned long cnt;
 unsigned long rb;
 unsigned long *data_ptr;

 DirAddrLen_data=make_DirAddrLen(test_size,0,0);
  8006a0:	e13ffd17 	ldw	r4,-12(fp)
  8006a4:	000b883a 	mov	r5,zero
  8006a8:	000d883a 	mov	r6,zero
  8006ac:	08000c00 	call	8000c0 <make_DirAddrLen>
  8006b0:	e0bffc15 	stw	r2,-16(fp)
 w32(HcDirAddrLen,DirAddrLen_data);
  8006b4:	01000c84 	movi	r4,50
  8006b8:	e17ffc17 	ldw	r5,-16(fp)
  8006bc:	08046000 	call	804600 <w32>

 USB_HC_CMD_WRITE(HcDirAddr_Port|0x80); //IOWR(ISP1362_BASE,HC_COMMAND_PORT,HcDirAddr_Port|0x80);
  8006c0:	00c06c34 	movhi	r3,432
  8006c4:	18c83d04 	addi	r3,r3,8436
  8006c8:	00803144 	movi	r2,197
  8006cc:	18800035 	stwio	r2,0(r3)
 cnt=0;
  8006d0:	e03ffb15 	stw	zero,-20(fp)
  do
   {
    //IOWR(ISP1362_BASE,HC_DATA_PORT,0);
    USB_HC_DATA_WRITE(0);
  8006d4:	00806c34 	movhi	r2,432
  8006d8:	10883c04 	addi	r2,r2,8432
  8006dc:	10000035 	stwio	zero,0(r2)
	cnt++;
  8006e0:	e0bffb17 	ldw	r2,-20(fp)
  8006e4:	10800044 	addi	r2,r2,1
  8006e8:	e0bffb15 	stw	r2,-20(fp)
   }
  while(cnt<2048);
  8006ec:	e0bffb17 	ldw	r2,-20(fp)
  8006f0:	10820030 	cmpltui	r2,r2,2048
  8006f4:	103ff71e 	bne	r2,zero,8006d4 <erase_all+0x4c>
}
  8006f8:	e037883a 	mov	sp,fp
  8006fc:	dfc00117 	ldw	ra,4(sp)
  800700:	df000017 	ldw	fp,0(sp)
  800704:	dec00204 	addi	sp,sp,8
  800708:	f800283a 	ret

0080070c <set_all>:

void set_all(void)
{
  80070c:	defff904 	addi	sp,sp,-28
  800710:	dfc00615 	stw	ra,24(sp)
  800714:	df000515 	stw	fp,20(sp)
  800718:	df000504 	addi	fp,sp,20
 unsigned long word_cnt,test_target;
 unsigned long DirAddrLen_data;
 unsigned long cnt;
 unsigned long rb;

 DirAddrLen_data=make_DirAddrLen(4096,0,0);
  80071c:	01040004 	movi	r4,4096
  800720:	000b883a 	mov	r5,zero
  800724:	000d883a 	mov	r6,zero
  800728:	08000c00 	call	8000c0 <make_DirAddrLen>
  80072c:	e0bffd15 	stw	r2,-12(fp)
 w32(HcDirAddrLen,DirAddrLen_data);
  800730:	01000c84 	movi	r4,50
  800734:	e17ffd17 	ldw	r5,-12(fp)
  800738:	08046000 	call	804600 <w32>

 USB_HC_CMD_WRITE(HcDirAddr_Port|0x80);//IOWR(ISP1362_BASE,HC_COMMAND_PORT,HcDirAddr_Port|0x80);
  80073c:	00c06c34 	movhi	r3,432
  800740:	18c83d04 	addi	r3,r3,8436
  800744:	00803144 	movi	r2,197
  800748:	18800035 	stwio	r2,0(r3)

 uSDelay(10);	//waste some time
  80074c:	01000284 	movi	r4,10
  800750:	08045200 	call	804520 <uSDelay>
 cnt=0;
  800754:	e03ffc15 	stw	zero,-16(fp)
  do
   {
    //IOWR(ISP1362_BASE,HC_DATA_PORT,0xFFFF-cnt);
    USB_HC_DATA_WRITE(0xFFFF-cnt);
  800758:	00ffffd4 	movui	r3,65535
  80075c:	e0bffc17 	ldw	r2,-16(fp)
  800760:	1885c83a 	sub	r2,r3,r2
  800764:	1007883a 	mov	r3,r2
  800768:	00806c34 	movhi	r2,432
  80076c:	10883c04 	addi	r2,r2,8432
  800770:	10c00035 	stwio	r3,0(r2)
	cnt++;
  800774:	e0bffc17 	ldw	r2,-16(fp)
  800778:	10800044 	addi	r2,r2,1
  80077c:	e0bffc15 	stw	r2,-16(fp)
   }
  while(cnt<2048);
  800780:	e0bffc17 	ldw	r2,-16(fp)
  800784:	10820030 	cmpltui	r2,r2,2048
  800788:	103ff31e 	bne	r2,zero,800758 <set_all+0x4c>
}
  80078c:	e037883a 	mov	sp,fp
  800790:	dfc00117 	ldw	ra,4(sp)
  800794:	df000017 	ldw	fp,0(sp)
  800798:	dec00204 	addi	sp,sp,8
  80079c:	f800283a 	ret

008007a0 <random_read>:

void random_read(unsigned int *a_ptr,unsigned int start_addr,unsigned int data_size)
{
  8007a0:	defff804 	addi	sp,sp,-32
  8007a4:	dfc00715 	stw	ra,28(sp)
  8007a8:	df000615 	stw	fp,24(sp)
  8007ac:	df000604 	addi	fp,sp,24
  8007b0:	e13ffd15 	stw	r4,-12(fp)
  8007b4:	e17ffe15 	stw	r5,-8(fp)
  8007b8:	e1bfff15 	stw	r6,-4(fp)
 unsigned int test_size=data_size*2;
  8007bc:	e0bfff17 	ldw	r2,-4(fp)
  8007c0:	1085883a 	add	r2,r2,r2
  8007c4:	e0bffc15 	stw	r2,-16(fp)
 unsigned long DirAddrLen_data;
 unsigned long cnt;

 DirAddrLen_data=make_DirAddrLen(test_size,0,start_addr);
  8007c8:	e13ffc17 	ldw	r4,-16(fp)
  8007cc:	000b883a 	mov	r5,zero
  8007d0:	e1bffe17 	ldw	r6,-8(fp)
  8007d4:	08000c00 	call	8000c0 <make_DirAddrLen>
  8007d8:	e0bffb15 	stw	r2,-20(fp)
 w32(HcDirAddrLen,DirAddrLen_data);
  8007dc:	01000c84 	movi	r4,50
  8007e0:	e17ffb17 	ldw	r5,-20(fp)
  8007e4:	08046000 	call	804600 <w32>

 USB_HC_CMD_WRITE(HcDirAddr_Port);//IOWR(ISP1362_BASE,HC_COMMAND_PORT,HcDirAddr_Port);
  8007e8:	00c06c34 	movhi	r3,432
  8007ec:	18c83d04 	addi	r3,r3,8436
  8007f0:	00801144 	movi	r2,69
  8007f4:	18800035 	stwio	r2,0(r3)

 uSDelay(10);	//waste some time
  8007f8:	01000284 	movi	r4,10
  8007fc:	08045200 	call	804520 <uSDelay>
 cnt=0;
  800800:	e03ffa15 	stw	zero,-24(fp)
  do
   {
    *(a_ptr+cnt)=USB_HC_DATA_READ();//IORD(ISP1362_BASE,HC_DATA_PORT);
  800804:	e0bffa17 	ldw	r2,-24(fp)
  800808:	1085883a 	add	r2,r2,r2
  80080c:	1085883a 	add	r2,r2,r2
  800810:	1007883a 	mov	r3,r2
  800814:	e0bffd17 	ldw	r2,-12(fp)
  800818:	1887883a 	add	r3,r3,r2
  80081c:	00806c34 	movhi	r2,432
  800820:	10883c04 	addi	r2,r2,8432
  800824:	10800037 	ldwio	r2,0(r2)
  800828:	18800015 	stw	r2,0(r3)
	cnt++;
  80082c:	e0bffa17 	ldw	r2,-24(fp)
  800830:	10800044 	addi	r2,r2,1
  800834:	e0bffa15 	stw	r2,-24(fp)
   }
  while(cnt<data_size);
  800838:	e0fffa17 	ldw	r3,-24(fp)
  80083c:	e0bfff17 	ldw	r2,-4(fp)
  800840:	18bff036 	bltu	r3,r2,800804 <random_read+0x64>
}
  800844:	e037883a 	mov	sp,fp
  800848:	dfc00117 	ldw	ra,4(sp)
  80084c:	df000017 	ldw	fp,0(sp)
  800850:	dec00204 	addi	sp,sp,8
  800854:	f800283a 	ret

00800858 <random_write>:

void random_write(unsigned int *w_ptr,unsigned int start_addr,unsigned int data_size)
{
  800858:	defff504 	addi	sp,sp,-44
  80085c:	dfc00a15 	stw	ra,40(sp)
  800860:	df000915 	stw	fp,36(sp)
  800864:	df000904 	addi	fp,sp,36
  800868:	e13ffd15 	stw	r4,-12(fp)
  80086c:	e17ffe15 	stw	r5,-8(fp)
  800870:	e1bfff15 	stw	r6,-4(fp)
 unsigned long word_cnt,test_target;
 unsigned int test_size=data_size*2;
  800874:	e0bfff17 	ldw	r2,-4(fp)
  800878:	1085883a 	add	r2,r2,r2
  80087c:	e0bffa15 	stw	r2,-24(fp)
 unsigned long DirAddrLen_data;
 unsigned long cnt;
 unsigned long rb;

 DirAddrLen_data=make_DirAddrLen(test_size,0,start_addr);
  800880:	e13ffa17 	ldw	r4,-24(fp)
  800884:	000b883a 	mov	r5,zero
  800888:	e1bffe17 	ldw	r6,-8(fp)
  80088c:	08000c00 	call	8000c0 <make_DirAddrLen>
  800890:	e0bff915 	stw	r2,-28(fp)
 w32(HcDirAddrLen,DirAddrLen_data);
  800894:	01000c84 	movi	r4,50
  800898:	e17ff917 	ldw	r5,-28(fp)
  80089c:	08046000 	call	804600 <w32>

 USB_HC_CMD_WRITE(HcDirAddr_Port|0x80); //IOWR(ISP1362_BASE,HC_COMMAND_PORT,HcDirAddr_Port|0x80);
  8008a0:	00c06c34 	movhi	r3,432
  8008a4:	18c83d04 	addi	r3,r3,8436
  8008a8:	00803144 	movi	r2,197
  8008ac:	18800035 	stwio	r2,0(r3)
 uSDelay(10);	//waste some time
  8008b0:	01000284 	movi	r4,10
  8008b4:	08045200 	call	804520 <uSDelay>
 cnt=0;
  8008b8:	e03ff815 	stw	zero,-32(fp)
  do
   {
    //IOWR(ISP1362_BASE,HC_DATA_PORT,*(w_ptr+cnt));
    USB_HC_DATA_WRITE(*(w_ptr+cnt));
  8008bc:	e0bff817 	ldw	r2,-32(fp)
  8008c0:	1085883a 	add	r2,r2,r2
  8008c4:	1085883a 	add	r2,r2,r2
  8008c8:	1007883a 	mov	r3,r2
  8008cc:	e0bffd17 	ldw	r2,-12(fp)
  8008d0:	1885883a 	add	r2,r3,r2
  8008d4:	10800017 	ldw	r2,0(r2)
  8008d8:	1007883a 	mov	r3,r2
  8008dc:	00806c34 	movhi	r2,432
  8008e0:	10883c04 	addi	r2,r2,8432
  8008e4:	10c00035 	stwio	r3,0(r2)
	cnt++;
  8008e8:	e0bff817 	ldw	r2,-32(fp)
  8008ec:	10800044 	addi	r2,r2,1
  8008f0:	e0bff815 	stw	r2,-32(fp)
   }
  while(cnt<data_size);
  8008f4:	e0fff817 	ldw	r3,-32(fp)
  8008f8:	e0bfff17 	ldw	r2,-4(fp)
  8008fc:	18bfef36 	bltu	r3,r2,8008bc <random_write+0x64>
}
  800900:	e037883a 	mov	sp,fp
  800904:	dfc00117 	ldw	ra,4(sp)
  800908:	df000017 	ldw	fp,0(sp)
  80090c:	dec00204 	addi	sp,sp,8
  800910:	f800283a 	ret

00800914 <see_buf>:

void see_buf(void)
{
  800914:	deeffa04 	addi	sp,sp,-16408
  800918:	dfd00515 	stw	ra,16404(sp)
  80091c:	df100415 	stw	fp,16400(sp)
  800920:	df100404 	addi	fp,sp,16400
 unsigned int *ptr;

// clrscr();
//cleardevice();

 ptr=buf_image;
  800924:	e0b00004 	addi	r2,fp,-16384
  800928:	e0affc15 	stw	r2,-16400(fp)

 direct_read(ptr);
  80092c:	e12ffc17 	ldw	r4,-16400(fp)
  800930:	08001280 	call	800128 <direct_read>

// gotoxy(1,2);
 word_cnt=0;
  800934:	e02fff15 	stw	zero,-16388(fp)
  do
   {
	test_word=buf_image[word_cnt];
  800938:	e0afff17 	ldw	r2,-16388(fp)
  80093c:	1085883a 	add	r2,r2,r2
  800940:	1085883a 	add	r2,r2,r2
  800944:	e0effc04 	addi	r3,fp,-16400
  800948:	10c5883a 	add	r2,r2,r3
  80094c:	10800404 	addi	r2,r2,16
  800950:	10800017 	ldw	r2,0(r2)
  800954:	e0affd15 	stw	r2,-16396(fp)
	word_cnt++;
  800958:	e0afff17 	ldw	r2,-16388(fp)
  80095c:	10800044 	addi	r2,r2,1
  800960:	e0afff15 	stw	r2,-16388(fp)
	printf("%04X ",test_word);
  800964:	01002074 	movhi	r4,129
  800968:	211eea04 	addi	r4,r4,31656
  80096c:	e16ffd17 	ldw	r5,-16396(fp)
  800970:	08068700 	call	806870 <printf>
	if(word_cnt%256==0)
  800974:	e0afff17 	ldw	r2,-16388(fp)
  800978:	10803fcc 	andi	r2,r2,255
  80097c:	1004c03a 	cmpne	r2,r2,zero
  800980:	1000171e 	bne	r2,zero,8009e0 <see_buf+0xcc>
	{
	 printf("\n  ISP1362 Memory Map Page %4X",word_cnt>>8);
  800984:	e0afff17 	ldw	r2,-16388(fp)
  800988:	100ad23a 	srli	r5,r2,8
  80098c:	01002074 	movhi	r4,129
  800990:	211eec04 	addi	r4,r4,31664
  800994:	08068700 	call	806870 <printf>
	 printf("\n  From Address %06X to %06X",(word_cnt<<1)-512,word_cnt<<1);
  800998:	e0afff17 	ldw	r2,-16388(fp)
  80099c:	1085883a 	add	r2,r2,r2
  8009a0:	117f8004 	addi	r5,r2,-512
  8009a4:	e0afff17 	ldw	r2,-16388(fp)
  8009a8:	1085883a 	add	r2,r2,r2
  8009ac:	100d883a 	mov	r6,r2
  8009b0:	01002074 	movhi	r4,129
  8009b4:	211ef404 	addi	r4,r4,31696
  8009b8:	08068700 	call	806870 <printf>
	 printf("\n  From Address %06d to %06d",(word_cnt<<1)-512,word_cnt<<1);
  8009bc:	e0afff17 	ldw	r2,-16388(fp)
  8009c0:	1085883a 	add	r2,r2,r2
  8009c4:	117f8004 	addi	r5,r2,-512
  8009c8:	e0afff17 	ldw	r2,-16388(fp)
  8009cc:	1085883a 	add	r2,r2,r2
  8009d0:	100d883a 	mov	r6,r2
  8009d4:	01002074 	movhi	r4,129
  8009d8:	211efc04 	addi	r4,r4,31728
  8009dc:	08068700 	call	806870 <printf>

//	 read_key(1);
//	 gotoxy(1,2);
	}
   }
  while(word_cnt<2048);
  8009e0:	e0afff17 	ldw	r2,-16388(fp)
  8009e4:	10820030 	cmpltui	r2,r2,2048
  8009e8:	103fd31e 	bne	r2,zero,800938 <see_buf+0x24>

// if(word_cnt<256) {read_key(1); }
}
  8009ec:	e037883a 	mov	sp,fp
  8009f0:	dfc00117 	ldw	ra,4(sp)
  8009f4:	df000017 	ldw	fp,0(sp)
  8009f8:	dec00204 	addi	sp,sp,8
  8009fc:	f800283a 	ret

00800a00 <convert_string>:
void convert_string(char *udn, int *rbuf)
{
  800a00:	defffa04 	addi	sp,sp,-24
  800a04:	dfc00515 	stw	ra,20(sp)
  800a08:	df000415 	stw	fp,16(sp)
  800a0c:	df000404 	addi	fp,sp,16
  800a10:	e13ffe15 	stw	r4,-8(fp)
  800a14:	e17fff15 	stw	r5,-4(fp)
 unsigned int name_length;
 unsigned int cnt;

 name_length=( (rbuf[0]&0x00FF)>>1  );
  800a18:	e0bfff17 	ldw	r2,-4(fp)
  800a1c:	10800017 	ldw	r2,0(r2)
  800a20:	10803fcc 	andi	r2,r2,255
  800a24:	1005d07a 	srai	r2,r2,1
  800a28:	e0bffd15 	stw	r2,-12(fp)
 if(name_length>32) {name_length=32;}
  800a2c:	e0bffd17 	ldw	r2,-12(fp)
  800a30:	10800870 	cmpltui	r2,r2,33
  800a34:	1000021e 	bne	r2,zero,800a40 <convert_string+0x40>
  800a38:	00800804 	movi	r2,32
  800a3c:	e0bffd15 	stw	r2,-12(fp)

 if(name_length>0)
  800a40:	e0bffd17 	ldw	r2,-12(fp)
  800a44:	1005003a 	cmpeq	r2,r2,zero
  800a48:	1000171e 	bne	r2,zero,800aa8 <convert_string+0xa8>
 {
  cnt=0;
  800a4c:	e03ffc15 	stw	zero,-16(fp)
  while(cnt<(name_length-1))
  800a50:	00001106 	br	800a98 <convert_string+0x98>
  {
   sprintf(udn+cnt,"%c",*(rbuf+cnt+1));
  800a54:	e0fffc17 	ldw	r3,-16(fp)
  800a58:	e0bffe17 	ldw	r2,-8(fp)
  800a5c:	1889883a 	add	r4,r3,r2
  800a60:	e0bffc17 	ldw	r2,-16(fp)
  800a64:	1085883a 	add	r2,r2,r2
  800a68:	1085883a 	add	r2,r2,r2
  800a6c:	1007883a 	mov	r3,r2
  800a70:	e0bfff17 	ldw	r2,-4(fp)
  800a74:	1885883a 	add	r2,r3,r2
  800a78:	10800104 	addi	r2,r2,4
  800a7c:	11800017 	ldw	r6,0(r2)
  800a80:	01402074 	movhi	r5,129
  800a84:	295f0404 	addi	r5,r5,31760
  800a88:	080699c0 	call	80699c <sprintf>
   cnt++;
  800a8c:	e0bffc17 	ldw	r2,-16(fp)
  800a90:	10800044 	addi	r2,r2,1
  800a94:	e0bffc15 	stw	r2,-16(fp)
 if(name_length>32) {name_length=32;}

 if(name_length>0)
 {
  cnt=0;
  while(cnt<(name_length-1))
  800a98:	e0bffd17 	ldw	r2,-12(fp)
  800a9c:	10ffffc4 	addi	r3,r2,-1
  800aa0:	e0bffc17 	ldw	r2,-16(fp)
  800aa4:	10ffeb36 	bltu	r2,r3,800a54 <convert_string+0x54>
  {
   sprintf(udn+cnt,"%c",*(rbuf+cnt+1));
   cnt++;
  }
 }
}
  800aa8:	e037883a 	mov	sp,fp
  800aac:	dfc00117 	ldw	ra,4(sp)
  800ab0:	df000017 	ldw	fp,0(sp)
  800ab4:	dec00204 	addi	sp,sp,8
  800ab8:	f800283a 	ret

00800abc <array_app>:

void array_app(int *cbuf,int *tbuf,int no_of_words)
{
  800abc:	defffb04 	addi	sp,sp,-20
  800ac0:	df000415 	stw	fp,16(sp)
  800ac4:	df000404 	addi	fp,sp,16
  800ac8:	e13ffd15 	stw	r4,-12(fp)
  800acc:	e17ffe15 	stw	r5,-8(fp)
  800ad0:	e1bfff15 	stw	r6,-4(fp)
 int cnt=0;
  800ad4:	e03ffc15 	stw	zero,-16(fp)

 do
  {
   *(cbuf + cnt) = *(tbuf + cnt);
  800ad8:	e0bffc17 	ldw	r2,-16(fp)
  800adc:	1085883a 	add	r2,r2,r2
  800ae0:	1085883a 	add	r2,r2,r2
  800ae4:	1007883a 	mov	r3,r2
  800ae8:	e0bffd17 	ldw	r2,-12(fp)
  800aec:	1889883a 	add	r4,r3,r2
  800af0:	e0bffc17 	ldw	r2,-16(fp)
  800af4:	1085883a 	add	r2,r2,r2
  800af8:	1085883a 	add	r2,r2,r2
  800afc:	1007883a 	mov	r3,r2
  800b00:	e0bffe17 	ldw	r2,-8(fp)
  800b04:	1885883a 	add	r2,r3,r2
  800b08:	10800017 	ldw	r2,0(r2)
  800b0c:	20800015 	stw	r2,0(r4)
   cnt++;
  800b10:	e0bffc17 	ldw	r2,-16(fp)
  800b14:	10800044 	addi	r2,r2,1
  800b18:	e0bffc15 	stw	r2,-16(fp)
  }
 while(cnt<no_of_words);
  800b1c:	e0fffc17 	ldw	r3,-16(fp)
  800b20:	e0bfff17 	ldw	r2,-4(fp)
  800b24:	18bfec16 	blt	r3,r2,800ad8 <array_app+0x1c>
}
  800b28:	e037883a 	mov	sp,fp
  800b2c:	df000017 	ldw	fp,0(sp)
  800b30:	dec00104 	addi	sp,sp,4
  800b34:	f800283a 	ret

00800b38 <get16_bit>:

unsigned char get16_bit(unsigned int position,unsigned int int_data)
{
  800b38:	defffa04 	addi	sp,sp,-24
  800b3c:	df000515 	stw	fp,20(sp)
  800b40:	df000504 	addi	fp,sp,20
  800b44:	e13ffd15 	stw	r4,-12(fp)
  800b48:	e17ffe15 	stw	r5,-8(fp)
 unsigned int temp;
 unsigned int result;

 temp=0x0001;
  800b4c:	00800044 	movi	r2,1
  800b50:	e0bffc15 	stw	r2,-16(fp)
 temp=temp<<position;
  800b54:	e0fffd17 	ldw	r3,-12(fp)
  800b58:	e0bffc17 	ldw	r2,-16(fp)
  800b5c:	10c4983a 	sll	r2,r2,r3
  800b60:	e0bffc15 	stw	r2,-16(fp)
 result=temp&int_data;
  800b64:	e0fffc17 	ldw	r3,-16(fp)
  800b68:	e0bffe17 	ldw	r2,-8(fp)
  800b6c:	1884703a 	and	r2,r3,r2
  800b70:	e0bffb15 	stw	r2,-20(fp)

 if(result!=0) {return(1);}
  800b74:	e0bffb17 	ldw	r2,-20(fp)
  800b78:	1005003a 	cmpeq	r2,r2,zero
  800b7c:	1000031e 	bne	r2,zero,800b8c <get16_bit+0x54>
  800b80:	00800044 	movi	r2,1
  800b84:	e0bfff15 	stw	r2,-4(fp)
  800b88:	00000106 	br	800b90 <get16_bit+0x58>
 else { return(0);}
  800b8c:	e03fff15 	stw	zero,-4(fp)
  800b90:	e0bfff17 	ldw	r2,-4(fp)
}
  800b94:	e037883a 	mov	sp,fp
  800b98:	df000017 	ldw	fp,0(sp)
  800b9c:	dec00104 	addi	sp,sp,4
  800ba0:	f800283a 	ret

00800ba4 <read_key>:

char read_key(unsigned char mode)
{
  800ba4:	defffc04 	addi	sp,sp,-16
  800ba8:	df000315 	stw	fp,12(sp)
  800bac:	df000304 	addi	fp,sp,12
  800bb0:	e13fff05 	stb	r4,-4(fp)
 char key_buff;
 unsigned int temp;

 if(mode==2)
  800bb4:	e0bfff03 	ldbu	r2,-4(fp)
  800bb8:	10800098 	cmpnei	r2,r2,2
  800bbc:	1000011e 	bne	r2,zero,800bc4 <read_key+0x20>
 {
  while(0 == 0);
  800bc0:	003fff06 	br	800bc0 <read_key+0x1c>
   else if(temp==0x4D00) { key_buff='r'; }
   else                  {key_buff=(char)(temp&0x00FF);}
  }
 }

 if(mode==1)              //wait for key input
  800bc4:	e0bfff03 	ldbu	r2,-4(fp)
  800bc8:	10800058 	cmpnei	r2,r2,1
  800bcc:	1000021e 	bne	r2,zero,800bd8 <read_key+0x34>
 {
  while (1 == 0);
  key_buff =1;
  800bd0:	00800044 	movi	r2,1
  800bd4:	e0bffe05 	stb	r2,-8(fp)
 }

 if(mode==0)              //don't wait
  800bd8:	e0bfff03 	ldbu	r2,-4(fp)
  800bdc:	1004c03a 	cmpne	r2,r2,zero
  800be0:	1000031e 	bne	r2,zero,800bf0 <read_key+0x4c>
 {
  key_buff=0;
  800be4:	e03ffe05 	stb	zero,-8(fp)
  if(1!=0)
  {
   key_buff = 1;
  800be8:	00800044 	movi	r2,1
  800bec:	e0bffe05 	stb	r2,-8(fp)
  }
 }
 return(key_buff);
  800bf0:	e0bffe07 	ldb	r2,-8(fp)
}
  800bf4:	e037883a 	mov	sp,fp
  800bf8:	df000017 	ldw	fp,0(sp)
  800bfc:	dec00104 	addi	sp,sp,4
  800c00:	f800283a 	ret

00800c04 <Hal4D13_AcquireD13>:
// Subroutines -- 1
// ************************************************************************
*/
void Hal4D13_AcquireD13(unsigned char g_host_IRQ_num,void *my_usb_isr)
//void Hal4D13_AcquireD13(unsigned char g_host_IRQ_num)
{
  800c04:	defffc04 	addi	sp,sp,-16
  800c08:	dfc00315 	stw	ra,12(sp)
  800c0c:	df000215 	stw	fp,8(sp)
  800c10:	df000204 	addi	fp,sp,8
  800c14:	e17fff15 	stw	r5,-4(fp)
  800c18:	e13ffe05 	stb	r4,-8(fp)
  alt_irq_register(g_host_IRQ_num,NULL,(void*)my_usb_isr);
  800c1c:	e13ffe03 	ldbu	r4,-8(fp)
  800c20:	000b883a 	mov	r5,zero
  800c24:	e1bfff17 	ldw	r6,-4(fp)
  800c28:	08101f80 	call	8101f8 <alt_irq_register>
}
  800c2c:	e037883a 	mov	sp,fp
  800c30:	dfc00117 	ldw	ra,4(sp)
  800c34:	df000017 	ldw	fp,0(sp)
  800c38:	dec00204 	addi	sp,sp,8
  800c3c:	f800283a 	ret

00800c40 <Hal4D13_ResetDevice>:

void Hal4D13_ResetDevice(void)
{
  800c40:	deffff04 	addi	sp,sp,-4
  800c44:	df000015 	stw	fp,0(sp)
  800c48:	d839883a 	mov	fp,sp
  USB_DC_CMD_WRITE(D13CMD_DEV_RESET);
  800c4c:	00c06c34 	movhi	r3,432
  800c50:	18c83f04 	addi	r3,r3,8444
  800c54:	00803d84 	movi	r2,246
  800c58:	18800035 	stwio	r2,0(r3)
}
  800c5c:	e037883a 	mov	sp,fp
  800c60:	df000017 	ldw	fp,0(sp)
  800c64:	dec00104 	addi	sp,sp,4
  800c68:	f800283a 	ret

00800c6c <Hal4D13_GetDevConfig>:

USHORT Hal4D13_GetDevConfig(void)
{
  800c6c:	defffe04 	addi	sp,sp,-8
  800c70:	df000115 	stw	fp,4(sp)
  800c74:	df000104 	addi	fp,sp,4
  USHORT i; 
  USB_DC_CMD_WRITE(D13CMD_DEV_RD_CNFG);
  800c78:	00c06c34 	movhi	r3,432
  800c7c:	18c83f04 	addi	r3,r3,8444
  800c80:	00802ec4 	movi	r2,187
  800c84:	18800035 	stwio	r2,0(r3)
  i = USB_DC_DATA_READ();
  800c88:	00806c34 	movhi	r2,432
  800c8c:	10883e04 	addi	r2,r2,8440
  800c90:	10800037 	ldwio	r2,0(r2)
  800c94:	e0bfff0d 	sth	r2,-4(fp)
  return i;
  800c98:	e0bfff0b 	ldhu	r2,-4(fp)
}
  800c9c:	e037883a 	mov	sp,fp
  800ca0:	df000017 	ldw	fp,0(sp)
  800ca4:	dec00104 	addi	sp,sp,4
  800ca8:	f800283a 	ret

00800cac <Hal4D13_SetDevConfig>:

void Hal4D13_SetDevConfig(USHORT wDevCnfg)
{
  800cac:	defffe04 	addi	sp,sp,-8
  800cb0:	df000115 	stw	fp,4(sp)
  800cb4:	df000104 	addi	fp,sp,4
  800cb8:	e13fff0d 	sth	r4,-4(fp)
  USB_DC_CMD_WRITE(D13CMD_DEV_WR_CNFG);
  800cbc:	00c06c34 	movhi	r3,432
  800cc0:	18c83f04 	addi	r3,r3,8444
  800cc4:	00802e84 	movi	r2,186
  800cc8:	18800035 	stwio	r2,0(r3)
  USB_DC_DATA_WRITE( wDevCnfg);
  800ccc:	e0ffff0b 	ldhu	r3,-4(fp)
  800cd0:	00806c34 	movhi	r2,432
  800cd4:	10883e04 	addi	r2,r2,8440
  800cd8:	10c00035 	stwio	r3,0(r2)
}
  800cdc:	e037883a 	mov	sp,fp
  800ce0:	df000017 	ldw	fp,0(sp)
  800ce4:	dec00104 	addi	sp,sp,4
  800ce8:	f800283a 	ret

00800cec <Hal4D13_SetMode>:

void Hal4D13_SetMode(UCHAR bMode)
{
  800cec:	defffe04 	addi	sp,sp,-8
  800cf0:	df000115 	stw	fp,4(sp)
  800cf4:	df000104 	addi	fp,sp,4
  800cf8:	e13fff05 	stb	r4,-4(fp)
  USB_DC_CMD_WRITE( D13CMD_DEV_WR_MODE);
  800cfc:	00c06c34 	movhi	r3,432
  800d00:	18c83f04 	addi	r3,r3,8444
  800d04:	00802e04 	movi	r2,184
  800d08:	18800035 	stwio	r2,0(r3)
  USB_DC_DATA_WRITE( bMode);
  800d0c:	e0ffff03 	ldbu	r3,-4(fp)
  800d10:	00806c34 	movhi	r2,432
  800d14:	10883e04 	addi	r2,r2,8440
  800d18:	10c00035 	stwio	r3,0(r2)
}
  800d1c:	e037883a 	mov	sp,fp
  800d20:	df000017 	ldw	fp,0(sp)
  800d24:	dec00104 	addi	sp,sp,4
  800d28:	f800283a 	ret

00800d2c <Hal4D13_GetMode>:

UCHAR Hal4D13_GetMode(void)
{
  800d2c:	defffe04 	addi	sp,sp,-8
  800d30:	df000115 	stw	fp,4(sp)
  800d34:	df000104 	addi	fp,sp,4
    UCHAR c;   
  USB_DC_CMD_WRITE( D13CMD_DEV_RD_MODE);
  800d38:	00c06c34 	movhi	r3,432
  800d3c:	18c83f04 	addi	r3,r3,8444
  800d40:	00802e44 	movi	r2,185
  800d44:	18800035 	stwio	r2,0(r3)
  c = (UCHAR)(USB_DC_DATA_READ() & 0x0ff);
  800d48:	00806c34 	movhi	r2,432
  800d4c:	10883e04 	addi	r2,r2,8440
  800d50:	10800037 	ldwio	r2,0(r2)
  800d54:	1007883a 	mov	r3,r2
  800d58:	00bfffc4 	movi	r2,-1
  800d5c:	1884703a 	and	r2,r3,r2
  800d60:	e0bfff05 	stb	r2,-4(fp)
    return c;
  800d64:	e0bfff03 	ldbu	r2,-4(fp)
}
  800d68:	e037883a 	mov	sp,fp
  800d6c:	df000017 	ldw	fp,0(sp)
  800d70:	dec00104 	addi	sp,sp,4
  800d74:	f800283a 	ret

00800d78 <Hal4D13_GetAddress>:

UCHAR Hal4D13_GetAddress(void)
{
  800d78:	defffe04 	addi	sp,sp,-8
  800d7c:	df000115 	stw	fp,4(sp)
  800d80:	df000104 	addi	fp,sp,4
    UCHAR c; 
    USB_DC_CMD_WRITE( D13CMD_DEV_RD_ADDR);
  800d84:	00c06c34 	movhi	r3,432
  800d88:	18c83f04 	addi	r3,r3,8444
  800d8c:	00802dc4 	movi	r2,183
  800d90:	18800035 	stwio	r2,0(r3)
    c = (UCHAR)(USB_DC_DATA_READ() & 0x0ff);
  800d94:	00806c34 	movhi	r2,432
  800d98:	10883e04 	addi	r2,r2,8440
  800d9c:	10800037 	ldwio	r2,0(r2)
  800da0:	1007883a 	mov	r3,r2
  800da4:	00bfffc4 	movi	r2,-1
  800da8:	1884703a 	and	r2,r3,r2
  800dac:	e0bfff05 	stb	r2,-4(fp)
    return c;
  800db0:	e0bfff03 	ldbu	r2,-4(fp)
}
  800db4:	e037883a 	mov	sp,fp
  800db8:	df000017 	ldw	fp,0(sp)
  800dbc:	dec00104 	addi	sp,sp,4
  800dc0:	f800283a 	ret

00800dc4 <Hal4D13_SetAddressEnable>:

void Hal4D13_SetAddressEnable(UCHAR bAddress, UCHAR bEnable)
{
  800dc4:	defffd04 	addi	sp,sp,-12
  800dc8:	df000215 	stw	fp,8(sp)
  800dcc:	df000204 	addi	fp,sp,8
  800dd0:	e13ffe05 	stb	r4,-8(fp)
  800dd4:	e17fff05 	stb	r5,-4(fp)
  USB_DC_CMD_WRITE( D13CMD_DEV_WR_ADDR);
  800dd8:	00c06c34 	movhi	r3,432
  800ddc:	18c83f04 	addi	r3,r3,8444
  800de0:	00802d84 	movi	r2,182
  800de4:	18800035 	stwio	r2,0(r3)
  if(bEnable)
  800de8:	e0bfff03 	ldbu	r2,-4(fp)
  800dec:	1005003a 	cmpeq	r2,r2,zero
  800df0:	1000051e 	bne	r2,zero,800e08 <Hal4D13_SetAddressEnable+0x44>
  bAddress |= D13REG_DEVADDR_EN;
  800df4:	e0bffe03 	ldbu	r2,-8(fp)
  800df8:	00ffe004 	movi	r3,-128
  800dfc:	10c4b03a 	or	r2,r2,r3
  800e00:	e0bffe05 	stb	r2,-8(fp)
  800e04:	00000306 	br	800e14 <Hal4D13_SetAddressEnable+0x50>
  else
  bAddress &= D13REG_DEVADDR_MASK;
  800e08:	e0bffe03 	ldbu	r2,-8(fp)
  800e0c:	10801fcc 	andi	r2,r2,127
  800e10:	e0bffe05 	stb	r2,-8(fp)
  USB_DC_DATA_WRITE( bAddress);
  800e14:	e0fffe03 	ldbu	r3,-8(fp)
  800e18:	00806c34 	movhi	r2,432
  800e1c:	10883e04 	addi	r2,r2,8440
  800e20:	10c00035 	stwio	r3,0(r2)
}
  800e24:	e037883a 	mov	sp,fp
  800e28:	df000017 	ldw	fp,0(sp)
  800e2c:	dec00104 	addi	sp,sp,4
  800e30:	f800283a 	ret

00800e34 <Hal4D13_SoftConnect>:

void Hal4D13_SoftConnect(UCHAR bEnable)
{
  800e34:	defffd04 	addi	sp,sp,-12
  800e38:	df000215 	stw	fp,8(sp)
  800e3c:	df000204 	addi	fp,sp,8
  800e40:	e13fff05 	stb	r4,-4(fp)
    UCHAR c;
  USB_DC_CMD_WRITE( D13CMD_DEV_RD_MODE);
  800e44:	00c06c34 	movhi	r3,432
  800e48:	18c83f04 	addi	r3,r3,8444
  800e4c:	00802e44 	movi	r2,185
  800e50:	18800035 	stwio	r2,0(r3)
  c = (UCHAR)(USB_DC_DATA_READ() & 0x0ff);
  800e54:	00806c34 	movhi	r2,432
  800e58:	10883e04 	addi	r2,r2,8440
  800e5c:	10800037 	ldwio	r2,0(r2)
  800e60:	1007883a 	mov	r3,r2
  800e64:	00bfffc4 	movi	r2,-1
  800e68:	1884703a 	and	r2,r3,r2
  800e6c:	e0bffe05 	stb	r2,-8(fp)
  if(bEnable)
  800e70:	e0bfff03 	ldbu	r2,-4(fp)
  800e74:	1005003a 	cmpeq	r2,r2,zero
  800e78:	1000041e 	bne	r2,zero,800e8c <Hal4D13_SoftConnect+0x58>
  c |= D13REG_MODE_SOFTCONNECT;
  800e7c:	e0bffe03 	ldbu	r2,-8(fp)
  800e80:	10800054 	ori	r2,r2,1
  800e84:	e0bffe05 	stb	r2,-8(fp)
  800e88:	00000406 	br	800e9c <Hal4D13_SoftConnect+0x68>
  else
  c &= ~D13REG_MODE_SOFTCONNECT;  
  800e8c:	e0bffe03 	ldbu	r2,-8(fp)
  800e90:	00ffff84 	movi	r3,-2
  800e94:	10c4703a 	and	r2,r2,r3
  800e98:	e0bffe05 	stb	r2,-8(fp)
    USB_DC_CMD_WRITE( D13CMD_DEV_WR_MODE);
  800e9c:	00c06c34 	movhi	r3,432
  800ea0:	18c83f04 	addi	r3,r3,8444
  800ea4:	00802e04 	movi	r2,184
  800ea8:	18800035 	stwio	r2,0(r3)
  USB_DC_DATA_WRITE( c);
  800eac:	e0fffe03 	ldbu	r3,-8(fp)
  800eb0:	00806c34 	movhi	r2,432
  800eb4:	10883e04 	addi	r2,r2,8440
  800eb8:	10c00035 	stwio	r3,0(r2)
}
  800ebc:	e037883a 	mov	sp,fp
  800ec0:	df000017 	ldw	fp,0(sp)
  800ec4:	dec00104 	addi	sp,sp,4
  800ec8:	f800283a 	ret

00800ecc <Hal4D13_AcknowledgeSETUP>:

void Hal4D13_AcknowledgeSETUP(void)
{
  800ecc:	deffff04 	addi	sp,sp,-4
  800ed0:	df000015 	stw	fp,0(sp)
  800ed4:	d839883a 	mov	fp,sp
  USB_DC_CMD_WRITE( D13CMD_ACK_SETUP);
  800ed8:	00c06c34 	movhi	r3,432
  800edc:	18c83f04 	addi	r3,r3,8444
  800ee0:	00803d04 	movi	r2,244
  800ee4:	18800035 	stwio	r2,0(r3)
}
  800ee8:	e037883a 	mov	sp,fp
  800eec:	df000017 	ldw	fp,0(sp)
  800ef0:	dec00104 	addi	sp,sp,4
  800ef4:	f800283a 	ret

00800ef8 <Hal4D13_ClearBuffer>:

void Hal4D13_ClearBuffer(UCHAR bEPIndex)
{
  800ef8:	defffe04 	addi	sp,sp,-8
  800efc:	df000115 	stw	fp,4(sp)
  800f00:	df000104 	addi	fp,sp,4
  800f04:	e13fff05 	stb	r4,-4(fp)
  /* Select Endpoint */
    USB_DC_CMD_WRITE( D13CMD_EP_CLEAR_BUF + bEPIndex);
  800f08:	e0bfff03 	ldbu	r2,-4(fp)
  800f0c:	10c01c04 	addi	r3,r2,112
  800f10:	00806c34 	movhi	r2,432
  800f14:	10883f04 	addi	r2,r2,8444
  800f18:	10c00035 	stwio	r3,0(r2)
}
  800f1c:	e037883a 	mov	sp,fp
  800f20:	df000017 	ldw	fp,0(sp)
  800f24:	dec00104 	addi	sp,sp,4
  800f28:	f800283a 	ret

00800f2c <Hal4D13_ValidBuffer>:

void Hal4D13_ValidBuffer(UCHAR bEPIndex)
{
  800f2c:	defffe04 	addi	sp,sp,-8
  800f30:	df000115 	stw	fp,4(sp)
  800f34:	df000104 	addi	fp,sp,4
  800f38:	e13fff05 	stb	r4,-4(fp)
    USB_DC_CMD_WRITE( D13CMD_EP_VALID_BUF + bEPIndex);
  800f3c:	e0bfff03 	ldbu	r2,-4(fp)
  800f40:	10c01804 	addi	r3,r2,96
  800f44:	00806c34 	movhi	r2,432
  800f48:	10883f04 	addi	r2,r2,8444
  800f4c:	10c00035 	stwio	r3,0(r2)
}
  800f50:	e037883a 	mov	sp,fp
  800f54:	df000017 	ldw	fp,0(sp)
  800f58:	dec00104 	addi	sp,sp,4
  800f5c:	f800283a 	ret

00800f60 <Hal4D13_ReadEndpoint>:

USHORT Hal4D13_ReadEndpoint(UCHAR bEPIndex, UCHAR *buf, USHORT len)
{
  800f60:	defffa04 	addi	sp,sp,-24
  800f64:	df000515 	stw	fp,20(sp)
  800f68:	df000504 	addi	fp,sp,20
  800f6c:	e17ffe15 	stw	r5,-8(fp)
  800f70:	e13ffd05 	stb	r4,-12(fp)
  800f74:	e1bfff0d 	sth	r6,-4(fp)
    USHORT i, j, c;
    USB_DC_CMD_WRITE( D13CMD_EP_RD_FIFO + bEPIndex);
  800f78:	e0bffd03 	ldbu	r2,-12(fp)
  800f7c:	10c00404 	addi	r3,r2,16
  800f80:	00806c34 	movhi	r2,432
  800f84:	10883f04 	addi	r2,r2,8444
  800f88:	10c00035 	stwio	r3,0(r2)
    /* read Buffer */
    j = USB_DC_DATA_READ();
  800f8c:	00806c34 	movhi	r2,432
  800f90:	10883e04 	addi	r2,r2,8440
  800f94:	10800037 	ldwio	r2,0(r2)
  800f98:	e0bffb8d 	sth	r2,-18(fp)
    if(j > len)
  800f9c:	e0fffb8b 	ldhu	r3,-18(fp)
  800fa0:	e0bfff0b 	ldhu	r2,-4(fp)
  800fa4:	10c0022e 	bgeu	r2,r3,800fb0 <Hal4D13_ReadEndpoint+0x50>
        j = len;
  800fa8:	e0bfff0b 	ldhu	r2,-4(fp)
  800fac:	e0bffb8d 	sth	r2,-18(fp)
    i=0;
  800fb0:	e03ffc0d 	sth	zero,-16(fp)
    while (i<j)//<<
  800fb4:	00001c06 	br	801028 <Hal4D13_ReadEndpoint+0xc8>
    //for(i=0; i<j; i=i+2, buf++ )
    {
        c = USB_DC_DATA_READ();
  800fb8:	00806c34 	movhi	r2,432
  800fbc:	10883e04 	addi	r2,r2,8440
  800fc0:	10800037 	ldwio	r2,0(r2)
  800fc4:	e0bffb0d 	sth	r2,-20(fp)
        *buf = (UCHAR)c;
  800fc8:	e0bffb0b 	ldhu	r2,-20(fp)
  800fcc:	1007883a 	mov	r3,r2
  800fd0:	e0bffe17 	ldw	r2,-8(fp)
  800fd4:	10c00005 	stb	r3,0(r2)
        i++;//<<
  800fd8:	e0bffc0b 	ldhu	r2,-16(fp)
  800fdc:	10800044 	addi	r2,r2,1
  800fe0:	e0bffc0d 	sth	r2,-16(fp)
        if (i >= j) break; //<<
  800fe4:	e0fffc0b 	ldhu	r3,-16(fp)
  800fe8:	e0bffb8b 	ldhu	r2,-18(fp)
  800fec:	1880112e 	bgeu	r3,r2,801034 <Hal4D13_ReadEndpoint+0xd4>
        buf++;
  800ff0:	e0bffe17 	ldw	r2,-8(fp)
  800ff4:	10800044 	addi	r2,r2,1
  800ff8:	e0bffe15 	stw	r2,-8(fp)
        *buf = (UCHAR)(c>>8);
  800ffc:	e0bffb0b 	ldhu	r2,-20(fp)
  801000:	1004d23a 	srli	r2,r2,8
  801004:	1007883a 	mov	r3,r2
  801008:	e0bffe17 	ldw	r2,-8(fp)
  80100c:	10c00005 	stb	r3,0(r2)
        i++;//<<
  801010:	e0bffc0b 	ldhu	r2,-16(fp)
  801014:	10800044 	addi	r2,r2,1
  801018:	e0bffc0d 	sth	r2,-16(fp)
         buf++;
  80101c:	e0bffe17 	ldw	r2,-8(fp)
  801020:	10800044 	addi	r2,r2,1
  801024:	e0bffe15 	stw	r2,-8(fp)
    /* read Buffer */
    j = USB_DC_DATA_READ();
    if(j > len)
        j = len;
    i=0;
    while (i<j)//<<
  801028:	e0fffc0b 	ldhu	r3,-16(fp)
  80102c:	e0bffb8b 	ldhu	r2,-18(fp)
  801030:	18bfe136 	bltu	r3,r2,800fb8 <Hal4D13_ReadEndpoint+0x58>
        *buf = (UCHAR)(c>>8);
        i++;//<<
         buf++;
    }
    /* Clear Buffer */
    USB_DC_CMD_WRITE( D13CMD_EP_CLEAR_BUF+bEPIndex);
  801034:	e0bffd03 	ldbu	r2,-12(fp)
  801038:	10c01c04 	addi	r3,r2,112
  80103c:	00806c34 	movhi	r2,432
  801040:	10883f04 	addi	r2,r2,8444
  801044:	10c00035 	stwio	r3,0(r2)
    return j;
  801048:	e0bffb8b 	ldhu	r2,-18(fp)

}
  80104c:	e037883a 	mov	sp,fp
  801050:	df000017 	ldw	fp,0(sp)
  801054:	dec00104 	addi	sp,sp,4
  801058:	f800283a 	ret

0080105c <Hal4D13_ReadBulkEndpoint>:

USHORT Hal4D13_ReadBulkEndpoint(UCHAR bEPIndex, UCHAR * buf, USHORT len)
{
  80105c:	defffa04 	addi	sp,sp,-24
  801060:	df000515 	stw	fp,20(sp)
  801064:	df000504 	addi	fp,sp,20
  801068:	e17ffe15 	stw	r5,-8(fp)
  80106c:	e13ffd05 	stb	r4,-12(fp)
  801070:	e1bfff0d 	sth	r6,-4(fp)
    USHORT i, j, c;
    USB_DC_CMD_WRITE( D13CMD_EP_RD_FIFO + bEPIndex);
  801074:	e0bffd03 	ldbu	r2,-12(fp)
  801078:	10c00404 	addi	r3,r2,16
  80107c:	00806c34 	movhi	r2,432
  801080:	10883f04 	addi	r2,r2,8444
  801084:	10c00035 	stwio	r3,0(r2)
    j = USB_DC_DATA_READ();
  801088:	00806c34 	movhi	r2,432
  80108c:	10883e04 	addi	r2,r2,8440
  801090:	10800037 	ldwio	r2,0(r2)
  801094:	e0bffb8d 	sth	r2,-18(fp)
    if(j > len)
  801098:	e0fffb8b 	ldhu	r3,-18(fp)
  80109c:	e0bfff0b 	ldhu	r2,-4(fp)
  8010a0:	10c0022e 	bgeu	r2,r3,8010ac <Hal4D13_ReadBulkEndpoint+0x50>
        j = len;
  8010a4:	e0bfff0b 	ldhu	r2,-4(fp)
  8010a8:	e0bffb8d 	sth	r2,-18(fp)
    i=0;
  8010ac:	e03ffc0d 	sth	zero,-16(fp)
    while (i<j) //<<
  8010b0:	00001c06 	br	801124 <Hal4D13_ReadBulkEndpoint+0xc8>
//  for(i=0; i<j; i=i+2, buf++ )
    {
        c = USB_DC_DATA_READ();
  8010b4:	00806c34 	movhi	r2,432
  8010b8:	10883e04 	addi	r2,r2,8440
  8010bc:	10800037 	ldwio	r2,0(r2)
  8010c0:	e0bffb0d 	sth	r2,-20(fp)
        *buf = (UCHAR)c;
  8010c4:	e0bffb0b 	ldhu	r2,-20(fp)
  8010c8:	1007883a 	mov	r3,r2
  8010cc:	e0bffe17 	ldw	r2,-8(fp)
  8010d0:	10c00005 	stb	r3,0(r2)
        i++;//<<
  8010d4:	e0bffc0b 	ldhu	r2,-16(fp)
  8010d8:	10800044 	addi	r2,r2,1
  8010dc:	e0bffc0d 	sth	r2,-16(fp)
        if (i >= j) break; //<<
  8010e0:	e0fffc0b 	ldhu	r3,-16(fp)
  8010e4:	e0bffb8b 	ldhu	r2,-18(fp)
  8010e8:	1880112e 	bgeu	r3,r2,801130 <Hal4D13_ReadBulkEndpoint+0xd4>
        buf++;
  8010ec:	e0bffe17 	ldw	r2,-8(fp)
  8010f0:	10800044 	addi	r2,r2,1
  8010f4:	e0bffe15 	stw	r2,-8(fp)
        *buf = (UCHAR)(c>>8);
  8010f8:	e0bffb0b 	ldhu	r2,-20(fp)
  8010fc:	1004d23a 	srli	r2,r2,8
  801100:	1007883a 	mov	r3,r2
  801104:	e0bffe17 	ldw	r2,-8(fp)
  801108:	10c00005 	stb	r3,0(r2)
    
        i++;//<<
  80110c:	e0bffc0b 	ldhu	r2,-16(fp)
  801110:	10800044 	addi	r2,r2,1
  801114:	e0bffc0d 	sth	r2,-16(fp)
    buf++;
  801118:	e0bffe17 	ldw	r2,-8(fp)
  80111c:	10800044 	addi	r2,r2,1
  801120:	e0bffe15 	stw	r2,-8(fp)
    USB_DC_CMD_WRITE( D13CMD_EP_RD_FIFO + bEPIndex);
    j = USB_DC_DATA_READ();
    if(j > len)
        j = len;
    i=0;
    while (i<j) //<<
  801124:	e0fffc0b 	ldhu	r3,-16(fp)
  801128:	e0bffb8b 	ldhu	r2,-18(fp)
  80112c:	18bfe136 	bltu	r3,r2,8010b4 <Hal4D13_ReadBulkEndpoint+0x58>
    
        i++;//<<
    buf++;
    }
    /* Clear Buffer */
    USB_DC_CMD_WRITE( D13CMD_EP_CLEAR_BUF+bEPIndex);
  801130:	e0bffd03 	ldbu	r2,-12(fp)
  801134:	10c01c04 	addi	r3,r2,112
  801138:	00806c34 	movhi	r2,432
  80113c:	10883f04 	addi	r2,r2,8444
  801140:	10c00035 	stwio	r3,0(r2)

    return j;
  801144:	e0bffb8b 	ldhu	r2,-18(fp)
}
  801148:	e037883a 	mov	sp,fp
  80114c:	df000017 	ldw	fp,0(sp)
  801150:	dec00104 	addi	sp,sp,4
  801154:	f800283a 	ret

00801158 <Hal4D13_ReadEndpointWOClearBuffer>:

USHORT Hal4D13_ReadEndpointWOClearBuffer(UCHAR bEPIndex, UCHAR * buf, USHORT len)
{
  801158:	defffa04 	addi	sp,sp,-24
  80115c:	df000515 	stw	fp,20(sp)
  801160:	df000504 	addi	fp,sp,20
  801164:	e17ffe15 	stw	r5,-8(fp)
  801168:	e13ffd05 	stb	r4,-12(fp)
  80116c:	e1bfff0d 	sth	r6,-4(fp)
    USHORT i, j,c;
    USB_DC_CMD_WRITE( D13CMD_EP_RD_FIFO + bEPIndex);
  801170:	e0bffd03 	ldbu	r2,-12(fp)
  801174:	10c00404 	addi	r3,r2,16
  801178:	00806c34 	movhi	r2,432
  80117c:	10883f04 	addi	r2,r2,8444
  801180:	10c00035 	stwio	r3,0(r2)
    /* read Buffer */
    j = USB_DC_DATA_READ();
  801184:	00806c34 	movhi	r2,432
  801188:	10883e04 	addi	r2,r2,8440
  80118c:	10800037 	ldwio	r2,0(r2)
  801190:	e0bffb8d 	sth	r2,-18(fp)
    if(j > len)
  801194:	e0fffb8b 	ldhu	r3,-18(fp)
  801198:	e0bfff0b 	ldhu	r2,-4(fp)
  80119c:	10c0022e 	bgeu	r2,r3,8011a8 <Hal4D13_ReadEndpointWOClearBuffer+0x50>
        j = len;
  8011a0:	e0bfff0b 	ldhu	r2,-4(fp)
  8011a4:	e0bffb8d 	sth	r2,-18(fp)
    i=0;
  8011a8:	e03ffc0d 	sth	zero,-16(fp)
    while (i<j) //<<    
  8011ac:	00001c06 	br	801220 <Hal4D13_ReadEndpointWOClearBuffer+0xc8>
   //for(i<j; i=i+2, buf++ )
    {
         c = USB_DC_DATA_READ();
  8011b0:	00806c34 	movhi	r2,432
  8011b4:	10883e04 	addi	r2,r2,8440
  8011b8:	10800037 	ldwio	r2,0(r2)
  8011bc:	e0bffb0d 	sth	r2,-20(fp)
         *buf = (UCHAR)c;
  8011c0:	e0bffb0b 	ldhu	r2,-20(fp)
  8011c4:	1007883a 	mov	r3,r2
  8011c8:	e0bffe17 	ldw	r2,-8(fp)
  8011cc:	10c00005 	stb	r3,0(r2)
         USB_HAL4D13_DEBUG(("WOC= %02X ",*buf));//<<        
         i++;//<<
  8011d0:	e0bffc0b 	ldhu	r2,-16(fp)
  8011d4:	10800044 	addi	r2,r2,1
  8011d8:	e0bffc0d 	sth	r2,-16(fp)
         if (i >= j) break; //<<
  8011dc:	e0fffc0b 	ldhu	r3,-16(fp)
  8011e0:	e0bffb8b 	ldhu	r2,-18(fp)
  8011e4:	1880112e 	bgeu	r3,r2,80122c <Hal4D13_ReadEndpointWOClearBuffer+0xd4>
         buf++;
  8011e8:	e0bffe17 	ldw	r2,-8(fp)
  8011ec:	10800044 	addi	r2,r2,1
  8011f0:	e0bffe15 	stw	r2,-8(fp)
         *buf = (UCHAR)(c>>8); 
  8011f4:	e0bffb0b 	ldhu	r2,-20(fp)
  8011f8:	1004d23a 	srli	r2,r2,8
  8011fc:	1007883a 	mov	r3,r2
  801200:	e0bffe17 	ldw	r2,-8(fp)
  801204:	10c00005 	stb	r3,0(r2)
         USB_HAL4D13_DEBUG(("WOC= %02X ",*buf));//<<
   // richard   if (*buf==0x5) IOWR(LED_RED_BASE, 0 , 0xc1 );
         i++;//<<
  801208:	e0bffc0b 	ldhu	r2,-16(fp)
  80120c:	10800044 	addi	r2,r2,1
  801210:	e0bffc0d 	sth	r2,-16(fp)
     buf++;
  801214:	e0bffe17 	ldw	r2,-8(fp)
  801218:	10800044 	addi	r2,r2,1
  80121c:	e0bffe15 	stw	r2,-8(fp)
    /* read Buffer */
    j = USB_DC_DATA_READ();
    if(j > len)
        j = len;
    i=0;
    while (i<j) //<<    
  801220:	e0fffc0b 	ldhu	r3,-16(fp)
  801224:	e0bffb8b 	ldhu	r2,-18(fp)
  801228:	18bfe136 	bltu	r3,r2,8011b0 <Hal4D13_ReadEndpointWOClearBuffer+0x58>
         i++;//<<
     buf++;
    }
    USB_HAL4D13_DEBUG(("(read done)\n"));// richard ,c);
    /* Clear Buffer */
    USB_DC_CMD_WRITE( D13CMD_EP_CLEAR_BUF+bEPIndex);
  80122c:	e0bffd03 	ldbu	r2,-12(fp)
  801230:	10c01c04 	addi	r3,r2,112
  801234:	00806c34 	movhi	r2,432
  801238:	10883f04 	addi	r2,r2,8444
  80123c:	10c00035 	stwio	r3,0(r2)

    return j;
  801240:	e0bffb8b 	ldhu	r2,-18(fp)
}
  801244:	e037883a 	mov	sp,fp
  801248:	df000017 	ldw	fp,0(sp)
  80124c:	dec00104 	addi	sp,sp,4
  801250:	f800283a 	ret

00801254 <Hal4D13_WriteEndpoint>:

USHORT Hal4D13_WriteEndpoint(UCHAR bEPIndex, UCHAR * buf, USHORT len)
{
  801254:	defffb04 	addi	sp,sp,-20
  801258:	df000415 	stw	fp,16(sp)
  80125c:	df000404 	addi	fp,sp,16
  801260:	e17ffe15 	stw	r5,-8(fp)
  801264:	e13ffd05 	stb	r4,-12(fp)
  801268:	e1bfff0d 	sth	r6,-4(fp)
    USHORT i,c;
    /* Select Endpoint */
   
    USB_DC_CMD_WRITE( D13CMD_EP_WR_FIFO + bEPIndex);
  80126c:	e0fffd03 	ldbu	r3,-12(fp)
  801270:	00806c34 	movhi	r2,432
  801274:	10883f04 	addi	r2,r2,8444
  801278:	10c00035 	stwio	r3,0(r2)
    USB_DC_DATA_WRITE( len);
  80127c:	e0ffff0b 	ldhu	r3,-4(fp)
  801280:	00806c34 	movhi	r2,432
  801284:	10883e04 	addi	r2,r2,8440
  801288:	10c00035 	stwio	r3,0(r2)
    if (len==0) USB_DC_DATA_WRITE(0);
  80128c:	e0bfff0b 	ldhu	r2,-4(fp)
  801290:	1004c03a 	cmpne	r2,r2,zero
  801294:	1000031e 	bne	r2,zero,8012a4 <Hal4D13_WriteEndpoint+0x50>
  801298:	00806c34 	movhi	r2,432
  80129c:	10883e04 	addi	r2,r2,8440
  8012a0:	10000035 	stwio	zero,0(r2)
    /* Write Buffer */
  
    //for(i=0; i<len; i=i+2, buf++ )
  i=0;
  8012a4:	e03ffc8d 	sth	zero,-14(fp)
  while (i < len)
  8012a8:	00002706 	br	801348 <Hal4D13_WriteEndpoint+0xf4>
    {
        c = *buf;
  8012ac:	e0bffe17 	ldw	r2,-8(fp)
  8012b0:	10800003 	ldbu	r2,0(r2)
  8012b4:	10803fcc 	andi	r2,r2,255
  8012b8:	e0bffc0d 	sth	r2,-16(fp)
        buf++;i++;
  8012bc:	e0bffe17 	ldw	r2,-8(fp)
  8012c0:	10800044 	addi	r2,r2,1
  8012c4:	e0bffe15 	stw	r2,-8(fp)
  8012c8:	e0bffc8b 	ldhu	r2,-14(fp)
  8012cc:	10800044 	addi	r2,r2,1
  8012d0:	e0bffc8d 	sth	r2,-14(fp)
    if (i >=len) { USB_DC_DATA_WRITE(c); }//printf("w=%04x  ",c);break; }
  8012d4:	e0fffc8b 	ldhu	r3,-14(fp)
  8012d8:	e0bfff0b 	ldhu	r2,-4(fp)
  8012dc:	18800436 	bltu	r3,r2,8012f0 <Hal4D13_WriteEndpoint+0x9c>
  8012e0:	e0fffc0b 	ldhu	r3,-16(fp)
  8012e4:	00806c34 	movhi	r2,432
  8012e8:	10883e04 	addi	r2,r2,8440
  8012ec:	10c00035 	stwio	r3,0(r2)
        c =(c & 0xff)+ (*buf<<8  & 0xff00);    
  8012f0:	e0bffc0b 	ldhu	r2,-16(fp)
  8012f4:	10803fcc 	andi	r2,r2,255
  8012f8:	1009883a 	mov	r4,r2
  8012fc:	e0bffe17 	ldw	r2,-8(fp)
  801300:	10800003 	ldbu	r2,0(r2)
  801304:	10803fcc 	andi	r2,r2,255
  801308:	1004923a 	slli	r2,r2,8
  80130c:	1007883a 	mov	r3,r2
  801310:	00bfc004 	movi	r2,-256
  801314:	1884703a 	and	r2,r3,r2
  801318:	2085883a 	add	r2,r4,r2
  80131c:	e0bffc0d 	sth	r2,-16(fp)
    buf++;i++;      
  801320:	e0bffe17 	ldw	r2,-8(fp)
  801324:	10800044 	addi	r2,r2,1
  801328:	e0bffe15 	stw	r2,-8(fp)
  80132c:	e0bffc8b 	ldhu	r2,-14(fp)
  801330:	10800044 	addi	r2,r2,1
  801334:	e0bffc8d 	sth	r2,-14(fp)
        USB_DC_DATA_WRITE( c);
  801338:	e0fffc0b 	ldhu	r3,-16(fp)
  80133c:	00806c34 	movhi	r2,432
  801340:	10883e04 	addi	r2,r2,8440
  801344:	10c00035 	stwio	r3,0(r2)
    if (len==0) USB_DC_DATA_WRITE(0);
    /* Write Buffer */
  
    //for(i=0; i<len; i=i+2, buf++ )
  i=0;
  while (i < len)
  801348:	e0fffc8b 	ldhu	r3,-14(fp)
  80134c:	e0bfff0b 	ldhu	r2,-4(fp)
  801350:	18bfd636 	bltu	r3,r2,8012ac <Hal4D13_WriteEndpoint+0x58>
//    printf("w=%04x  ",c);
    }
//  printf("\nlen=%d i=%d\n",len,i);
  
    /* Validate Buffer */
    USB_DC_CMD_WRITE( D13CMD_EP_VALID_BUF+bEPIndex);
  801354:	e0bffd03 	ldbu	r2,-12(fp)
  801358:	10c01804 	addi	r3,r2,96
  80135c:	00806c34 	movhi	r2,432
  801360:	10883f04 	addi	r2,r2,8444
  801364:	10c00035 	stwio	r3,0(r2)
 // printf("\n");
    return i;
  801368:	e0bffc8b 	ldhu	r2,-14(fp)
}
  80136c:	e037883a 	mov	sp,fp
  801370:	df000017 	ldw	fp,0(sp)
  801374:	dec00104 	addi	sp,sp,4
  801378:	f800283a 	ret

0080137c <Hal4D13_WriteBulkEndpoint>:

USHORT Hal4D13_WriteBulkEndpoint(UCHAR bEPIndex, UCHAR * buf, USHORT len)
{
  80137c:	defffb04 	addi	sp,sp,-20
  801380:	df000415 	stw	fp,16(sp)
  801384:	df000404 	addi	fp,sp,16
  801388:	e17ffe15 	stw	r5,-8(fp)
  80138c:	e13ffd05 	stb	r4,-12(fp)
  801390:	e1bfff0d 	sth	r6,-4(fp)
    USHORT i, c;
    /* Select Endpoint */
    USB_DC_CMD_WRITE( D13CMD_EP_WR_FIFO + bEPIndex);
  801394:	e0fffd03 	ldbu	r3,-12(fp)
  801398:	00806c34 	movhi	r2,432
  80139c:	10883f04 	addi	r2,r2,8444
  8013a0:	10c00035 	stwio	r3,0(r2)
    USB_DC_DATA_WRITE( len);
  8013a4:	e0ffff0b 	ldhu	r3,-4(fp)
  8013a8:	00806c34 	movhi	r2,432
  8013ac:	10883e04 	addi	r2,r2,8440
  8013b0:	10c00035 	stwio	r3,0(r2)
    if (len==0) USB_DC_DATA_WRITE(0);
  8013b4:	e0bfff0b 	ldhu	r2,-4(fp)
  8013b8:	1004c03a 	cmpne	r2,r2,zero
  8013bc:	1000031e 	bne	r2,zero,8013cc <Hal4D13_WriteBulkEndpoint+0x50>
  8013c0:	00806c34 	movhi	r2,432
  8013c4:	10883e04 	addi	r2,r2,8440
  8013c8:	10000035 	stwio	zero,0(r2)

    /* Write Buffer */
    for(i=0; i<len; i=i+2, buf++ )
  8013cc:	e03ffc8d 	sth	zero,-14(fp)
  8013d0:	00001906 	br	801438 <Hal4D13_WriteBulkEndpoint+0xbc>
    {
        c = *buf;
  8013d4:	e0bffe17 	ldw	r2,-8(fp)
  8013d8:	10800003 	ldbu	r2,0(r2)
  8013dc:	10803fcc 	andi	r2,r2,255
  8013e0:	e0bffc0d 	sth	r2,-16(fp)
        buf++;
  8013e4:	e0bffe17 	ldw	r2,-8(fp)
  8013e8:	10800044 	addi	r2,r2,1
  8013ec:	e0bffe15 	stw	r2,-8(fp)
        c += (USHORT)(*buf << 8);
  8013f0:	e0bffe17 	ldw	r2,-8(fp)
  8013f4:	10800003 	ldbu	r2,0(r2)
  8013f8:	10803fcc 	andi	r2,r2,255
  8013fc:	1004923a 	slli	r2,r2,8
  801400:	1007883a 	mov	r3,r2
  801404:	e0bffc0b 	ldhu	r2,-16(fp)
  801408:	10c5883a 	add	r2,r2,r3
  80140c:	e0bffc0d 	sth	r2,-16(fp)
        USB_DC_DATA_WRITE(c);
  801410:	e0fffc0b 	ldhu	r3,-16(fp)
  801414:	00806c34 	movhi	r2,432
  801418:	10883e04 	addi	r2,r2,8440
  80141c:	10c00035 	stwio	r3,0(r2)
    USB_DC_CMD_WRITE( D13CMD_EP_WR_FIFO + bEPIndex);
    USB_DC_DATA_WRITE( len);
    if (len==0) USB_DC_DATA_WRITE(0);

    /* Write Buffer */
    for(i=0; i<len; i=i+2, buf++ )
  801420:	e0bffc8b 	ldhu	r2,-14(fp)
  801424:	10800084 	addi	r2,r2,2
  801428:	e0bffc8d 	sth	r2,-14(fp)
  80142c:	e0bffe17 	ldw	r2,-8(fp)
  801430:	10800044 	addi	r2,r2,1
  801434:	e0bffe15 	stw	r2,-8(fp)
  801438:	e0fffc8b 	ldhu	r3,-14(fp)
  80143c:	e0bfff0b 	ldhu	r2,-4(fp)
  801440:	18bfe436 	bltu	r3,r2,8013d4 <Hal4D13_WriteBulkEndpoint+0x58>
        buf++;
        c += (USHORT)(*buf << 8);
        USB_DC_DATA_WRITE(c);
    }
    /* Validate Buffer */
    USB_DC_CMD_WRITE(D13CMD_EP_VALID_BUF+bEPIndex);
  801444:	e0bffd03 	ldbu	r2,-12(fp)
  801448:	10c01804 	addi	r3,r2,96
  80144c:	00806c34 	movhi	r2,432
  801450:	10883f04 	addi	r2,r2,8444
  801454:	10c00035 	stwio	r3,0(r2)
    return len;
  801458:	e0bfff0b 	ldhu	r2,-4(fp)
}
  80145c:	e037883a 	mov	sp,fp
  801460:	df000017 	ldw	fp,0(sp)
  801464:	dec00104 	addi	sp,sp,4
  801468:	f800283a 	ret

0080146c <Hal4D13_GetIntEnable>:

ULONG Hal4D13_GetIntEnable(void)
{
  80146c:	defffe04 	addi	sp,sp,-8
  801470:	df000115 	stw	fp,4(sp)
  801474:	df000104 	addi	fp,sp,4
    ULONG i;
    USB_DC_CMD_WRITE(D13CMD_DEV_RD_INTEN);
  801478:	00c06c34 	movhi	r3,432
  80147c:	18c83f04 	addi	r3,r3,8444
  801480:	008030c4 	movi	r2,195
  801484:	18800035 	stwio	r2,0(r3)
    i = USB_DC_DATA_READ();
  801488:	00806c34 	movhi	r2,432
  80148c:	10883e04 	addi	r2,r2,8440
  801490:	10800037 	ldwio	r2,0(r2)
  801494:	e0bfff15 	stw	r2,-4(fp)
    i += (((ULONG)USB_DC_DATA_READ()) << 16);
  801498:	00806c34 	movhi	r2,432
  80149c:	10883e04 	addi	r2,r2,8440
  8014a0:	10800037 	ldwio	r2,0(r2)
  8014a4:	1006943a 	slli	r3,r2,16
  8014a8:	e0bfff17 	ldw	r2,-4(fp)
  8014ac:	10c5883a 	add	r2,r2,r3
  8014b0:	e0bfff15 	stw	r2,-4(fp)
    return i;
  8014b4:	e0bfff17 	ldw	r2,-4(fp)
}
  8014b8:	e037883a 	mov	sp,fp
  8014bc:	df000017 	ldw	fp,0(sp)
  8014c0:	dec00104 	addi	sp,sp,4
  8014c4:	f800283a 	ret

008014c8 <Hal4D13_SetIntEnable>:

void Hal4D13_SetIntEnable(ULONG dIntEn)
{
  8014c8:	defffe04 	addi	sp,sp,-8
  8014cc:	df000115 	stw	fp,4(sp)
  8014d0:	df000104 	addi	fp,sp,4
  8014d4:	e13fff15 	stw	r4,-4(fp)
    USB_DC_CMD_WRITE(D13CMD_DEV_WR_INTEN);
  8014d8:	00c06c34 	movhi	r3,432
  8014dc:	18c83f04 	addi	r3,r3,8444
  8014e0:	00803084 	movi	r2,194
  8014e4:	18800035 	stwio	r2,0(r3)
    dIntEn = (dIntEn & 0x0FFFFFF);
  8014e8:	e0ffff17 	ldw	r3,-4(fp)
  8014ec:	00804034 	movhi	r2,256
  8014f0:	10bfffc4 	addi	r2,r2,-1
  8014f4:	1884703a 	and	r2,r3,r2
  8014f8:	e0bfff15 	stw	r2,-4(fp)
    USB_DC_DATA_WRITE((USHORT)dIntEn);
  8014fc:	e0bfff17 	ldw	r2,-4(fp)
  801500:	10ffffcc 	andi	r3,r2,65535
  801504:	00806c34 	movhi	r2,432
  801508:	10883e04 	addi	r2,r2,8440
  80150c:	10c00035 	stwio	r3,0(r2)
    USB_DC_DATA_WRITE((USHORT)(dIntEn >> 16));
  801510:	e0bfff17 	ldw	r2,-4(fp)
  801514:	1004d43a 	srli	r2,r2,16
  801518:	10ffffcc 	andi	r3,r2,65535
  80151c:	00806c34 	movhi	r2,432
  801520:	10883e04 	addi	r2,r2,8440
  801524:	10c00035 	stwio	r3,0(r2)
}
  801528:	e037883a 	mov	sp,fp
  80152c:	df000017 	ldw	fp,0(sp)
  801530:	dec00104 	addi	sp,sp,4
  801534:	f800283a 	ret

00801538 <Hal4D13_ReadInterruptRegister>:

ULONG Hal4D13_ReadInterruptRegister(void)
{
  801538:	defffd04 	addi	sp,sp,-12
  80153c:	df000215 	stw	fp,8(sp)
  801540:	df000204 	addi	fp,sp,8
    ULONG j,i = 0;
  801544:	e03ffe15 	stw	zero,-8(fp)
    USB_DC_CMD_WRITE(D13CMD_DEV_INT_SRC);
  801548:	00c06c34 	movhi	r3,432
  80154c:	18c83f04 	addi	r3,r3,8444
  801550:	00803004 	movi	r2,192
  801554:	18800035 	stwio	r2,0(r3)
    i = USB_DC_DATA_READ();
  801558:	00806c34 	movhi	r2,432
  80155c:	10883e04 	addi	r2,r2,8440
  801560:	10800037 	ldwio	r2,0(r2)
  801564:	e0bffe15 	stw	r2,-8(fp)
    j = USB_DC_DATA_READ();
  801568:	00806c34 	movhi	r2,432
  80156c:	10883e04 	addi	r2,r2,8440
  801570:	10800037 	ldwio	r2,0(r2)
  801574:	e0bfff15 	stw	r2,-4(fp)
    j = ((j<<16) & 0xffff0000 ) + (i & 0xffff);
  801578:	e0bfff17 	ldw	r2,-4(fp)
  80157c:	1004943a 	slli	r2,r2,16
  801580:	10ffffec 	andhi	r3,r2,65535
  801584:	e0bffe17 	ldw	r2,-8(fp)
  801588:	10bfffcc 	andi	r2,r2,65535
  80158c:	1885883a 	add	r2,r3,r2
  801590:	e0bfff15 	stw	r2,-4(fp)
    return i;
  801594:	e0bffe17 	ldw	r2,-8(fp)
}
  801598:	e037883a 	mov	sp,fp
  80159c:	df000017 	ldw	fp,0(sp)
  8015a0:	dec00104 	addi	sp,sp,4
  8015a4:	f800283a 	ret

008015a8 <Hal4D13_GetEndpointStatusWInteruptClear>:

UCHAR Hal4D13_GetEndpointStatusWInteruptClear(UCHAR bEPIndex)
{
  8015a8:	defffd04 	addi	sp,sp,-12
  8015ac:	df000215 	stw	fp,8(sp)
  8015b0:	df000204 	addi	fp,sp,8
  8015b4:	e13fff05 	stb	r4,-4(fp)
    UCHAR c;
    USB_DC_CMD_WRITE( D13CMD_EP_RDSTS_CLRINT + bEPIndex);
  8015b8:	e0bfff03 	ldbu	r2,-4(fp)
  8015bc:	10c01404 	addi	r3,r2,80
  8015c0:	00806c34 	movhi	r2,432
  8015c4:	10883f04 	addi	r2,r2,8444
  8015c8:	10c00035 	stwio	r3,0(r2)
    c = (UCHAR)(USB_DC_DATA_READ() & 0x0ff);
  8015cc:	00806c34 	movhi	r2,432
  8015d0:	10883e04 	addi	r2,r2,8440
  8015d4:	10800037 	ldwio	r2,0(r2)
  8015d8:	1007883a 	mov	r3,r2
  8015dc:	00bfffc4 	movi	r2,-1
  8015e0:	1884703a 	and	r2,r3,r2
  8015e4:	e0bffe05 	stb	r2,-8(fp)
    return c;
  8015e8:	e0bffe03 	ldbu	r2,-8(fp)
}
  8015ec:	e037883a 	mov	sp,fp
  8015f0:	df000017 	ldw	fp,0(sp)
  8015f4:	dec00104 	addi	sp,sp,4
  8015f8:	f800283a 	ret

008015fc <Hal4D13_GetEndpointStatusWOInteruptClear>:

UCHAR Hal4D13_GetEndpointStatusWOInteruptClear(UCHAR bEPIndex)
{
  8015fc:	defffd04 	addi	sp,sp,-12
  801600:	df000215 	stw	fp,8(sp)
  801604:	df000204 	addi	fp,sp,8
  801608:	e13fff05 	stb	r4,-4(fp)
    UCHAR c;
    USB_DC_CMD_WRITE( D13CMD_EP_RDSTS + bEPIndex);
  80160c:	e0bfff03 	ldbu	r2,-4(fp)
  801610:	10c03404 	addi	r3,r2,208
  801614:	00806c34 	movhi	r2,432
  801618:	10883f04 	addi	r2,r2,8444
  80161c:	10c00035 	stwio	r3,0(r2)
    c = (UCHAR)(USB_DC_DATA_READ() &0x0ff);
  801620:	00806c34 	movhi	r2,432
  801624:	10883e04 	addi	r2,r2,8440
  801628:	10800037 	ldwio	r2,0(r2)
  80162c:	1007883a 	mov	r3,r2
  801630:	00bfffc4 	movi	r2,-1
  801634:	1884703a 	and	r2,r3,r2
  801638:	e0bffe05 	stb	r2,-8(fp)
    return c;
  80163c:	e0bffe03 	ldbu	r2,-8(fp)
}
  801640:	e037883a 	mov	sp,fp
  801644:	df000017 	ldw	fp,0(sp)
  801648:	dec00104 	addi	sp,sp,4
  80164c:	f800283a 	ret

00801650 <Hal4D13_SetEndpointStatus>:

void Hal4D13_SetEndpointStatus(UCHAR bEPIndex, UCHAR bStalled)
{
  801650:	defffd04 	addi	sp,sp,-12
  801654:	df000215 	stw	fp,8(sp)
  801658:	df000204 	addi	fp,sp,8
  80165c:	e13ffe05 	stb	r4,-8(fp)
  801660:	e17fff05 	stb	r5,-4(fp)
    if(bStalled & 0x80)
  801664:	e0bfff03 	ldbu	r2,-4(fp)
  801668:	10803fcc 	andi	r2,r2,255
  80166c:	1080201c 	xori	r2,r2,128
  801670:	10bfe004 	addi	r2,r2,-128
  801674:	1004403a 	cmpge	r2,r2,zero
  801678:	1000061e 	bne	r2,zero,801694 <Hal4D13_SetEndpointStatus+0x44>
    {
        USB_DC_CMD_WRITE( D13CMD_EP_WR_STS + bEPIndex);
  80167c:	e0bffe03 	ldbu	r2,-8(fp)
  801680:	10c01004 	addi	r3,r2,64
  801684:	00806c34 	movhi	r2,432
  801688:	10883f04 	addi	r2,r2,8444
  80168c:	10c00035 	stwio	r3,0(r2)
  801690:	00000506 	br	8016a8 <Hal4D13_SetEndpointStatus+0x58>
    }
    else
    {
    // clear endpoint stall.
        USB_DC_CMD_WRITE( D13CMD_EP_CLR_STALL + bEPIndex);
  801694:	e0bffe03 	ldbu	r2,-8(fp)
  801698:	10c02004 	addi	r3,r2,128
  80169c:	00806c34 	movhi	r2,432
  8016a0:	10883f04 	addi	r2,r2,8444
  8016a4:	10c00035 	stwio	r3,0(r2)
    }
}
  8016a8:	e037883a 	mov	sp,fp
  8016ac:	df000017 	ldw	fp,0(sp)
  8016b0:	dec00104 	addi	sp,sp,4
  8016b4:	f800283a 	ret

008016b8 <Hal4D13_SetDMAConfig>:

void Hal4D13_SetDMAConfig(USHORT wDMACnfg)
{
  8016b8:	defffe04 	addi	sp,sp,-8
  8016bc:	df000115 	stw	fp,4(sp)
  8016c0:	df000104 	addi	fp,sp,4
  8016c4:	e13fff0d 	sth	r4,-4(fp)
    USB_DC_CMD_WRITE(D13CMD_DMA_WR_CNFG);
  8016c8:	00c06c34 	movhi	r3,432
  8016cc:	18c83f04 	addi	r3,r3,8444
  8016d0:	00803c04 	movi	r2,240
  8016d4:	18800035 	stwio	r2,0(r3)
    USB_DC_DATA_WRITE( wDMACnfg);
  8016d8:	e0ffff0b 	ldhu	r3,-4(fp)
  8016dc:	00806c34 	movhi	r2,432
  8016e0:	10883e04 	addi	r2,r2,8440
  8016e4:	10c00035 	stwio	r3,0(r2)
}
  8016e8:	e037883a 	mov	sp,fp
  8016ec:	df000017 	ldw	fp,0(sp)
  8016f0:	dec00104 	addi	sp,sp,4
  8016f4:	f800283a 	ret

008016f8 <Hal4D13_GetDMAConfig>:

USHORT Hal4D13_GetDMAConfig(void)
{
  8016f8:	defffe04 	addi	sp,sp,-8
  8016fc:	df000115 	stw	fp,4(sp)
  801700:	df000104 	addi	fp,sp,4
    USHORT i;
    USB_DC_CMD_WRITE(D13CMD_DMA_RD_CNFG);
  801704:	00c06c34 	movhi	r3,432
  801708:	18c83f04 	addi	r3,r3,8444
  80170c:	00803c44 	movi	r2,241
  801710:	18800035 	stwio	r2,0(r3)
    i = USB_DC_DATA_READ();
  801714:	00806c34 	movhi	r2,432
  801718:	10883e04 	addi	r2,r2,8440
  80171c:	10800037 	ldwio	r2,0(r2)
  801720:	e0bfff0d 	sth	r2,-4(fp)
    return i;
  801724:	e0bfff0b 	ldhu	r2,-4(fp)
}
  801728:	e037883a 	mov	sp,fp
  80172c:	df000017 	ldw	fp,0(sp)
  801730:	dec00104 	addi	sp,sp,4
  801734:	f800283a 	ret

00801738 <Hal4D13_SetDMACounter>:

void Hal4D13_SetDMACounter(USHORT wDMACounter)
{
  801738:	defffe04 	addi	sp,sp,-8
  80173c:	df000115 	stw	fp,4(sp)
  801740:	df000104 	addi	fp,sp,4
  801744:	e13fff0d 	sth	r4,-4(fp)
    USB_DC_CMD_WRITE(D13CMD_DMA_WR_COUNT);
  801748:	00c06c34 	movhi	r3,432
  80174c:	18c83f04 	addi	r3,r3,8444
  801750:	00803c84 	movi	r2,242
  801754:	18800035 	stwio	r2,0(r3)
    USB_DC_DATA_WRITE( wDMACounter);
  801758:	e0ffff0b 	ldhu	r3,-4(fp)
  80175c:	00806c34 	movhi	r2,432
  801760:	10883e04 	addi	r2,r2,8440
  801764:	10c00035 	stwio	r3,0(r2)
}
  801768:	e037883a 	mov	sp,fp
  80176c:	df000017 	ldw	fp,0(sp)
  801770:	dec00104 	addi	sp,sp,4
  801774:	f800283a 	ret

00801778 <Hal4D13_GetDMACounter>:

USHORT Hal4D13_GetDMACounter(void)
{
  801778:	defffe04 	addi	sp,sp,-8
  80177c:	df000115 	stw	fp,4(sp)
  801780:	df000104 	addi	fp,sp,4
    USHORT i;
    USB_DC_CMD_WRITE(D13CMD_DMA_RD_COUNT);
  801784:	00c06c34 	movhi	r3,432
  801788:	18c83f04 	addi	r3,r3,8444
  80178c:	00803cc4 	movi	r2,243
  801790:	18800035 	stwio	r2,0(r3)
    i = USB_DC_DATA_READ();
  801794:	00806c34 	movhi	r2,432
  801798:	10883e04 	addi	r2,r2,8440
  80179c:	10800037 	ldwio	r2,0(r2)
  8017a0:	e0bfff0d 	sth	r2,-4(fp)
    return i;
  8017a4:	e0bfff0b 	ldhu	r2,-4(fp)
}
  8017a8:	e037883a 	mov	sp,fp
  8017ac:	df000017 	ldw	fp,0(sp)
  8017b0:	dec00104 	addi	sp,sp,4
  8017b4:	f800283a 	ret

008017b8 <Hal4D13_GetDataFromChipRam>:

USHORT Hal4D13_GetDataFromChipRam(void)
{
  8017b8:	defffe04 	addi	sp,sp,-8
  8017bc:	df000115 	stw	fp,4(sp)
  8017c0:	df000104 	addi	fp,sp,4
    USHORT i;
    USB_DC_CMD_WRITE(D13CMD_DEV_RD_RAM);
  8017c4:	00c06c34 	movhi	r3,432
  8017c8:	18c83f04 	addi	r3,r3,8444
  8017cc:	00802cc4 	movi	r2,179
  8017d0:	18800035 	stwio	r2,0(r3)
    i = USB_DC_DATA_READ();
  8017d4:	00806c34 	movhi	r2,432
  8017d8:	10883e04 	addi	r2,r2,8440
  8017dc:	10800037 	ldwio	r2,0(r2)
  8017e0:	e0bfff0d 	sth	r2,-4(fp)
    return i;
  8017e4:	e0bfff0b 	ldhu	r2,-4(fp)
}
  8017e8:	e037883a 	mov	sp,fp
  8017ec:	df000017 	ldw	fp,0(sp)
  8017f0:	dec00104 	addi	sp,sp,4
  8017f4:	f800283a 	ret

008017f8 <Hal4D13_SetDataToChipRam>:

void Hal4D13_SetDataToChipRam(USHORT wData)
{
  8017f8:	defffe04 	addi	sp,sp,-8
  8017fc:	df000115 	stw	fp,4(sp)
  801800:	df000104 	addi	fp,sp,4
  801804:	e13fff0d 	sth	r4,-4(fp)
    USB_DC_CMD_WRITE(D13CMD_DEV_WR_RAM);
  801808:	00c06c34 	movhi	r3,432
  80180c:	18c83f04 	addi	r3,r3,8444
  801810:	00802c84 	movi	r2,178
  801814:	18800035 	stwio	r2,0(r3)
    USB_DC_DATA_WRITE( wData);
  801818:	e0ffff0b 	ldhu	r3,-4(fp)
  80181c:	00806c34 	movhi	r2,432
  801820:	10883e04 	addi	r2,r2,8440
  801824:	10c00035 	stwio	r3,0(r2)
}
  801828:	e037883a 	mov	sp,fp
  80182c:	df000017 	ldw	fp,0(sp)
  801830:	dec00104 	addi	sp,sp,4
  801834:	f800283a 	ret

00801838 <Hal4D13_ReadCurrentFrameNumber>:

USHORT Hal4D13_ReadCurrentFrameNumber(void)
{
  801838:	defffe04 	addi	sp,sp,-8
  80183c:	df000115 	stw	fp,4(sp)
  801840:	df000104 	addi	fp,sp,4
    USHORT i;
    USB_DC_CMD_WRITE( D13CMD_RD_FRMNUM);
  801844:	00c06c34 	movhi	r3,432
  801848:	18c83f04 	addi	r3,r3,8444
  80184c:	00802d04 	movi	r2,180
  801850:	18800035 	stwio	r2,0(r3)
    i= USB_DC_DATA_READ();
  801854:	00806c34 	movhi	r2,432
  801858:	10883e04 	addi	r2,r2,8440
  80185c:	10800037 	ldwio	r2,0(r2)
  801860:	e0bfff0d 	sth	r2,-4(fp)
    return i;
  801864:	e0bfff0b 	ldhu	r2,-4(fp)
}
  801868:	e037883a 	mov	sp,fp
  80186c:	df000017 	ldw	fp,0(sp)
  801870:	dec00104 	addi	sp,sp,4
  801874:	f800283a 	ret

00801878 <Hal4D13_LockDevice>:

void Hal4D13_LockDevice(UCHAR bTrue)
{
  801878:	defffd04 	addi	sp,sp,-12
  80187c:	df000215 	stw	fp,8(sp)
  801880:	df000204 	addi	fp,sp,8
  801884:	e13fff05 	stb	r4,-4(fp)
    USHORT c;
    if(bTrue)
  801888:	e0bfff03 	ldbu	r2,-4(fp)
  80188c:	1005003a 	cmpeq	r2,r2,zero
  801890:	1000021e 	bne	r2,zero,80189c <Hal4D13_LockDevice+0x24>
        c = 0;
  801894:	e03ffe0d 	sth	zero,-8(fp)
  801898:	00000206 	br	8018a4 <Hal4D13_LockDevice+0x2c>
    else
        c = 0xAA37;
  80189c:	00aa8dc4 	movi	r2,-21961
  8018a0:	e0bffe0d 	sth	r2,-8(fp)
    USB_DC_CMD_WRITE(D13CMD_DEV_LOCK );
  8018a4:	00c06c34 	movhi	r3,432
  8018a8:	18c83f04 	addi	r3,r3,8444
  8018ac:	00802c04 	movi	r2,176
  8018b0:	18800035 	stwio	r2,0(r3)
    USB_DC_DATA_WRITE(c);
  8018b4:	e0fffe0b 	ldhu	r3,-8(fp)
  8018b8:	00806c34 	movhi	r2,432
  8018bc:	10883e04 	addi	r2,r2,8440
  8018c0:	10c00035 	stwio	r3,0(r2)
}
  8018c4:	e037883a 	mov	sp,fp
  8018c8:	df000017 	ldw	fp,0(sp)
  8018cc:	dec00104 	addi	sp,sp,4
  8018d0:	f800283a 	ret

008018d4 <Hal4D13_ReadChipID>:

USHORT Hal4D13_ReadChipID(void)
{
  8018d4:	defffd04 	addi	sp,sp,-12
  8018d8:	dfc00215 	stw	ra,8(sp)
  8018dc:	df000115 	stw	fp,4(sp)
  8018e0:	df000104 	addi	fp,sp,4
    USHORT i;
    USB_DC_CMD_WRITE( D13CMD_DEV_RD_CHIPID);
  8018e4:	00c06c34 	movhi	r3,432
  8018e8:	18c83f04 	addi	r3,r3,8444
  8018ec:	00802d44 	movi	r2,181
  8018f0:	18800035 	stwio	r2,0(r3)
    usleep(1);
  8018f4:	01000044 	movi	r4,1
  8018f8:	08109700 	call	810970 <usleep>
    i=USB_DC_DATA_READ();
  8018fc:	00806c34 	movhi	r2,432
  801900:	10883e04 	addi	r2,r2,8440
  801904:	10800037 	ldwio	r2,0(r2)
  801908:	e0bfff0d 	sth	r2,-4(fp)
    return i;
  80190c:	e0bfff0b 	ldhu	r2,-4(fp)
}
  801910:	e037883a 	mov	sp,fp
  801914:	dfc00117 	ldw	ra,4(sp)
  801918:	df000017 	ldw	fp,0(sp)
  80191c:	dec00204 	addi	sp,sp,8
  801920:	f800283a 	ret

00801924 <Hal4D13_GetErrorCode>:

UCHAR Hal4D13_GetErrorCode(UCHAR bEPIndex)
{
  801924:	defffd04 	addi	sp,sp,-12
  801928:	df000215 	stw	fp,8(sp)
  80192c:	df000204 	addi	fp,sp,8
  801930:	e13fff05 	stb	r4,-4(fp)
    UCHAR   c;
    USB_DC_CMD_WRITE( D13CMD_EP_RD_ERR+bEPIndex);
  801934:	e0bfff03 	ldbu	r2,-4(fp)
  801938:	10c02804 	addi	r3,r2,160
  80193c:	00806c34 	movhi	r2,432
  801940:	10883f04 	addi	r2,r2,8444
  801944:	10c00035 	stwio	r3,0(r2)
    c = (UCHAR)(USB_DC_DATA_READ()&0x0ff);
  801948:	00806c34 	movhi	r2,432
  80194c:	10883e04 	addi	r2,r2,8440
  801950:	10800037 	ldwio	r2,0(r2)
  801954:	1007883a 	mov	r3,r2
  801958:	00bfffc4 	movi	r2,-1
  80195c:	1884703a 	and	r2,r3,r2
  801960:	e0bffe05 	stb	r2,-8(fp)
    return c;
  801964:	e0bffe03 	ldbu	r2,-8(fp)
}
  801968:	e037883a 	mov	sp,fp
  80196c:	df000017 	ldw	fp,0(sp)
  801970:	dec00104 	addi	sp,sp,4
  801974:	f800283a 	ret

00801978 <Hal4D13_GetEndpointConfig>:

UCHAR Hal4D13_GetEndpointConfig(UCHAR bEPIndex)
{
  801978:	defffd04 	addi	sp,sp,-12
  80197c:	df000215 	stw	fp,8(sp)
  801980:	df000204 	addi	fp,sp,8
  801984:	e13fff05 	stb	r4,-4(fp)
    UCHAR   c;
    USB_DC_CMD_WRITE( D13CMD_EP_RD_CNFG+bEPIndex);
  801988:	e0bfff03 	ldbu	r2,-4(fp)
  80198c:	10c00c04 	addi	r3,r2,48
  801990:	00806c34 	movhi	r2,432
  801994:	10883f04 	addi	r2,r2,8444
  801998:	10c00035 	stwio	r3,0(r2)
    c = (UCHAR)(USB_DC_DATA_READ() & 0x0ff);
  80199c:	00806c34 	movhi	r2,432
  8019a0:	10883e04 	addi	r2,r2,8440
  8019a4:	10800037 	ldwio	r2,0(r2)
  8019a8:	1007883a 	mov	r3,r2
  8019ac:	00bfffc4 	movi	r2,-1
  8019b0:	1884703a 	and	r2,r3,r2
  8019b4:	e0bffe05 	stb	r2,-8(fp)
    return c;
  8019b8:	e0bffe03 	ldbu	r2,-8(fp)
}
  8019bc:	e037883a 	mov	sp,fp
  8019c0:	df000017 	ldw	fp,0(sp)
  8019c4:	dec00104 	addi	sp,sp,4
  8019c8:	f800283a 	ret

008019cc <Hal4D13_SetEndpointConfig>:

void Hal4D13_SetEndpointConfig(UCHAR bEPConfig, UCHAR bEPIndex)
{
  8019cc:	defffd04 	addi	sp,sp,-12
  8019d0:	df000215 	stw	fp,8(sp)
  8019d4:	df000204 	addi	fp,sp,8
  8019d8:	e13ffe05 	stb	r4,-8(fp)
  8019dc:	e17fff05 	stb	r5,-4(fp)
    USB_DC_CMD_WRITE( (USHORT)(D13CMD_EP_WR_CNFG+bEPIndex));
  8019e0:	e0bfff03 	ldbu	r2,-4(fp)
  8019e4:	10800804 	addi	r2,r2,32
  8019e8:	10ffffcc 	andi	r3,r2,65535
  8019ec:	00806c34 	movhi	r2,432
  8019f0:	10883f04 	addi	r2,r2,8444
  8019f4:	10c00035 	stwio	r3,0(r2)
    USB_DC_DATA_WRITE((USHORT)bEPConfig);
  8019f8:	e0fffe03 	ldbu	r3,-8(fp)
  8019fc:	00806c34 	movhi	r2,432
  801a00:	10883e04 	addi	r2,r2,8440
  801a04:	10c00035 	stwio	r3,0(r2)
}
  801a08:	e037883a 	mov	sp,fp
  801a0c:	df000017 	ldw	fp,0(sp)
  801a10:	dec00104 	addi	sp,sp,4
  801a14:	f800283a 	ret

00801a18 <Hal4D13_UnconfigDevice>:
// ************************************************************************
// Subroutines -- 3
// ************************************************************************
*/
void Hal4D13_UnconfigDevice(void)
{
  801a18:	deffff04 	addi	sp,sp,-4
  801a1c:	df000015 	stw	fp,0(sp)
  801a20:	d839883a 	mov	fp,sp
}
  801a24:	e037883a 	mov	sp,fp
  801a28:	df000017 	ldw	fp,0(sp)
  801a2c:	dec00104 	addi	sp,sp,4
  801a30:	f800283a 	ret

00801a34 <Hal4D13_ConfigDevice>:

void Hal4D13_ConfigDevice(void)
{
  801a34:	deffff04 	addi	sp,sp,-4
  801a38:	df000015 	stw	fp,0(sp)
  801a3c:	d839883a 	mov	fp,sp
}
  801a40:	e037883a 	mov	sp,fp
  801a44:	df000017 	ldw	fp,0(sp)
  801a48:	dec00104 	addi	sp,sp,4
  801a4c:	f800283a 	ret

00801a50 <Hal4D13_SingleTransmitEP0>:


void Hal4D13_SingleTransmitEP0(UCHAR * buf, USHORT len)
{
  801a50:	defffc04 	addi	sp,sp,-16
  801a54:	dfc00315 	stw	ra,12(sp)
  801a58:	df000215 	stw	fp,8(sp)
  801a5c:	df000204 	addi	fp,sp,8
  801a60:	e13ffe15 	stw	r4,-8(fp)
  801a64:	e17fff0d 	sth	r5,-4(fp)
    if( len <= EP0_PACKET_SIZE) {
  801a68:	e0bfff0b 	ldhu	r2,-4(fp)
  801a6c:	10801068 	cmpgeui	r2,r2,65
  801a70:	1000041e 	bne	r2,zero,801a84 <Hal4D13_SingleTransmitEP0+0x34>
        Hal4D13_WriteEndpoint(EPINDEX4EP0_CONTROL_IN, buf, len);
  801a74:	e1bfff0b 	ldhu	r6,-4(fp)
  801a78:	01000044 	movi	r4,1
  801a7c:	e17ffe17 	ldw	r5,-8(fp)
  801a80:	08012540 	call	801254 <Hal4D13_WriteEndpoint>
    }
}
  801a84:	e037883a 	mov	sp,fp
  801a88:	dfc00117 	ldw	ra,4(sp)
  801a8c:	df000017 	ldw	fp,0(sp)
  801a90:	dec00204 	addi	sp,sp,8
  801a94:	f800283a 	ret

00801a98 <Hal4D13_RegAccess>:

void Hal4D13_RegAccess(void)
{
  801a98:	defffc04 	addi	sp,sp,-16
  801a9c:	dfc00315 	stw	ra,12(sp)
  801aa0:	df000215 	stw	fp,8(sp)
  801aa4:	df000204 	addi	fp,sp,8
    USHORT   c;
    USHORT  i;
    ULONG   l;

    Hal4D13_ResetDevice();
  801aa8:	0800c400 	call	800c40 <Hal4D13_ResetDevice>
    printf("Reseting\n");
  801aac:	01002074 	movhi	r4,129
  801ab0:	211f0504 	addi	r4,r4,31764
  801ab4:	08069880 	call	806988 <puts>

    i = Hal4D13_ReadChipID();
  801ab8:	08018d40 	call	8018d4 <Hal4D13_ReadChipID>
  801abc:	e0bfff0d 	sth	r2,-4(fp)
    printf(" ChipId = %hx\n",i);
  801ac0:	e17fff0b 	ldhu	r5,-4(fp)
  801ac4:	01002074 	movhi	r4,129
  801ac8:	211f0804 	addi	r4,r4,31776
  801acc:	08068700 	call	806870 <printf>

    i = Hal4D13_GetDataFromChipRam();
  801ad0:	08017b80 	call	8017b8 <Hal4D13_GetDataFromChipRam>
  801ad4:	e0bfff0d 	sth	r2,-4(fp)
    printf(" Chip RAM = %hx\n",i);
  801ad8:	e17fff0b 	ldhu	r5,-4(fp)
  801adc:	01002074 	movhi	r4,129
  801ae0:	211f0c04 	addi	r4,r4,31792
  801ae4:	08068700 	call	806870 <printf>

    printf("Writing 0x55AA,");
  801ae8:	01002074 	movhi	r4,129
  801aec:	211f1104 	addi	r4,r4,31812
  801af0:	08068700 	call	806870 <printf>
    Hal4D13_SetDataToChipRam(0x55AA);
  801af4:	01156a84 	movi	r4,21930
  801af8:	08017f80 	call	8017f8 <Hal4D13_SetDataToChipRam>
    i = Hal4D13_GetDataFromChipRam();
  801afc:	08017b80 	call	8017b8 <Hal4D13_GetDataFromChipRam>
  801b00:	e0bfff0d 	sth	r2,-4(fp)
    printf(" Chip RAM = %hx\n",i);
  801b04:	e17fff0b 	ldhu	r5,-4(fp)
  801b08:	01002074 	movhi	r4,129
  801b0c:	211f0c04 	addi	r4,r4,31792
  801b10:	08068700 	call	806870 <printf>

    l = Hal4D13_GetIntEnable();
  801b14:	080146c0 	call	80146c <Hal4D13_GetIntEnable>
  801b18:	e0bffe15 	stw	r2,-8(fp)
    printf("Hal4D13_GetIntEnable = %lx\n",l);
  801b1c:	01002074 	movhi	r4,129
  801b20:	211f1504 	addi	r4,r4,31828
  801b24:	e17ffe17 	ldw	r5,-8(fp)
  801b28:	08068700 	call	806870 <printf>

    l = Hal4D13_ReadInterruptRegister();
  801b2c:	08015380 	call	801538 <Hal4D13_ReadInterruptRegister>
  801b30:	e0bffe15 	stw	r2,-8(fp)
    printf("Hal4D13_ReadInterruptRegister = %lx\n",l);
  801b34:	01002074 	movhi	r4,129
  801b38:	211f1c04 	addi	r4,r4,31856
  801b3c:	e17ffe17 	ldw	r5,-8(fp)
  801b40:	08068700 	call	806870 <printf>

    i = Hal4D13_GetDevConfig();
  801b44:	0800c6c0 	call	800c6c <Hal4D13_GetDevConfig>
  801b48:	e0bfff0d 	sth	r2,-4(fp)
    printf("Hal4D13_GetDevConfig = %hx\n",i);
  801b4c:	e17fff0b 	ldhu	r5,-4(fp)
  801b50:	01002074 	movhi	r4,129
  801b54:	211f2604 	addi	r4,r4,31896
  801b58:	08068700 	call	806870 <printf>

    i = Hal4D13_GetDMAConfig();
  801b5c:	08016f80 	call	8016f8 <Hal4D13_GetDMAConfig>
  801b60:	e0bfff0d 	sth	r2,-4(fp)
    printf("Hal4D13_GetDMAConfig = %hx\n",i);
  801b64:	e17fff0b 	ldhu	r5,-4(fp)
  801b68:	01002074 	movhi	r4,129
  801b6c:	211f2d04 	addi	r4,r4,31924
  801b70:	08068700 	call	806870 <printf>

    i = Hal4D13_GetDMACounter();
  801b74:	08017780 	call	801778 <Hal4D13_GetDMACounter>
  801b78:	e0bfff0d 	sth	r2,-4(fp)
    printf("Hal4D13_GetDMACounter = %hx\n",i);
  801b7c:	e17fff0b 	ldhu	r5,-4(fp)
  801b80:	01002074 	movhi	r4,129
  801b84:	211f3404 	addi	r4,r4,31952
  801b88:	08068700 	call	806870 <printf>

    i = Hal4D13_ReadCurrentFrameNumber();
  801b8c:	08018380 	call	801838 <Hal4D13_ReadCurrentFrameNumber>
  801b90:	e0bfff0d 	sth	r2,-4(fp)
    printf("Hal4D13_ReadCurrentFrameNumber = %hx\n",i);
  801b94:	e17fff0b 	ldhu	r5,-4(fp)
  801b98:	01002074 	movhi	r4,129
  801b9c:	211f3c04 	addi	r4,r4,31984
  801ba0:	08068700 	call	806870 <printf>

    c = Hal4D13_GetMode();
  801ba4:	0800d2c0 	call	800d2c <Hal4D13_GetMode>
  801ba8:	10803fcc 	andi	r2,r2,255
  801bac:	e0bfff8d 	sth	r2,-2(fp)
    printf("Hal4D13_GetMode = %x\n",c);
  801bb0:	e17fff8b 	ldhu	r5,-2(fp)
  801bb4:	01002074 	movhi	r4,129
  801bb8:	211f4604 	addi	r4,r4,32024
  801bbc:	08068700 	call	806870 <printf>

    c = Hal4D13_GetEndpointStatusWOInteruptClear(EPINDEX4EP0_CONTROL_OUT);
  801bc0:	0009883a 	mov	r4,zero
  801bc4:	08015fc0 	call	8015fc <Hal4D13_GetEndpointStatusWOInteruptClear>
  801bc8:	10803fcc 	andi	r2,r2,255
  801bcc:	e0bfff8d 	sth	r2,-2(fp)
    printf("Hal4D13_GetEndpointStatus EP0 = %x\n",c);
  801bd0:	e17fff8b 	ldhu	r5,-2(fp)
  801bd4:	01002074 	movhi	r4,129
  801bd8:	211f4c04 	addi	r4,r4,32048
  801bdc:	08068700 	call	806870 <printf>

    c = Hal4D13_GetAddress();
  801be0:	0800d780 	call	800d78 <Hal4D13_GetAddress>
  801be4:	10803fcc 	andi	r2,r2,255
  801be8:	e0bfff8d 	sth	r2,-2(fp)
//  printf("Hal4D13_GetAddress = %x\n",c);
}
  801bec:	e037883a 	mov	sp,fp
  801bf0:	dfc00117 	ldw	ra,4(sp)
  801bf4:	df000017 	ldw	fp,0(sp)
  801bf8:	dec00204 	addi	sp,sp,8
  801bfc:	f800283a 	ret

00801c00 <Hal4D13_StallEP0InControlWrite>:

void Hal4D13_StallEP0InControlWrite(void)
{
  801c00:	defffe04 	addi	sp,sp,-8
  801c04:	dfc00115 	stw	ra,4(sp)
  801c08:	df000015 	stw	fp,0(sp)
  801c0c:	d839883a 	mov	fp,sp
    Hal4D13_SetEndpointStatus(EPINDEX4EP0_CONTROL_IN, D13REG_EPSTS_STALL);
  801c10:	01000044 	movi	r4,1
  801c14:	01402004 	movi	r5,128
  801c18:	08016500 	call	801650 <Hal4D13_SetEndpointStatus>
    Hal4D13_SetEndpointStatus(EPINDEX4EP0_CONTROL_OUT, D13REG_EPSTS_STALL);
  801c1c:	0009883a 	mov	r4,zero
  801c20:	01402004 	movi	r5,128
  801c24:	08016500 	call	801650 <Hal4D13_SetEndpointStatus>
}
  801c28:	e037883a 	mov	sp,fp
  801c2c:	dfc00117 	ldw	ra,4(sp)
  801c30:	df000017 	ldw	fp,0(sp)
  801c34:	dec00204 	addi	sp,sp,8
  801c38:	f800283a 	ret

00801c3c <Hal4D13_StallEP0InControlRead>:

void Hal4D13_StallEP0InControlRead(void)
{
  801c3c:	defffe04 	addi	sp,sp,-8
  801c40:	dfc00115 	stw	ra,4(sp)
  801c44:	df000015 	stw	fp,0(sp)
  801c48:	d839883a 	mov	fp,sp
    Hal4D13_SetEndpointStatus(EPINDEX4EP0_CONTROL_OUT, D13REG_EPSTS_STALL);
  801c4c:	0009883a 	mov	r4,zero
  801c50:	01402004 	movi	r5,128
  801c54:	08016500 	call	801650 <Hal4D13_SetEndpointStatus>
    Hal4D13_SetEndpointStatus(EPINDEX4EP0_CONTROL_IN, D13REG_EPSTS_STALL);
  801c58:	01000044 	movi	r4,1
  801c5c:	01402004 	movi	r5,128
  801c60:	08016500 	call	801650 <Hal4D13_SetEndpointStatus>
}
  801c64:	e037883a 	mov	sp,fp
  801c68:	dfc00117 	ldw	ra,4(sp)
  801c6c:	df000017 	ldw	fp,0(sp)
  801c70:	dec00204 	addi	sp,sp,8
  801c74:	f800283a 	ret

00801c78 <Hal4D13_IsSetupPktInvalid>:

BOOLEAN Hal4D13_IsSetupPktInvalid(void)
{
  801c78:	defffd04 	addi	sp,sp,-12
  801c7c:	dfc00215 	stw	ra,8(sp)
  801c80:	df000115 	stw	fp,4(sp)
  801c84:	df000104 	addi	fp,sp,4
    USHORT SetupPacketInvalid;
    SetupPacketInvalid = Hal4D13_GetEndpointStatusWOInteruptClear(EPINDEX4EP0_CONTROL_OUT)&D13REG_EPSTS_OVWR;
  801c88:	0009883a 	mov	r4,zero
  801c8c:	08015fc0 	call	8015fc <Hal4D13_GetEndpointStatusWOInteruptClear>
  801c90:	10803fcc 	andi	r2,r2,255
  801c94:	1080020c 	andi	r2,r2,8
  801c98:	e0bfff0d 	sth	r2,-4(fp)
    return SetupPacketInvalid;
  801c9c:	e0bfff0b 	ldhu	r2,-4(fp)
  801ca0:	10803fcc 	andi	r2,r2,255
}
  801ca4:	e037883a 	mov	sp,fp
  801ca8:	dfc00117 	ldw	ra,4(sp)
  801cac:	df000017 	ldw	fp,0(sp)
  801cb0:	dec00204 	addi	sp,sp,8
  801cb4:	f800283a 	ret

00801cb8 <Write_HC_Config_Reg>:

void Write_HC_Config_Reg(unsigned short Config)
{
  801cb8:	defffe04 	addi	sp,sp,-8
  801cbc:	df000115 	stw	fp,4(sp)
  801cc0:	df000104 	addi	fp,sp,4
  801cc4:	e13fff0d 	sth	r4,-4(fp)
    USB_HC_CMD_WRITE(HCCMD_WR_CNFG_REG );
  801cc8:	00c06c34 	movhi	r3,432
  801ccc:	18c83d04 	addi	r3,r3,8436
  801cd0:	00802804 	movi	r2,160
  801cd4:	18800035 	stwio	r2,0(r3)
    USB_HC_DATA_WRITE(Config);
  801cd8:	e0ffff0b 	ldhu	r3,-4(fp)
  801cdc:	00806c34 	movhi	r2,432
  801ce0:	10883c04 	addi	r2,r2,8432
  801ce4:	10c00035 	stwio	r3,0(r2)
}
  801ce8:	e037883a 	mov	sp,fp
  801cec:	df000017 	ldw	fp,0(sp)
  801cf0:	dec00104 	addi	sp,sp,4
  801cf4:	f800283a 	ret

00801cf8 <Read_HC_Config_Reg>:

unsigned short Read_HC_Config_Reg(void)
{
  801cf8:	deffff04 	addi	sp,sp,-4
  801cfc:	df000015 	stw	fp,0(sp)
  801d00:	d839883a 	mov	fp,sp
    USB_HC_CMD_WRITE(HCCMD_RD_CNFG_REG );
  801d04:	00c06c34 	movhi	r3,432
  801d08:	18c83d04 	addi	r3,r3,8436
  801d0c:	00800804 	movi	r2,32
  801d10:	18800035 	stwio	r2,0(r3)
    return USB_HC_DATA_READ();
  801d14:	00806c34 	movhi	r2,432
  801d18:	10883c04 	addi	r2,r2,8432
  801d1c:	10800037 	ldwio	r2,0(r2)
  801d20:	10bfffcc 	andi	r2,r2,65535
}
  801d24:	e037883a 	mov	sp,fp
  801d28:	df000017 	ldw	fp,0(sp)
  801d2c:	dec00104 	addi	sp,sp,4
  801d30:	f800283a 	ret

00801d34 <LCD_Init>:
#include <io.h>
#include "system.h"
#include "LCD.h"
//-------------------------------------------------------------------------
void LCD_Init()
{
  801d34:	defffe04 	addi	sp,sp,-8
  801d38:	dfc00115 	stw	ra,4(sp)
  801d3c:	df000015 	stw	fp,0(sp)
  801d40:	d839883a 	mov	fp,sp
  lcd_write_cmd(LCD_BASE,0x38); 
  801d44:	00c06c34 	movhi	r3,432
  801d48:	18c81804 	addi	r3,r3,8288
  801d4c:	00800e04 	movi	r2,56
  801d50:	18800035 	stwio	r2,0(r3)
  usleep(2000);
  801d54:	0101f404 	movi	r4,2000
  801d58:	08109700 	call	810970 <usleep>
  lcd_write_cmd(LCD_BASE,0x0C);
  801d5c:	00c06c34 	movhi	r3,432
  801d60:	18c81804 	addi	r3,r3,8288
  801d64:	00800304 	movi	r2,12
  801d68:	18800035 	stwio	r2,0(r3)
  usleep(2000);
  801d6c:	0101f404 	movi	r4,2000
  801d70:	08109700 	call	810970 <usleep>
  lcd_write_cmd(LCD_BASE,0x01);
  801d74:	00c06c34 	movhi	r3,432
  801d78:	18c81804 	addi	r3,r3,8288
  801d7c:	00800044 	movi	r2,1
  801d80:	18800035 	stwio	r2,0(r3)
  usleep(2000);
  801d84:	0101f404 	movi	r4,2000
  801d88:	08109700 	call	810970 <usleep>
  lcd_write_cmd(LCD_BASE,0x06);
  801d8c:	00c06c34 	movhi	r3,432
  801d90:	18c81804 	addi	r3,r3,8288
  801d94:	00800184 	movi	r2,6
  801d98:	18800035 	stwio	r2,0(r3)
  usleep(2000);
  801d9c:	0101f404 	movi	r4,2000
  801da0:	08109700 	call	810970 <usleep>
  lcd_write_cmd(LCD_BASE,0x80);
  801da4:	00c06c34 	movhi	r3,432
  801da8:	18c81804 	addi	r3,r3,8288
  801dac:	00802004 	movi	r2,128
  801db0:	18800035 	stwio	r2,0(r3)
  usleep(2000);
  801db4:	0101f404 	movi	r4,2000
  801db8:	08109700 	call	810970 <usleep>
}
  801dbc:	e037883a 	mov	sp,fp
  801dc0:	dfc00117 	ldw	ra,4(sp)
  801dc4:	df000017 	ldw	fp,0(sp)
  801dc8:	dec00204 	addi	sp,sp,8
  801dcc:	f800283a 	ret

00801dd0 <LCD_Show_Text>:
//-------------------------------------------------------------------------
void LCD_Show_Text(char* Text)
{
  801dd0:	defffb04 	addi	sp,sp,-20
  801dd4:	dfc00415 	stw	ra,16(sp)
  801dd8:	df000315 	stw	fp,12(sp)
  801ddc:	dc000215 	stw	r16,8(sp)
  801de0:	df000204 	addi	fp,sp,8
  801de4:	e13fff15 	stw	r4,-4(fp)
  int i;
  for(i=0;i<strlen(Text);i++)
  801de8:	e03ffe15 	stw	zero,-8(fp)
  801dec:	00001006 	br	801e30 <LCD_Show_Text+0x60>
  {
    lcd_write_data(LCD_BASE,Text[i]);
  801df0:	e0bffe17 	ldw	r2,-8(fp)
  801df4:	1007883a 	mov	r3,r2
  801df8:	e0bfff17 	ldw	r2,-4(fp)
  801dfc:	1885883a 	add	r2,r3,r2
  801e00:	10800003 	ldbu	r2,0(r2)
  801e04:	10c03fcc 	andi	r3,r2,255
  801e08:	18c0201c 	xori	r3,r3,128
  801e0c:	18ffe004 	addi	r3,r3,-128
  801e10:	00806c34 	movhi	r2,432
  801e14:	10881a04 	addi	r2,r2,8296
  801e18:	10c00035 	stwio	r3,0(r2)
    usleep(2000);
  801e1c:	0101f404 	movi	r4,2000
  801e20:	08109700 	call	810970 <usleep>
}
//-------------------------------------------------------------------------
void LCD_Show_Text(char* Text)
{
  int i;
  for(i=0;i<strlen(Text);i++)
  801e24:	e0bffe17 	ldw	r2,-8(fp)
  801e28:	10800044 	addi	r2,r2,1
  801e2c:	e0bffe15 	stw	r2,-8(fp)
  801e30:	e43ffe17 	ldw	r16,-8(fp)
  801e34:	e13fff17 	ldw	r4,-4(fp)
  801e38:	0806a700 	call	806a70 <strlen>
  801e3c:	80bfec36 	bltu	r16,r2,801df0 <LCD_Show_Text+0x20>
  {
    lcd_write_data(LCD_BASE,Text[i]);
    usleep(2000);
  }
}
  801e40:	e037883a 	mov	sp,fp
  801e44:	dfc00217 	ldw	ra,8(sp)
  801e48:	df000117 	ldw	fp,4(sp)
  801e4c:	dc000017 	ldw	r16,0(sp)
  801e50:	dec00304 	addi	sp,sp,12
  801e54:	f800283a 	ret

00801e58 <LCD_Line2>:
//-------------------------------------------------------------------------
void LCD_Line2()
{
  801e58:	defffe04 	addi	sp,sp,-8
  801e5c:	dfc00115 	stw	ra,4(sp)
  801e60:	df000015 	stw	fp,0(sp)
  801e64:	d839883a 	mov	fp,sp
  lcd_write_cmd(LCD_BASE,0xC0);
  801e68:	00c06c34 	movhi	r3,432
  801e6c:	18c81804 	addi	r3,r3,8288
  801e70:	00803004 	movi	r2,192
  801e74:	18800035 	stwio	r2,0(r3)
  usleep(2000);
  801e78:	0101f404 	movi	r4,2000
  801e7c:	08109700 	call	810970 <usleep>
}
  801e80:	e037883a 	mov	sp,fp
  801e84:	dfc00117 	ldw	ra,4(sp)
  801e88:	df000017 	ldw	fp,0(sp)
  801e8c:	dec00204 	addi	sp,sp,8
  801e90:	f800283a 	ret

00801e94 <LCD_Test>:
//-------------------------------------------------------------------------
void LCD_Test()
{
  801e94:	defff604 	addi	sp,sp,-40
  801e98:	dfc00915 	stw	ra,36(sp)
  801e9c:	df000815 	stw	fp,32(sp)
  801ea0:	df000804 	addi	fp,sp,32
  char Text1[16] = "Altera DE2 Board";
  801ea4:	00c02074 	movhi	r3,129
  801ea8:	18df5504 	addi	r3,r3,32084
  801eac:	18800017 	ldw	r2,0(r3)
  801eb0:	e0bff815 	stw	r2,-32(fp)
  801eb4:	18800117 	ldw	r2,4(r3)
  801eb8:	e0bff915 	stw	r2,-28(fp)
  801ebc:	18800217 	ldw	r2,8(r3)
  801ec0:	e0bffa15 	stw	r2,-24(fp)
  801ec4:	18800317 	ldw	r2,12(r3)
  801ec8:	e0bffb15 	stw	r2,-20(fp)
  char Text2[16] = " USB Paintbrush ";
  801ecc:	00c02074 	movhi	r3,129
  801ed0:	18df5a04 	addi	r3,r3,32104
  801ed4:	18800017 	ldw	r2,0(r3)
  801ed8:	e0bffc15 	stw	r2,-16(fp)
  801edc:	18800117 	ldw	r2,4(r3)
  801ee0:	e0bffd15 	stw	r2,-12(fp)
  801ee4:	18800217 	ldw	r2,8(r3)
  801ee8:	e0bffe15 	stw	r2,-8(fp)
  801eec:	18800317 	ldw	r2,12(r3)
  801ef0:	e0bfff15 	stw	r2,-4(fp)
  //  Initial LCD
  LCD_Init();
  801ef4:	0801d340 	call	801d34 <LCD_Init>
  //  Show Text to LCD
  LCD_Show_Text(Text1);
  801ef8:	e13ff804 	addi	r4,fp,-32
  801efc:	0801dd00 	call	801dd0 <LCD_Show_Text>
  //  Change Line2
  LCD_Line2();
  801f00:	0801e580 	call	801e58 <LCD_Line2>
  //  Show Text to LCD
  LCD_Show_Text(Text2);
  801f04:	e13ffc04 	addi	r4,fp,-16
  801f08:	0801dd00 	call	801dd0 <LCD_Show_Text>
}
  801f0c:	e037883a 	mov	sp,fp
  801f10:	dfc00117 	ldw	ra,4(sp)
  801f14:	df000017 	ldw	fp,0(sp)
  801f18:	dec00204 	addi	sp,sp,8
  801f1c:	f800283a 	ret

00801f20 <maxmin>:
#include "cheeyu.h"
#include "mouse.h"
#include <unistd.h>

int maxmin(int no, int max, int min)
{
  801f20:	defffc04 	addi	sp,sp,-16
  801f24:	df000315 	stw	fp,12(sp)
  801f28:	df000304 	addi	fp,sp,12
  801f2c:	e13ffd15 	stw	r4,-12(fp)
  801f30:	e17ffe15 	stw	r5,-8(fp)
  801f34:	e1bfff15 	stw	r6,-4(fp)
 if(no>max) {no=max;}
  801f38:	e0fffd17 	ldw	r3,-12(fp)
  801f3c:	e0bffe17 	ldw	r2,-8(fp)
  801f40:	10c0020e 	bge	r2,r3,801f4c <maxmin+0x2c>
  801f44:	e0bffe17 	ldw	r2,-8(fp)
  801f48:	e0bffd15 	stw	r2,-12(fp)
 if(no<min) {no=min;}
  801f4c:	e0fffd17 	ldw	r3,-12(fp)
  801f50:	e0bfff17 	ldw	r2,-4(fp)
  801f54:	1880020e 	bge	r3,r2,801f60 <maxmin+0x40>
  801f58:	e0bfff17 	ldw	r2,-4(fp)
  801f5c:	e0bffd15 	stw	r2,-12(fp)

 return(no);
  801f60:	e0bffd17 	ldw	r2,-12(fp)
}
  801f64:	e037883a 	mov	sp,fp
  801f68:	df000017 	ldw	fp,0(sp)
  801f6c:	dec00104 	addi	sp,sp,4
  801f70:	f800283a 	ret

00801f74 <play_mouse>:

void play_mouse(unsigned int addr)
{
  801f74:	defeea04 	addi	sp,sp,-1112
  801f78:	dfc11515 	stw	ra,1108(sp)
  801f7c:	df011415 	stw	fp,1104(sp)
  801f80:	df011404 	addi	fp,sp,1104
  801f84:	e13fff15 	stw	r4,-4(fp)
 //buffer information
 unsigned int atllen,ptllen,intllen;
 unsigned int int_start;

 //int parameters
 unsigned long int_skip=0xFFFFFFFE;
  801f88:	00bfff84 	movi	r2,-2
  801f8c:	e0befa15 	stw	r2,-1048(fp)
 unsigned long int_last=0x00000001;
  801f90:	00800044 	movi	r2,1
  801f94:	e0bef915 	stw	r2,-1052(fp)
 unsigned int  int_blk_size=64;
  801f98:	00801004 	movi	r2,64
  801f9c:	e0bef815 	stw	r2,-1056(fp)

 unsigned int timecnt;
 unsigned int freq;

 signed char X=0,Y=0,B=0;
  801fa0:	e03ef585 	stb	zero,-1066(fp)
  801fa4:	e03ef545 	stb	zero,-1067(fp)
  801fa8:	e03ef505 	stb	zero,-1068(fp)

 unsigned int pX=320,pY=240;
  801fac:	00805004 	movi	r2,320
  801fb0:	e0bef415 	stw	r2,-1072(fp)
  801fb4:	00803c04 	movi	r2,240
  801fb8:	e0bef315 	stw	r2,-1076(fp)
 unsigned int oX=320,oY=240;
  801fbc:	00805004 	movi	r2,320
  801fc0:	e0bef215 	stw	r2,-1080(fp)
  801fc4:	00803c04 	movi	r2,240
  801fc8:	e0bef115 	stw	r2,-1084(fp)

 unsigned int tog=0;
  801fcc:	e03ef015 	stw	zero,-1088(fp)
 
 freq=0x00;
  801fd0:	e03ef615 	stw	zero,-1064(fp)
 erase_all();
  801fd4:	08006880 	call	800688 <erase_all>

 w16(HcBufStatus,0x00);
  801fd8:	01000b04 	movi	r4,44
  801fdc:	000b883a 	mov	r5,zero
  801fe0:	08046e00 	call	8046e0 <w16>

 //Setup Int Parameters
 w32(HcIntSkip,int_skip);
  801fe4:	01000604 	movi	r4,24
  801fe8:	e17efa17 	ldw	r5,-1048(fp)
  801fec:	08046000 	call	804600 <w32>
 w32(HcIntLast,int_last);
  801ff0:	01000644 	movi	r4,25
  801ff4:	e17ef917 	ldw	r5,-1052(fp)
  801ff8:	08046000 	call	804600 <w32>
 w16(HcIntBlkSize,int_blk_size);
  801ffc:	010014c4 	movi	r4,83
  802000:	e17ef817 	ldw	r5,-1056(fp)
  802004:	08046e00 	call	8046e0 <w16>

 //Setup Buffer
 atllen  =r16(HcATLLen);
  802008:	01000d04 	movi	r4,52
  80200c:	080468c0 	call	80468c <r16>
  802010:	e0befe15 	stw	r2,-1032(fp)
 ptllen  =r16(HcPTLLen);
  802014:	01000c04 	movi	r4,48
  802018:	080468c0 	call	80468c <r16>
  80201c:	e0befd15 	stw	r2,-1036(fp)
 intllen =r16(HcINTLen);
  802020:	01000cc4 	movi	r4,51
  802024:	080468c0 	call	80468c <r16>
  802028:	e0befc15 	stw	r2,-1040(fp)

 int_start=ptllen+ptllen;
  80202c:	e0fefd17 	ldw	r3,-1036(fp)
  802030:	e0befd17 	ldw	r2,-1036(fp)
  802034:	1885883a 	add	r2,r3,r2
  802038:	e0befb15 	stw	r2,-1044(fp)

 do
  {
   //send out DATA IN packet
   make_int_ptd(cbuf,IN,1,DATA_IN_PACKET_LENGTH,tog%2,addr,addr,freq);
  80203c:	e1beff04 	addi	r6,fp,-1028
  802040:	e0bef017 	ldw	r2,-1088(fp)
  802044:	10803fcc 	andi	r2,r2,255
  802048:	1100004c 	andi	r4,r2,1
  80204c:	e0bfff17 	ldw	r2,-4(fp)
  802050:	11403fcc 	andi	r5,r2,255
  802054:	2940201c 	xori	r5,r5,128
  802058:	297fe004 	addi	r5,r5,-128
  80205c:	e0bfff17 	ldw	r2,-4(fp)
  802060:	10803fcc 	andi	r2,r2,255
  802064:	1080201c 	xori	r2,r2,128
  802068:	10bfe004 	addi	r2,r2,-128
  80206c:	e0fef617 	ldw	r3,-1064(fp)
  802070:	d9000015 	stw	r4,0(sp)
  802074:	d9400115 	stw	r5,4(sp)
  802078:	d8800215 	stw	r2,8(sp)
  80207c:	d8c00315 	stw	r3,12(sp)
  802080:	3009883a 	mov	r4,r6
  802084:	01400084 	movi	r5,2
  802088:	01800044 	movi	r6,1
  80208c:	01c00144 	movi	r7,5
  802090:	0803b340 	call	803b34 <make_int_ptd>

   timecnt=send_int(cbuf,rbuf);
  802094:	e13eff04 	addi	r4,fp,-1028
  802098:	e17f7f04 	addi	r5,fp,-516
  80209c:	08033080 	call	803308 <send_int>
  8020a0:	e0bef715 	stw	r2,-1060(fp)
   if(timecnt!=0)
  8020a4:	e0bef717 	ldw	r2,-1060(fp)
  8020a8:	1005003a 	cmpeq	r2,r2,zero
  8020ac:	1000091e 	bne	r2,zero,8020d4 <play_mouse+0x160>
   {
	   X=(rbuf[4]>>8);
  8020b0:	e0bf8317 	ldw	r2,-500(fp)
  8020b4:	1004d23a 	srli	r2,r2,8
  8020b8:	e0bef585 	stb	r2,-1066(fp)
	   Y=(rbuf[5]&0x00FF);
  8020bc:	e0bf8417 	ldw	r2,-496(fp)
  8020c0:	e0bef545 	stb	r2,-1067(fp)
	   B=(rbuf[4]&0x000F);
  8020c4:	e0bf8317 	ldw	r2,-500(fp)
  8020c8:	108003cc 	andi	r2,r2,15
  8020cc:	e0bef505 	stb	r2,-1068(fp)
  8020d0:	00000306 	br	8020e0 <play_mouse+0x16c>
   }
   else
   {
	   X=0;
  8020d4:	e03ef585 	stb	zero,-1066(fp)
	   Y=0;
  8020d8:	e03ef545 	stb	zero,-1067(fp)
	   B=0;
  8020dc:	e03ef505 	stb	zero,-1068(fp)
   }

   oX=pX;
  8020e0:	e0bef417 	ldw	r2,-1072(fp)
  8020e4:	e0bef215 	stw	r2,-1080(fp)
   oY=pY;
  8020e8:	e0bef317 	ldw	r2,-1076(fp)
  8020ec:	e0bef115 	stw	r2,-1084(fp)

   pX=pX+X;
  8020f0:	e0fef587 	ldb	r3,-1066(fp)
  8020f4:	e0bef417 	ldw	r2,-1072(fp)
  8020f8:	10c5883a 	add	r2,r2,r3
  8020fc:	e0bef415 	stw	r2,-1072(fp)
   pY=pY+Y;
  802100:	e0fef547 	ldb	r3,-1067(fp)
  802104:	e0bef317 	ldw	r2,-1076(fp)
  802108:	10c5883a 	add	r2,r2,r3
  80210c:	e0bef315 	stw	r2,-1076(fp)

   pX=maxmin(pX,639,0);
  802110:	e13ef417 	ldw	r4,-1072(fp)
  802114:	01409fc4 	movi	r5,639
  802118:	000d883a 	mov	r6,zero
  80211c:	0801f200 	call	801f20 <maxmin>
  802120:	e0bef415 	stw	r2,-1072(fp)
   pY=maxmin(pY,479,0);
  802124:	e13ef317 	ldw	r4,-1076(fp)
  802128:	014077c4 	movi	r5,479
  80212c:	000d883a 	mov	r6,zero
  802130:	0801f200 	call	801f20 <maxmin>
  802134:	e0bef315 	stw	r2,-1076(fp)

   if(timecnt!=0) {tog++;}
  802138:	e0bef717 	ldw	r2,-1060(fp)
  80213c:	1005003a 	cmpeq	r2,r2,zero
  802140:	1000031e 	bne	r2,zero,802150 <play_mouse+0x1dc>
  802144:	e0bef017 	ldw	r2,-1088(fp)
  802148:	10800044 	addi	r2,r2,1
  80214c:	e0bef015 	stw	r2,-1088(fp)

  printf("\n%d, %d", pX, pY);
  802150:	01002074 	movhi	r4,129
  802154:	211f5f04 	addi	r4,r4,32124
  802158:	e17ef417 	ldw	r5,-1072(fp)
  80215c:	e1bef317 	ldw	r6,-1076(fp)
  802160:	08068700 	call	806870 <printf>

//  SEG7_Hex((pX<<16)+pY,0);
  IOWR(SEG7_BASE,0,(pX<<16)+pY);
  802164:	e0bef417 	ldw	r2,-1072(fp)
  802168:	1006943a 	slli	r3,r2,16
  80216c:	e0bef317 	ldw	r2,-1076(fp)
  802170:	1885883a 	add	r2,r3,r2
  802174:	1007883a 	mov	r3,r2
  802178:	00806c34 	movhi	r2,432
  80217c:	10884504 	addi	r2,r2,8468
  802180:	10c00035 	stwio	r3,0(r2)

  IOWR(LED_RED_BASE,0,pX);
  802184:	e0fef417 	ldw	r3,-1072(fp)
  802188:	00806c34 	movhi	r2,432
  80218c:	10881c04 	addi	r2,r2,8304
  802190:	10c00035 	stwio	r3,0(r2)
  IOWR(LED_GREEN_BASE,0,pY);
  802194:	e0fef317 	ldw	r3,-1076(fp)
  802198:	00806c34 	movhi	r2,432
  80219c:	10882004 	addi	r2,r2,8320
  8021a0:	10c00035 	stwio	r3,0(r2)

  Set_Cursor_XY(pX,pY);
  8021a4:	e13ef417 	ldw	r4,-1072(fp)
  8021a8:	e17ef317 	ldw	r5,-1076(fp)
  8021ac:	08064840 	call	806484 <Set_Cursor_XY>
  if(B==1)
  8021b0:	e0bef507 	ldb	r2,-1068(fp)
  8021b4:	10800058 	cmpnei	r2,r2,1
  8021b8:	10000d1e 	bne	r2,zero,8021f0 <play_mouse+0x27c>
  Vga_Set_Pixel(VGA_BASE,pX,pY);
  8021bc:	e0bef317 	ldw	r2,-1076(fp)
  8021c0:	10c0a024 	muli	r3,r2,640
  8021c4:	e0bef417 	ldw	r2,-1072(fp)
  8021c8:	1885883a 	add	r2,r3,r2
  8021cc:	1085883a 	add	r2,r2,r2
  8021d0:	1085883a 	add	r2,r2,r2
  8021d4:	1007883a 	mov	r3,r2
  8021d8:	00806034 	movhi	r2,384
  8021dc:	1885883a 	add	r2,r3,r2
  8021e0:	1007883a 	mov	r3,r2
  8021e4:	00800044 	movi	r2,1
  8021e8:	18800035 	stwio	r2,0(r3)
  8021ec:	00000d06 	br	802224 <play_mouse+0x2b0>
  else if(B==2)
  8021f0:	e0bef507 	ldb	r2,-1068(fp)
  8021f4:	10800098 	cmpnei	r2,r2,2
  8021f8:	10000a1e 	bne	r2,zero,802224 <play_mouse+0x2b0>
  Vga_Clr_Pixel(VGA_BASE,pX,pY);
  8021fc:	e0bef317 	ldw	r2,-1076(fp)
  802200:	10c0a024 	muli	r3,r2,640
  802204:	e0bef417 	ldw	r2,-1072(fp)
  802208:	1885883a 	add	r2,r3,r2
  80220c:	1085883a 	add	r2,r2,r2
  802210:	1085883a 	add	r2,r2,r2
  802214:	1007883a 	mov	r3,r2
  802218:	00806034 	movhi	r2,384
  80221c:	1885883a 	add	r2,r3,r2
  802220:	10000035 	stwio	zero,0(r2)
   
  }
  while((r16(HcRhP2) & 0x01) ==0x01);
  802224:	01000584 	movi	r4,22
  802228:	080468c0 	call	80468c <r16>
  80222c:	1080004c 	andi	r2,r2,1
  802230:	10803fcc 	andi	r2,r2,255
  802234:	1004c03a 	cmpne	r2,r2,zero
  802238:	103f801e 	bne	r2,zero,80203c <play_mouse+0xc8>
     printf("\nMouse Not Detected");
  80223c:	01002074 	movhi	r4,129
  802240:	211f6104 	addi	r4,r4,32132
  802244:	08068700 	call	806870 <printf>
}
  802248:	e037883a 	mov	sp,fp
  80224c:	dfc00117 	ldw	ra,4(sp)
  802250:	df000017 	ldw	fp,0(sp)
  802254:	dec00204 	addi	sp,sp,8
  802258:	f800283a 	ret

0080225c <mouse>:

void mouse(void)
{
  80225c:	deff6304 	addi	sp,sp,-628
  802260:	dfc09c15 	stw	ra,624(sp)
  802264:	df009b15 	stw	fp,620(sp)
  802268:	df009b04 	addi	fp,sp,620
 unsigned int rbuf[128];
 unsigned int dev_req[4]={0x0680,0x0100,0x0000,0x0008};
  80226c:	0081a004 	movi	r2,1664
  802270:	e0bff815 	stw	r2,-32(fp)
  802274:	00804004 	movi	r2,256
  802278:	e0bff915 	stw	r2,-28(fp)
  80227c:	e03ffa15 	stw	zero,-24(fp)
  802280:	00800204 	movi	r2,8
  802284:	e0bffb15 	stw	r2,-20(fp)
 unsigned int uni_req[4]={0x0500,3,0x0000,0x0000};
  802288:	00814004 	movi	r2,1280
  80228c:	e0bffc15 	stw	r2,-16(fp)
  802290:	008000c4 	movi	r2,3
  802294:	e0bffd15 	stw	r2,-12(fp)
  802298:	e03ffe15 	stw	zero,-8(fp)
  80229c:	e03fff15 	stw	zero,-4(fp)
 //buffer information
 unsigned int atllen,ptllen,intllen;
 unsigned int atl_start;

 //atl parameters
 unsigned long atl_skip=0xFFFFFFFE;
  8022a0:	00bfff84 	movi	r2,-2
  8022a4:	e0bf7315 	stw	r2,-564(fp)
 unsigned long atl_done=0;
  8022a8:	e03f7215 	stw	zero,-568(fp)
 unsigned long atl_last=0x00000001;
  8022ac:	00800044 	movi	r2,1
  8022b0:	e0bf7115 	stw	r2,-572(fp)
 unsigned int  atl_blk_size=64;
  8022b4:	00801004 	movi	r2,64
  8022b8:	e0bf7015 	stw	r2,-576(fp)
 unsigned int  atl_cnt=1;
  8022bc:	00800044 	movi	r2,1
  8022c0:	e0bf6f15 	stw	r2,-580(fp)
 unsigned int  atl_timeout=200;
  8022c4:	00803204 	movi	r2,200
  8022c8:	e0bf6e15 	stw	r2,-584(fp)
 unsigned int mycode;
 unsigned int iManufacturer,iProduct;
 unsigned int starty=5;
  8022cc:	00800144 	movi	r2,5
  8022d0:	e0bf6a15 	stw	r2,-600(fp)
 unsigned int status;
 unsigned int mouse01=0,mouse02=0;
  8022d4:	e03f6815 	stw	zero,-608(fp)
  8022d8:	e03f6715 	stw	zero,-612(fp)
 unsigned int g=0;
  8022dc:	e03f6615 	stw	zero,-616(fp)

while(1)
{
  dev_req[0]=0x0680;
  8022e0:	0081a004 	movi	r2,1664
  8022e4:	e0bff815 	stw	r2,-32(fp)
  dev_req[1]=0x0100;
  8022e8:	00804004 	movi	r2,256
  8022ec:	e0bff915 	stw	r2,-28(fp)
  dev_req[2]=0x0000;
  8022f0:	e03ffa15 	stw	zero,-24(fp)
  dev_req[3]=0x0008;
  8022f4:	00800204 	movi	r2,8
  8022f8:	e0bffb15 	stw	r2,-20(fp)
  uni_req[0]=0x0500;
  8022fc:	00814004 	movi	r2,1280
  802300:	e0bffc15 	stw	r2,-16(fp)
  uni_req[1]=3;
  802304:	008000c4 	movi	r2,3
  802308:	e0bffd15 	stw	r2,-12(fp)
  uni_req[2]=0x0000;
  80230c:	e03ffe15 	stw	zero,-8(fp)
  uni_req[3]=0x0000;
  802310:	e03fff15 	stw	zero,-4(fp)


 //atl parameters
  atl_skip=0xFFFFFFFE;
  802314:	00bfff84 	movi	r2,-2
  802318:	e0bf7315 	stw	r2,-564(fp)
  atl_done=0;
  80231c:	e03f7215 	stw	zero,-568(fp)
  atl_last=0x00000001;
  802320:	00800044 	movi	r2,1
  802324:	e0bf7115 	stw	r2,-572(fp)
  atl_blk_size=64;
  802328:	00801004 	movi	r2,64
  80232c:	e0bf7015 	stw	r2,-576(fp)
  atl_cnt=1;
  802330:	00800044 	movi	r2,1
  802334:	e0bf6f15 	stw	r2,-580(fp)
  atl_timeout=200;
  802338:	00803204 	movi	r2,200
  80233c:	e0bf6e15 	stw	r2,-584(fp)
  starty=5;
  802340:	00800144 	movi	r2,5
  802344:	e0bf6a15 	stw	r2,-600(fp)
  mouse01=0,mouse02=0;
  802348:	e03f6815 	stw	zero,-608(fp)
  80234c:	e03f6715 	stw	zero,-612(fp)
 

 set_operational();
  802350:	08026c40 	call	8026c4 <set_operational>
 enable_port();
  802354:	08025840 	call	802584 <enable_port>

 reset_usb();
  802358:	08026780 	call	802678 <reset_usb>
 erase_all();
  80235c:	08006880 	call	800688 <erase_all>
 set_operational();
  802360:	08026c40 	call	8026c4 <set_operational>
 enable_port();
  802364:	08025840 	call	802584 <enable_port>

 
 w16(HcControl,0x6c0);
  802368:	01000044 	movi	r4,1
  80236c:	0141b004 	movi	r5,1728
  802370:	08046e00 	call	8046e0 <w16>
 w16(HcUpInt,0x1a9);
  802374:	01000904 	movi	r4,36
  802378:	01406a44 	movi	r5,425
  80237c:	08046e00 	call	8046e0 <w16>
 //delay(300);

 w16(HcBufStatus,0x00);
  802380:	01000b04 	movi	r4,44
  802384:	000b883a 	mov	r5,zero
  802388:	08046e00 	call	8046e0 <w16>

 //Setup ATL Parameters
 w32(HcATLSkip,atl_skip);
  80238c:	01000704 	movi	r4,28
  802390:	e17f7317 	ldw	r5,-564(fp)
  802394:	08046000 	call	804600 <w32>
 w32(HcATLLast,atl_last);
  802398:	01000744 	movi	r4,29
  80239c:	e17f7117 	ldw	r5,-572(fp)
  8023a0:	08046000 	call	804600 <w32>
 w16(HcATLBlkSize,atl_blk_size);
  8023a4:	01001504 	movi	r4,84
  8023a8:	e17f7017 	ldw	r5,-576(fp)
  8023ac:	08046e00 	call	8046e0 <w16>
 w16(HcATLThrsCnt,atl_cnt);
  8023b0:	01001444 	movi	r4,81
  8023b4:	e17f6f17 	ldw	r5,-580(fp)
  8023b8:	08046e00 	call	8046e0 <w16>
 w16(HcATLTimeOut,atl_timeout);
  8023bc:	01001484 	movi	r4,82
  8023c0:	e17f6e17 	ldw	r5,-584(fp)
  8023c4:	08046e00 	call	8046e0 <w16>

 //Setup ATL Buffer
 atllen  =r16(HcATLLen);
  8023c8:	01000d04 	movi	r4,52
  8023cc:	080468c0 	call	80468c <r16>
  8023d0:	e0bf7715 	stw	r2,-548(fp)
 ptllen  =r16(HcPTLLen);
  8023d4:	01000c04 	movi	r4,48
  8023d8:	080468c0 	call	80468c <r16>
  8023dc:	e0bf7615 	stw	r2,-552(fp)
 intllen =r16(HcINTLen);
  8023e0:	01000cc4 	movi	r4,51
  8023e4:	080468c0 	call	80468c <r16>
  8023e8:	e0bf7515 	stw	r2,-556(fp)

 atl_start=ptllen+ptllen+intllen;
  8023ec:	e0ff7617 	ldw	r3,-552(fp)
  8023f0:	e0bf7617 	ldw	r2,-552(fp)
  8023f4:	1887883a 	add	r3,r3,r2
  8023f8:	e0bf7517 	ldw	r2,-556(fp)
  8023fc:	1885883a 	add	r2,r3,r2
  802400:	e0bf7415 	stw	r2,-560(fp)

 status=assign_address(1,2,0);
  802404:	01000044 	movi	r4,1
  802408:	01400084 	movi	r5,2
  80240c:	000d883a 	mov	r6,zero
  802410:	0802a900 	call	802a90 <assign_address>
  802414:	e0bf6915 	stw	r2,-604(fp)
 status=assign_address(1,2,0);
  802418:	01000044 	movi	r4,1
  80241c:	01400084 	movi	r5,2
  802420:	000d883a 	mov	r6,zero
  802424:	0802a900 	call	802a90 <assign_address>
  802428:	e0bf6915 	stw	r2,-604(fp)

 if(g==0)
  80242c:	e0bf6617 	ldw	r2,-616(fp)
  802430:	1004c03a 	cmpne	r2,r2,zero
  802434:	1000051e 	bne	r2,zero,80244c <mouse+0x1f0>
 {
  printf("ISP1362 Mouse Demo.....\n");
  802438:	01002074 	movhi	r4,129
  80243c:	211f6604 	addi	r4,r4,32152
  802440:	08069880 	call	806988 <puts>
  g=1;
  802444:	00800044 	movi	r2,1
  802448:	e0bf6615 	stw	r2,-616(fp)
 }

 w16(HcUpIntEnable,0x120);
  80244c:	01000944 	movi	r4,37
  802450:	01404804 	movi	r5,288
  802454:	08046e00 	call	8046e0 <w16>

 if( (status&0x0001)!=0) //port 2 active
  802458:	e0bf6917 	ldw	r2,-604(fp)
  80245c:	1080004c 	andi	r2,r2,1
  802460:	10803fcc 	andi	r2,r2,255
  802464:	1005003a 	cmpeq	r2,r2,zero
  802468:	1000331e 	bne	r2,zero,802538 <mouse+0x2dc>
 {
//  Check port 2 for mouse
  mycode=get_control(rbuf,2,'D',0,2);
  80246c:	e13f7804 	addi	r4,fp,-544
  802470:	00800084 	movi	r2,2
  802474:	d8800015 	stw	r2,0(sp)
  802478:	01400084 	movi	r5,2
  80247c:	01801104 	movi	r6,68
  802480:	000f883a 	mov	r7,zero
  802484:	08059180 	call	805918 <get_control>
  802488:	e0bf6d15 	stw	r2,-588(fp)
  if(mycode==0x0300)
  80248c:	e0bf6d17 	ldw	r2,-588(fp)
  802490:	1080c018 	cmpnei	r2,r2,768
  802494:	1000281e 	bne	r2,zero,802538 <mouse+0x2dc>
  {
   iManufacturer = rbuf[7]&0xFF;
  802498:	e0bf7f17 	ldw	r2,-516(fp)
  80249c:	10803fcc 	andi	r2,r2,255
  8024a0:	e0bf6c15 	stw	r2,-592(fp)
   iProduct = (rbuf[7]&0xFF00)>>8;
  8024a4:	e0bf7f17 	ldw	r2,-516(fp)
  8024a8:	10bfc00c 	andi	r2,r2,65280
  8024ac:	1004d23a 	srli	r2,r2,8
  8024b0:	e0bf6b15 	stw	r2,-596(fp)
   addr_info(2,'W','O',iManufacturer);
  8024b4:	e1ff6c17 	ldw	r7,-592(fp)
  8024b8:	01000084 	movi	r4,2
  8024bc:	014015c4 	movi	r5,87
  8024c0:	018013c4 	movi	r6,79
  8024c4:	0802e300 	call	802e30 <addr_info>
   addr_info(2,'W','P',iProduct);
  8024c8:	e1ff6b17 	ldw	r7,-596(fp)
  8024cc:	01000084 	movi	r4,2
  8024d0:	014015c4 	movi	r5,87
  8024d4:	01801404 	movi	r6,80
  8024d8:	0802e300 	call	802e30 <addr_info>
   mycode=get_control(rbuf,2,'H',addr_info(2,'R','P',0),2);
  8024dc:	01000084 	movi	r4,2
  8024e0:	01401484 	movi	r5,82
  8024e4:	01801404 	movi	r6,80
  8024e8:	000f883a 	mov	r7,zero
  8024ec:	0802e300 	call	802e30 <addr_info>
  8024f0:	100f883a 	mov	r7,r2
  8024f4:	e13f7804 	addi	r4,fp,-544
  8024f8:	00800084 	movi	r2,2
  8024fc:	d8800015 	stw	r2,0(sp)
  802500:	01400084 	movi	r5,2
  802504:	01801204 	movi	r6,72
  802508:	08059180 	call	805918 <get_control>
  80250c:	e0bf6d15 	stw	r2,-588(fp)
   if( *(rbuf+1)==0x0209  )
  802510:	e0bf7804 	addi	r2,fp,-544
  802514:	10800104 	addi	r2,r2,4
  802518:	10800017 	ldw	r2,0(r2)
  80251c:	10808258 	cmpnei	r2,r2,521
  802520:	1000051e 	bne	r2,zero,802538 <mouse+0x2dc>
   {
	   printf("\nMouse Detected");
  802524:	01002074 	movhi	r4,129
  802528:	211f6c04 	addi	r4,r4,32176
  80252c:	08068700 	call	806870 <printf>
	   mouse02=1;
  802530:	00800044 	movi	r2,1
  802534:	e0bf6715 	stw	r2,-612(fp)
   }
  }
 }

 if((mouse02==1)&&(mouse01==0))
  802538:	e0bf6717 	ldw	r2,-612(fp)
  80253c:	10800058 	cmpnei	r2,r2,1
  802540:	10000c1e 	bne	r2,zero,802574 <mouse+0x318>
  802544:	e0bf6817 	ldw	r2,-608(fp)
  802548:	1004c03a 	cmpne	r2,r2,zero
  80254c:	1000091e 	bne	r2,zero,802574 <mouse+0x318>
 {
  mycode=set_config(2,1);
  802550:	01000084 	movi	r4,2
  802554:	01400044 	movi	r5,1
  802558:	0804f6c0 	call	804f6c <set_config>
  80255c:	e0bf6d15 	stw	r2,-588(fp)
  if(mycode==0)
  802560:	e0bf6d17 	ldw	r2,-588(fp)
  802564:	1004c03a 	cmpne	r2,r2,zero
  802568:	1000021e 	bne	r2,zero,802574 <mouse+0x318>
  play_mouse(2);
  80256c:	01000084 	movi	r4,2
  802570:	0801f740 	call	801f74 <play_mouse>
 }
 usleep(100000);
  802574:	010000b4 	movhi	r4,2
  802578:	2121a804 	addi	r4,r4,-31072
  80257c:	08109700 	call	810970 <usleep>
}
  802580:	003f5706 	br	8022e0 <mouse+0x84>

00802584 <enable_port>:
#include <unistd.h>



void enable_port(void)
{
  802584:	defffd04 	addi	sp,sp,-12
  802588:	dfc00215 	stw	ra,8(sp)
  80258c:	df000115 	stw	fp,4(sp)
  802590:	df000104 	addi	fp,sp,4
 unsigned long dat32;

 w32(HcRhP1,0x00000102);
  802594:	01000544 	movi	r4,21
  802598:	01404084 	movi	r5,258
  80259c:	08046000 	call	804600 <w32>
 w32(HcRhP2,0x00000102);
  8025a0:	01000584 	movi	r4,22
  8025a4:	01404084 	movi	r5,258
  8025a8:	08046000 	call	804600 <w32>
 w32(HcRhStatus,0x00010000);	//set Global Power
  8025ac:	01000504 	movi	r4,20
  8025b0:	01400074 	movhi	r5,1
  8025b4:	08046000 	call	804600 <w32>

 w32(HcRhA,0x20000102);
  8025b8:	01000484 	movi	r4,18
  8025bc:	01480034 	movhi	r5,8192
  8025c0:	29404084 	addi	r5,r5,258
  8025c4:	08046000 	call	804600 <w32>
 w32(HcRhB,0x00000000);
  8025c8:	010004c4 	movi	r4,19
  8025cc:	000b883a 	mov	r5,zero
  8025d0:	08046000 	call	804600 <w32>

 dat32=r32(HcRhP2);
  8025d4:	01000584 	movi	r4,22
  8025d8:	08045780 	call	804578 <r32>
  8025dc:	e0bfff15 	stw	r2,-4(fp)
 if((dat32&0x00000001)==1)
  8025e0:	e0bfff17 	ldw	r2,-4(fp)
  8025e4:	1080004c 	andi	r2,r2,1
  8025e8:	10803fcc 	andi	r2,r2,255
  8025ec:	1005003a 	cmpeq	r2,r2,zero
  8025f0:	10000a1e 	bne	r2,zero,80261c <enable_port+0x98>
 {
  set_port_speed(2,0);
  8025f4:	01000084 	movi	r4,2
  8025f8:	000b883a 	mov	r5,zero
  8025fc:	08030cc0 	call	8030cc <set_port_speed>
  if(((dat32)&(0x00000200))!=0)
  802600:	e0bfff17 	ldw	r2,-4(fp)
  802604:	1080800c 	andi	r2,r2,512
  802608:	1005003a 	cmpeq	r2,r2,zero
  80260c:	1000031e 	bne	r2,zero,80261c <enable_port+0x98>
  {
   set_port_speed(2,1);
  802610:	01000084 	movi	r4,2
  802614:	01400044 	movi	r5,1
  802618:	08030cc0 	call	8030cc <set_port_speed>
  }
 }

 dat32=r32(HcRhP1);
  80261c:	01000544 	movi	r4,21
  802620:	08045780 	call	804578 <r32>
  802624:	e0bfff15 	stw	r2,-4(fp)
 if((dat32&0x00000001)==1)
  802628:	e0bfff17 	ldw	r2,-4(fp)
  80262c:	1080004c 	andi	r2,r2,1
  802630:	10803fcc 	andi	r2,r2,255
  802634:	1005003a 	cmpeq	r2,r2,zero
  802638:	10000a1e 	bne	r2,zero,802664 <enable_port+0xe0>
 {
  set_port_speed(1,0);
  80263c:	01000044 	movi	r4,1
  802640:	000b883a 	mov	r5,zero
  802644:	08030cc0 	call	8030cc <set_port_speed>
  if(((dat32)&(0x00000200))!=0)
  802648:	e0bfff17 	ldw	r2,-4(fp)
  80264c:	1080800c 	andi	r2,r2,512
  802650:	1005003a 	cmpeq	r2,r2,zero
  802654:	1000031e 	bne	r2,zero,802664 <enable_port+0xe0>
  {
   set_port_speed(1,1);
  802658:	01000044 	movi	r4,1
  80265c:	01400044 	movi	r5,1
  802660:	08030cc0 	call	8030cc <set_port_speed>
  }
 }
}
  802664:	e037883a 	mov	sp,fp
  802668:	dfc00117 	ldw	ra,4(sp)
  80266c:	df000017 	ldw	fp,0(sp)
  802670:	dec00204 	addi	sp,sp,8
  802674:	f800283a 	ret

00802678 <reset_usb>:

void reset_usb(void)
{
  802678:	defffe04 	addi	sp,sp,-8
  80267c:	dfc00115 	stw	ra,4(sp)
  802680:	df000015 	stw	fp,0(sp)
  802684:	d839883a 	mov	fp,sp
//if (g_is_PCI == TRUE)		
 w16(HcHWCfg		, 0x302d	);	// set INT1 to Active LOW, Level Triggered
  802688:	01000804 	movi	r4,32
  80268c:	014c0b44 	movi	r5,12333
  802690:	08046e00 	call	8046e0 <w16>
//else						w16(HcHWCfg		, 0x342D	);
 w32(HcFmItv  		, 0x25002EDF);
  802694:	01000344 	movi	r4,13
  802698:	01494034 	movhi	r5,9472
  80269c:	294bb7c4 	addi	r5,r5,11999
  8026a0:	08046000 	call	804600 <w32>
 w32(HcControl		, 0x00000600);
  8026a4:	01000044 	movi	r4,1
  8026a8:	01418004 	movi	r5,1536
  8026ac:	08046000 	call	804600 <w32>
}
  8026b0:	e037883a 	mov	sp,fp
  8026b4:	dfc00117 	ldw	ra,4(sp)
  8026b8:	df000017 	ldw	fp,0(sp)
  8026bc:	dec00204 	addi	sp,sp,8
  8026c0:	f800283a 	ret

008026c4 <set_operational>:

void set_operational(void)
{
  8026c4:	defffe04 	addi	sp,sp,-8
  8026c8:	dfc00115 	stw	ra,4(sp)
  8026cc:	df000015 	stw	fp,0(sp)
  8026d0:	d839883a 	mov	fp,sp
//if (g_is_PCI == TRUE)	
 w16(HcHWCfg		, 0x302d	);	// set INT1 to Active LOW, Level Triggered
  8026d4:	01000804 	movi	r4,32
  8026d8:	014c0b44 	movi	r5,12333
  8026dc:	08046e00 	call	8046e0 <w16>
//else 	w16(HcHWCfg		, 0x342D	);
 w32(HcFmItv  		, 0x25002EDF);
  8026e0:	01000344 	movi	r4,13
  8026e4:	01494034 	movhi	r5,9472
  8026e8:	294bb7c4 	addi	r5,r5,11999
  8026ec:	08046000 	call	804600 <w32>
 w32(HcControl		, 0x00000680);
  8026f0:	01000044 	movi	r4,1
  8026f4:	0141a004 	movi	r5,1664
  8026f8:	08046000 	call	804600 <w32>
}
  8026fc:	e037883a 	mov	sp,fp
  802700:	dfc00117 	ldw	ra,4(sp)
  802704:	df000017 	ldw	fp,0(sp)
  802708:	dec00204 	addi	sp,sp,8
  80270c:	f800283a 	ret

00802710 <port_monitor>:


void port_monitor(void)
{
  802710:	defff804 	addi	sp,sp,-32
  802714:	dfc00715 	stw	ra,28(sp)
  802718:	df000615 	stw	fp,24(sp)
  80271c:	df000604 	addi	fp,sp,24
 unsigned long control,irq_status,status1,status2;
 unsigned int start_y=10;
  802720:	00800284 	movi	r2,10
  802724:	e0bffb15 	stw	r2,-20(fp)
 unsigned int user_in;

// clrscr();

 set_operational();
  802728:	08026c40 	call	8026c4 <set_operational>

 w32(HcRhP1,0x00000102);
  80272c:	01000544 	movi	r4,21
  802730:	01404084 	movi	r5,258
  802734:	08046000 	call	804600 <w32>
 w32(HcRhP2,0x00000102);
  802738:	01000584 	movi	r4,22
  80273c:	01404084 	movi	r5,258
  802740:	08046000 	call	804600 <w32>
 w32(HcRhA,0x20000002);
  802744:	01000484 	movi	r4,18
  802748:	01480034 	movhi	r5,8192
  80274c:	29400084 	addi	r5,r5,2
  802750:	08046000 	call	804600 <w32>
 w32(HcRhB,0x00000000);
  802754:	010004c4 	movi	r4,19
  802758:	000b883a 	mov	r5,zero
  80275c:	08046000 	call	804600 <w32>
 w32(HcRhStatus,0x00010000);	//set Global Power
  802760:	01000504 	movi	r4,20
  802764:	01400074 	movhi	r5,1
  802768:	08046000 	call	804600 <w32>

 do
 {
  control   =r32(HcControl);
  80276c:	01000044 	movi	r4,1
  802770:	08045780 	call	804578 <r32>
  802774:	e0bfff15 	stw	r2,-4(fp)
  irq_status=r32(HcIntStatus);
  802778:	010000c4 	movi	r4,3
  80277c:	08045780 	call	804578 <r32>
  802780:	e0bffe15 	stw	r2,-8(fp)
  status1   =r32(HcRhP1);
  802784:	01000544 	movi	r4,21
  802788:	08045780 	call	804578 <r32>
  80278c:	e0bffd15 	stw	r2,-12(fp)
  status2   =r32(HcRhP2);
  802790:	01000584 	movi	r4,22
  802794:	08045780 	call	804578 <r32>
  802798:	e0bffc15 	stw	r2,-16(fp)

  if((status1&0x00000001)==1)
  80279c:	e0bffd17 	ldw	r2,-12(fp)
  8027a0:	1080004c 	andi	r2,r2,1
  8027a4:	10803fcc 	andi	r2,r2,255
  8027a8:	1005003a 	cmpeq	r2,r2,zero
  8027ac:	1000151e 	bne	r2,zero,802804 <port_monitor+0xf4>
  {
//   gotoxy(20,start_y+6);
   w32(HcRhP1,0x00000102);
  8027b0:	01000544 	movi	r4,21
  8027b4:	01404084 	movi	r5,258
  8027b8:	08046000 	call	804600 <w32>
   if((status1&0x00000200)!=0)
  8027bc:	e0bffd17 	ldw	r2,-12(fp)
  8027c0:	1080800c 	andi	r2,r2,512
  8027c4:	1005003a 	cmpeq	r2,r2,zero
  8027c8:	1000071e 	bne	r2,zero,8027e8 <port_monitor+0xd8>
   {
	printf("LS Device connected to Port 1");
  8027cc:	01002074 	movhi	r4,129
  8027d0:	211f7004 	addi	r4,r4,32192
  8027d4:	08068700 	call	806870 <printf>
	set_port_speed(1,1);
  8027d8:	01000044 	movi	r4,1
  8027dc:	01400044 	movi	r5,1
  8027e0:	08030cc0 	call	8030cc <set_port_speed>
  8027e4:	00000a06 	br	802810 <port_monitor+0x100>
   }
   else
   {
	printf("FS Device connected to Port 1");
  8027e8:	01002074 	movhi	r4,129
  8027ec:	211f7804 	addi	r4,r4,32224
  8027f0:	08068700 	call	806870 <printf>
	set_port_speed(1,0);
  8027f4:	01000044 	movi	r4,1
  8027f8:	000b883a 	mov	r5,zero
  8027fc:	08030cc0 	call	8030cc <set_port_speed>
  802800:	00000306 	br	802810 <port_monitor+0x100>
  }

  else
  {
//   gotoxy(20,start_y+6);
   printf("                                      ");
  802804:	01002074 	movhi	r4,129
  802808:	211f8004 	addi	r4,r4,32256
  80280c:	08068700 	call	806870 <printf>
  }

  if((status2&0x00000001)==1)
  802810:	e0bffc17 	ldw	r2,-16(fp)
  802814:	1080004c 	andi	r2,r2,1
  802818:	10803fcc 	andi	r2,r2,255
  80281c:	1005003a 	cmpeq	r2,r2,zero
  802820:	1000151e 	bne	r2,zero,802878 <port_monitor+0x168>
  {
//   gotoxy(20,start_y+7);
   w32(HcRhP2,0x00000102);
  802824:	01000584 	movi	r4,22
  802828:	01404084 	movi	r5,258
  80282c:	08046000 	call	804600 <w32>
   if((status2&0x00000200)!=0)
  802830:	e0bffc17 	ldw	r2,-16(fp)
  802834:	1080800c 	andi	r2,r2,512
  802838:	1005003a 	cmpeq	r2,r2,zero
  80283c:	1000071e 	bne	r2,zero,80285c <port_monitor+0x14c>
   {
	printf("LS Device connected to Port 2");
  802840:	01002074 	movhi	r4,129
  802844:	211f8a04 	addi	r4,r4,32296
  802848:	08068700 	call	806870 <printf>
	set_port_speed(2,1);
  80284c:	01000084 	movi	r4,2
  802850:	01400044 	movi	r5,1
  802854:	08030cc0 	call	8030cc <set_port_speed>
  802858:	00000a06 	br	802884 <port_monitor+0x174>
   }
   else
   {
	printf("FS Device connected to Port 2");
  80285c:	01002074 	movhi	r4,129
  802860:	211f9204 	addi	r4,r4,32328
  802864:	08068700 	call	806870 <printf>
	set_port_speed(2,0);
  802868:	01000084 	movi	r4,2
  80286c:	000b883a 	mov	r5,zero
  802870:	08030cc0 	call	8030cc <set_port_speed>
  802874:	00000306 	br	802884 <port_monitor+0x174>
  }

  else
  {
//   gotoxy(20,start_y+7);
   printf("                                      ");
  802878:	01002074 	movhi	r4,129
  80287c:	211f8004 	addi	r4,r4,32256
  802880:	08068700 	call	806870 <printf>
  }

//  gotoxy(20,start_y);
  printf("Port Status Monitor");
  802884:	01002074 	movhi	r4,129
  802888:	211f9a04 	addi	r4,r4,32360
  80288c:	08068700 	call	806870 <printf>
 // gotoxy(20,start_y-1);
  printf("OTGStatus  Register = %8X.\n",r16(0x67));
  802890:	010019c4 	movi	r4,103
  802894:	080468c0 	call	80468c <r16>
  802898:	100b883a 	mov	r5,r2
  80289c:	01002074 	movhi	r4,129
  8028a0:	211f9f04 	addi	r4,r4,32380
  8028a4:	08068700 	call	806870 <printf>
 // gotoxy(20,start_y+1);
  printf("OTGControl Register = %8X.\n",r16(0x62));
  8028a8:	01001884 	movi	r4,98
  8028ac:	080468c0 	call	80468c <r16>
  8028b0:	100b883a 	mov	r5,r2
  8028b4:	01002074 	movhi	r4,129
  8028b8:	211fa604 	addi	r4,r4,32408
  8028bc:	08068700 	call	806870 <printf>
//  gotoxy(20,start_y+2);
  printf("Control    Register = %8lX.\n",control);
  8028c0:	01002074 	movhi	r4,129
  8028c4:	211fad04 	addi	r4,r4,32436
  8028c8:	e17fff17 	ldw	r5,-4(fp)
  8028cc:	08068700 	call	806870 <printf>
//  gotoxy(20,start_y+3);
  printf("Int Status Register = %8lX.\n",irq_status);
  8028d0:	01002074 	movhi	r4,129
  8028d4:	211fb504 	addi	r4,r4,32468
  8028d8:	e17ffe17 	ldw	r5,-8(fp)
  8028dc:	08068700 	call	806870 <printf>
//  gotoxy(20,start_y+4);
  printf("P1  Status Register = %8lX.\n",status1);
  8028e0:	01002074 	movhi	r4,129
  8028e4:	211fbd04 	addi	r4,r4,32500
  8028e8:	e17ffd17 	ldw	r5,-12(fp)
  8028ec:	08068700 	call	806870 <printf>
//  gotoxy(20,start_y+5);
  printf("P2  Status Register = %8lX.\n",status2);
  8028f0:	01002074 	movhi	r4,129
  8028f4:	211fc504 	addi	r4,r4,32532
  8028f8:	e17ffc17 	ldw	r5,-16(fp)
  8028fc:	08068700 	call	806870 <printf>
//  gotoxy(20,start_y+8);
  printf("Press '1' to go back to main menu\n");
  802900:	01002074 	movhi	r4,129
  802904:	211fcd04 	addi	r4,r4,32564
  802908:	08069880 	call	806988 <puts>

  user_in='1';//read_key(0);
  80290c:	00800c44 	movi	r2,49
  802910:	e0bffa15 	stw	r2,-24(fp)
 }
 while(user_in!='1');
  802914:	e0bffa17 	ldw	r2,-24(fp)
  802918:	10800c58 	cmpnei	r2,r2,49
  80291c:	103f931e 	bne	r2,zero,80276c <port_monitor+0x5c>
}
  802920:	e037883a 	mov	sp,fp
  802924:	dfc00117 	ldw	ra,4(sp)
  802928:	df000017 	ldw	fp,0(sp)
  80292c:	dec00204 	addi	sp,sp,8
  802930:	f800283a 	ret

00802934 <check_ports>:

void check_ports(void)
{
  802934:	defffa04 	addi	sp,sp,-24
  802938:	dfc00515 	stw	ra,20(sp)
  80293c:	df000415 	stw	fp,16(sp)
  802940:	df000404 	addi	fp,sp,16
 unsigned long control,irq_status,status1,status2;

 control   =r32(HcControl);
  802944:	01000044 	movi	r4,1
  802948:	08045780 	call	804578 <r32>
  80294c:	e0bfff15 	stw	r2,-4(fp)
 irq_status=r32(HcIntStatus);
  802950:	010000c4 	movi	r4,3
  802954:	08045780 	call	804578 <r32>
  802958:	e0bffe15 	stw	r2,-8(fp)
 status1   =r32(HcRhP1);
  80295c:	01000544 	movi	r4,21
  802960:	08045780 	call	804578 <r32>
  802964:	e0bffd15 	stw	r2,-12(fp)
 status2   =r32(HcRhP2);
  802968:	01000584 	movi	r4,22
  80296c:	08045780 	call	804578 <r32>
  802970:	e0bffc15 	stw	r2,-16(fp)

  if((status1&0x00000001)==1)
  802974:	e0bffd17 	ldw	r2,-12(fp)
  802978:	1080004c 	andi	r2,r2,1
  80297c:	10803fcc 	andi	r2,r2,255
  802980:	1005003a 	cmpeq	r2,r2,zero
  802984:	1000141e 	bne	r2,zero,8029d8 <check_ports+0xa4>
  {
   w32(HcRhP1,0x00000102);
  802988:	01000544 	movi	r4,21
  80298c:	01404084 	movi	r5,258
  802990:	08046000 	call	804600 <w32>
   if((status1&0x00000200)!=0)
  802994:	e0bffd17 	ldw	r2,-12(fp)
  802998:	1080800c 	andi	r2,r2,512
  80299c:	1005003a 	cmpeq	r2,r2,zero
  8029a0:	1000071e 	bne	r2,zero,8029c0 <check_ports+0x8c>
   {
	printf("\nLS Device connected to Port 1     ");
  8029a4:	01002074 	movhi	r4,129
  8029a8:	211fd604 	addi	r4,r4,32600
  8029ac:	08068700 	call	806870 <printf>
	set_port_speed(1,1);
  8029b0:	01000044 	movi	r4,1
  8029b4:	01400044 	movi	r5,1
  8029b8:	08030cc0 	call	8030cc <set_port_speed>
  8029bc:	00000606 	br	8029d8 <check_ports+0xa4>
   }
   else
   {
	printf("\nFS Device connected to Port 1     ");
  8029c0:	01002074 	movhi	r4,129
  8029c4:	211fdf04 	addi	r4,r4,32636
  8029c8:	08068700 	call	806870 <printf>
 	set_port_speed(1,0);
  8029cc:	01000044 	movi	r4,1
  8029d0:	000b883a 	mov	r5,zero
  8029d4:	08030cc0 	call	8030cc <set_port_speed>
   }
  }

  if((status2&0x00000001)==1)
  8029d8:	e0bffc17 	ldw	r2,-16(fp)
  8029dc:	1080004c 	andi	r2,r2,1
  8029e0:	10803fcc 	andi	r2,r2,255
  8029e4:	1005003a 	cmpeq	r2,r2,zero
  8029e8:	1000141e 	bne	r2,zero,802a3c <check_ports+0x108>
  {
   w32(HcRhP2,0x00000102);
  8029ec:	01000584 	movi	r4,22
  8029f0:	01404084 	movi	r5,258
  8029f4:	08046000 	call	804600 <w32>
   if((status2&0x00000200)!=0)
  8029f8:	e0bffc17 	ldw	r2,-16(fp)
  8029fc:	1080800c 	andi	r2,r2,512
  802a00:	1005003a 	cmpeq	r2,r2,zero
  802a04:	1000071e 	bne	r2,zero,802a24 <check_ports+0xf0>
   {
	printf("\nLS Device connected to Port 2     ");
  802a08:	01002074 	movhi	r4,129
  802a0c:	211fe804 	addi	r4,r4,32672
  802a10:	08068700 	call	806870 <printf>
	set_port_speed(2,1);
  802a14:	01000084 	movi	r4,2
  802a18:	01400044 	movi	r5,1
  802a1c:	08030cc0 	call	8030cc <set_port_speed>
  802a20:	00000606 	br	802a3c <check_ports+0x108>
   }
   else
   {
	printf("\nFS Device connected to Port 2     ");
  802a24:	01002074 	movhi	r4,129
  802a28:	211ff104 	addi	r4,r4,32708
  802a2c:	08068700 	call	806870 <printf>
	set_port_speed(2,0);
  802a30:	01000084 	movi	r4,2
  802a34:	000b883a 	mov	r5,zero
  802a38:	08030cc0 	call	8030cc <set_port_speed>
   }
  }

 printf("\nControl    Register = %8lX.",control);
  802a3c:	01002074 	movhi	r4,129
  802a40:	211ffa04 	addi	r4,r4,32744
  802a44:	e17fff17 	ldw	r5,-4(fp)
  802a48:	08068700 	call	806870 <printf>
 printf("\nInt Status Register = %8lX.",irq_status);
  802a4c:	010020b4 	movhi	r4,130
  802a50:	21200204 	addi	r4,r4,-32760
  802a54:	e17ffe17 	ldw	r5,-8(fp)
  802a58:	08068700 	call	806870 <printf>
 printf("\nP1  Status Register = %8lX.",status1);
  802a5c:	010020b4 	movhi	r4,130
  802a60:	21200a04 	addi	r4,r4,-32728
  802a64:	e17ffd17 	ldw	r5,-12(fp)
  802a68:	08068700 	call	806870 <printf>
 printf("\nP2  Status Register = %8lX.",status2);
  802a6c:	010020b4 	movhi	r4,130
  802a70:	21201204 	addi	r4,r4,-32696
  802a74:	e17ffc17 	ldw	r5,-16(fp)
  802a78:	08068700 	call	806870 <printf>
}
  802a7c:	e037883a 	mov	sp,fp
  802a80:	dfc00117 	ldw	ra,4(sp)
  802a84:	df000017 	ldw	fp,0(sp)
  802a88:	dec00204 	addi	sp,sp,8
  802a8c:	f800283a 	ret

00802a90 <assign_address>:

unsigned int assign_address(unsigned int addr1, unsigned int addr2, int mode)
{
  802a90:	defff704 	addi	sp,sp,-36
  802a94:	dfc00815 	stw	ra,32(sp)
  802a98:	df000715 	stw	fp,28(sp)
  802a9c:	df000704 	addi	fp,sp,28
  802aa0:	e13ffd15 	stw	r4,-12(fp)
  802aa4:	e17ffe15 	stw	r5,-8(fp)
  802aa8:	e1bfff15 	stw	r6,-4(fp)
 unsigned long rhp1,rhp2;
 unsigned int status;
 unsigned int ccode=0;
  802aac:	e03ff915 	stw	zero,-28(fp)

 rhp1=r32(HcRhP1);
  802ab0:	01000544 	movi	r4,21
  802ab4:	08045780 	call	804578 <r32>
  802ab8:	e0bffc15 	stw	r2,-16(fp)
 rhp2=r32(HcRhP2);
  802abc:	01000584 	movi	r4,22
  802ac0:	08045780 	call	804578 <r32>
  802ac4:	e0bffb15 	stw	r2,-20(fp)

 enable_port();
  802ac8:	08025840 	call	802584 <enable_port>

// gotoxy(1,5);

 if(mode==1)
  802acc:	e0bfff17 	ldw	r2,-4(fp)
  802ad0:	10800058 	cmpnei	r2,r2,1
  802ad4:	1000111e 	bne	r2,zero,802b1c <assign_address+0x8c>
 {
  printf("\nRhP1 = %8lX  RhP2 = %8lX",rhp1,rhp2);
  802ad8:	010020b4 	movhi	r4,130
  802adc:	21201a04 	addi	r4,r4,-32664
  802ae0:	e17ffc17 	ldw	r5,-16(fp)
  802ae4:	e1bffb17 	ldw	r6,-20(fp)
  802ae8:	08068700 	call	806870 <printf>
  printf("\nPort1Speed = %2d",get_port_speed(1));
  802aec:	01000044 	movi	r4,1
  802af0:	080306c0 	call	80306c <get_port_speed>
  802af4:	100b883a 	mov	r5,r2
  802af8:	010020b4 	movhi	r4,130
  802afc:	21202104 	addi	r4,r4,-32636
  802b00:	08068700 	call	806870 <printf>
  printf("\nPort2Speed = %2d",get_port_speed(2));
  802b04:	01000084 	movi	r4,2
  802b08:	080306c0 	call	80306c <get_port_speed>
  802b0c:	100b883a 	mov	r5,r2
  802b10:	010020b4 	movhi	r4,130
  802b14:	21202604 	addi	r4,r4,-32616
  802b18:	08068700 	call	806870 <printf>
 }

 if(  ((rhp1&0x01)==1)  &&  ((rhp2&0x01)==1)  )
  802b1c:	e0bffc17 	ldw	r2,-16(fp)
  802b20:	1080004c 	andi	r2,r2,1
  802b24:	1080005c 	xori	r2,r2,1
  802b28:	10803fcc 	andi	r2,r2,255
  802b2c:	1004c03a 	cmpne	r2,r2,zero
  802b30:	1000261e 	bne	r2,zero,802bcc <assign_address+0x13c>
  802b34:	e0bffb17 	ldw	r2,-20(fp)
  802b38:	1080004c 	andi	r2,r2,1
  802b3c:	1080005c 	xori	r2,r2,1
  802b40:	10803fcc 	andi	r2,r2,255
  802b44:	1004c03a 	cmpne	r2,r2,zero
  802b48:	1000201e 	bne	r2,zero,802bcc <assign_address+0x13c>
 {
  if(mode==1)printf("\nBoth ports has USB device connected.");
  802b4c:	e0bfff17 	ldw	r2,-4(fp)
  802b50:	10800058 	cmpnei	r2,r2,1
  802b54:	1000031e 	bne	r2,zero,802b64 <assign_address+0xd4>
  802b58:	010020b4 	movhi	r4,130
  802b5c:	21202b04 	addi	r4,r4,-32596
  802b60:	08068700 	call	806870 <printf>

  w32(HcRhP1,0x00000010); //Resets port 1
  802b64:	01000544 	movi	r4,21
  802b68:	01400404 	movi	r5,16
  802b6c:	08046000 	call	804600 <w32>
//  delay(500);
  w32(HcRhP2,0x00000010); //Resets port 2
  802b70:	01000584 	movi	r4,22
  802b74:	01400404 	movi	r5,16
  802b78:	08046000 	call	804600 <w32>

  ccode=set_address(0,1,1);
  802b7c:	0009883a 	mov	r4,zero
  802b80:	01400044 	movi	r5,1
  802b84:	01800044 	movi	r6,1
  802b88:	0804ddc0 	call	804ddc <set_address>
  802b8c:	e0bff915 	stw	r2,-28(fp)
  status=0x0100|(ccode<<12);
  802b90:	e0bff917 	ldw	r2,-28(fp)
  802b94:	1004933a 	slli	r2,r2,12
  802b98:	10804014 	ori	r2,r2,256
  802b9c:	e0bffa15 	stw	r2,-24(fp)

  enable_port();
  802ba0:	08025840 	call	802584 <enable_port>

//  delay(200);
  ccode=set_address(0,2,2);
  802ba4:	0009883a 	mov	r4,zero
  802ba8:	01400084 	movi	r5,2
  802bac:	01800084 	movi	r6,2
  802bb0:	0804ddc0 	call	804ddc <set_address>
  802bb4:	e0bff915 	stw	r2,-28(fp)

  status=0x0001|(ccode<<4);
  802bb8:	e0bff917 	ldw	r2,-28(fp)
  802bbc:	1004913a 	slli	r2,r2,4
  802bc0:	10800054 	ori	r2,r2,1
  802bc4:	e0bffa15 	stw	r2,-24(fp)
  printf("\nRhP1 = %8lX  RhP2 = %8lX",rhp1,rhp2);
  printf("\nPort1Speed = %2d",get_port_speed(1));
  printf("\nPort2Speed = %2d",get_port_speed(2));
 }

 if(  ((rhp1&0x01)==1)  &&  ((rhp2&0x01)==1)  )
  802bc8:	00003b06 	br	802cb8 <assign_address+0x228>
  ccode=set_address(0,2,2);

  status=0x0001|(ccode<<4);
 }

 else if(  ((rhp1&0x01)==1)  &&  ((rhp2&0x01)==0)  )
  802bcc:	e0bffc17 	ldw	r2,-16(fp)
  802bd0:	1080004c 	andi	r2,r2,1
  802bd4:	1080005c 	xori	r2,r2,1
  802bd8:	10803fcc 	andi	r2,r2,255
  802bdc:	1004c03a 	cmpne	r2,r2,zero
  802be0:	1000141e 	bne	r2,zero,802c34 <assign_address+0x1a4>
  802be4:	e0bffb17 	ldw	r2,-20(fp)
  802be8:	1080004c 	andi	r2,r2,1
  802bec:	1004c03a 	cmpne	r2,r2,zero
  802bf0:	1000101e 	bne	r2,zero,802c34 <assign_address+0x1a4>
 {
  if(mode==1)printf("\nPort 1 has USB device connected, assigning address 1...");
  802bf4:	e0bfff17 	ldw	r2,-4(fp)
  802bf8:	10800058 	cmpnei	r2,r2,1
  802bfc:	1000031e 	bne	r2,zero,802c0c <assign_address+0x17c>
  802c00:	010020b4 	movhi	r4,130
  802c04:	21203504 	addi	r4,r4,-32556
  802c08:	08068700 	call	806870 <printf>
   ccode=set_address(0,1,1);
  802c0c:	0009883a 	mov	r4,zero
  802c10:	01400044 	movi	r5,1
  802c14:	01800044 	movi	r6,1
  802c18:	0804ddc0 	call	804ddc <set_address>
  802c1c:	e0bff915 	stw	r2,-28(fp)

  status=0x0100|(ccode<<12);
  802c20:	e0bff917 	ldw	r2,-28(fp)
  802c24:	1004933a 	slli	r2,r2,12
  802c28:	10804014 	ori	r2,r2,256
  802c2c:	e0bffa15 	stw	r2,-24(fp)
  ccode=set_address(0,2,2);

  status=0x0001|(ccode<<4);
 }

 else if(  ((rhp1&0x01)==1)  &&  ((rhp2&0x01)==0)  )
  802c30:	00002106 	br	802cb8 <assign_address+0x228>
   ccode=set_address(0,1,1);

  status=0x0100|(ccode<<12);
 }

 else if(  ((rhp1&0x01)==0)  &&  ((rhp2&0x01)==1)  )
  802c34:	e0bffc17 	ldw	r2,-16(fp)
  802c38:	1080004c 	andi	r2,r2,1
  802c3c:	1004c03a 	cmpne	r2,r2,zero
  802c40:	1000161e 	bne	r2,zero,802c9c <assign_address+0x20c>
  802c44:	e0bffb17 	ldw	r2,-20(fp)
  802c48:	1080004c 	andi	r2,r2,1
  802c4c:	1080005c 	xori	r2,r2,1
  802c50:	10803fcc 	andi	r2,r2,255
  802c54:	1004c03a 	cmpne	r2,r2,zero
  802c58:	1000101e 	bne	r2,zero,802c9c <assign_address+0x20c>
 {
  if(mode==1)printf("\nPort 2 has USB device connected, assigning address 2...");
  802c5c:	e0bfff17 	ldw	r2,-4(fp)
  802c60:	10800058 	cmpnei	r2,r2,1
  802c64:	1000031e 	bne	r2,zero,802c74 <assign_address+0x1e4>
  802c68:	010020b4 	movhi	r4,130
  802c6c:	21204404 	addi	r4,r4,-32496
  802c70:	08068700 	call	806870 <printf>
   ccode=set_address(0,2,2);
  802c74:	0009883a 	mov	r4,zero
  802c78:	01400084 	movi	r5,2
  802c7c:	01800084 	movi	r6,2
  802c80:	0804ddc0 	call	804ddc <set_address>
  802c84:	e0bff915 	stw	r2,-28(fp)

  status=0x0001|(ccode<<4);
  802c88:	e0bff917 	ldw	r2,-28(fp)
  802c8c:	1004913a 	slli	r2,r2,4
  802c90:	10800054 	ori	r2,r2,1
  802c94:	e0bffa15 	stw	r2,-24(fp)
   ccode=set_address(0,1,1);

  status=0x0100|(ccode<<12);
 }

 else if(  ((rhp1&0x01)==0)  &&  ((rhp2&0x01)==1)  )
  802c98:	00000706 	br	802cb8 <assign_address+0x228>
  status=0x0001|(ccode<<4);
 }

 else
 {
  if(mode==1)printf("\nNo device connected to ISP1362, aborting enumeration...");
  802c9c:	e0bfff17 	ldw	r2,-4(fp)
  802ca0:	10800058 	cmpnei	r2,r2,1
  802ca4:	1000031e 	bne	r2,zero,802cb4 <assign_address+0x224>
  802ca8:	010020b4 	movhi	r4,130
  802cac:	21205304 	addi	r4,r4,-32436
  802cb0:	08068700 	call	806870 <printf>

  status=0x0000;
  802cb4:	e03ffa15 	stw	zero,-24(fp)
 }

 return(status);
  802cb8:	e0bffa17 	ldw	r2,-24(fp)
}
  802cbc:	e037883a 	mov	sp,fp
  802cc0:	dfc00117 	ldw	ra,4(sp)
  802cc4:	df000017 	ldw	fp,0(sp)
  802cc8:	dec00204 	addi	sp,sp,8
  802ccc:	f800283a 	ret

00802cd0 <send_iso>:

unsigned int c_ptd[4];


void send_iso(unsigned int *a_ptr,unsigned int bytesize,unsigned int ptl,unsigned int addr)
{
  802cd0:	defffa04 	addi	sp,sp,-24
  802cd4:	dfc00515 	stw	ra,20(sp)
  802cd8:	df000415 	stw	fp,16(sp)
  802cdc:	df000404 	addi	fp,sp,16
  802ce0:	e13ffc15 	stw	r4,-16(fp)
  802ce4:	e17ffd15 	stw	r5,-12(fp)
  802ce8:	e1bffe15 	stw	r6,-8(fp)
  802cec:	e1ffff15 	stw	r7,-4(fp)
 random_write(a_ptr,addr,920);
  802cf0:	e13ffc17 	ldw	r4,-16(fp)
  802cf4:	e17fff17 	ldw	r5,-4(fp)
  802cf8:	0180e604 	movi	r6,920
  802cfc:	08008580 	call	800858 <random_write>
}
  802d00:	e037883a 	mov	sp,fp
  802d04:	dfc00117 	ldw	ra,4(sp)
  802d08:	df000017 	ldw	fp,0(sp)
  802d0c:	dec00204 	addi	sp,sp,8
  802d10:	f800283a 	ret

00802d14 <error_recorder>:

unsigned int error_recorder(char mode,int ccode1, int ccode2)
{
  802d14:	defffb04 	addi	sp,sp,-20
  802d18:	df000415 	stw	fp,16(sp)
  802d1c:	df000404 	addi	fp,sp,16
  802d20:	e17ffe15 	stw	r5,-8(fp)
  802d24:	e1bfff15 	stw	r6,-4(fp)
  802d28:	e13ffd05 	stb	r4,-12(fp)
 static int c1[2048];
 static int c2[2048];

 int data2return;

 if(mode=='W')
  802d2c:	e0bffd07 	ldb	r2,-12(fp)
  802d30:	108015d8 	cmpnei	r2,r2,87
  802d34:	1000181e 	bne	r2,zero,802d98 <error_recorder+0x84>
 {
  c1[cnt]=ccode1;
  802d38:	d0a01a17 	ldw	r2,-32664(gp)
  802d3c:	00c020b4 	movhi	r3,130
  802d40:	18f1b304 	addi	r3,r3,-14644
  802d44:	1085883a 	add	r2,r2,r2
  802d48:	1085883a 	add	r2,r2,r2
  802d4c:	10c7883a 	add	r3,r2,r3
  802d50:	e0bffe17 	ldw	r2,-8(fp)
  802d54:	18800015 	stw	r2,0(r3)
  c2[cnt]=ccode2;
  802d58:	d0a01a17 	ldw	r2,-32664(gp)
  802d5c:	00c020b4 	movhi	r3,130
  802d60:	18e9b304 	addi	r3,r3,-22836
  802d64:	1085883a 	add	r2,r2,r2
  802d68:	1085883a 	add	r2,r2,r2
  802d6c:	10c7883a 	add	r3,r2,r3
  802d70:	e0bfff17 	ldw	r2,-4(fp)
  802d74:	18800015 	stw	r2,0(r3)
  cnt++;
  802d78:	d0a01a17 	ldw	r2,-32664(gp)
  802d7c:	10800044 	addi	r2,r2,1
  802d80:	d0a01a15 	stw	r2,-32664(gp)

  if(cnt>2047) {cnt=2047;}
  802d84:	d0a01a17 	ldw	r2,-32664(gp)
  802d88:	10820010 	cmplti	r2,r2,2048
  802d8c:	1000021e 	bne	r2,zero,802d98 <error_recorder+0x84>
  802d90:	0081ffc4 	movi	r2,2047
  802d94:	d0a01a15 	stw	r2,-32664(gp)
 }

 if(mode=='R')
  802d98:	e0bffd07 	ldb	r2,-12(fp)
  802d9c:	10801498 	cmpnei	r2,r2,82
  802da0:	1000151e 	bne	r2,zero,802df8 <error_recorder+0xe4>
 {
  data2return=c1[ccode1];
  802da4:	e0bffe17 	ldw	r2,-8(fp)
  802da8:	00c020b4 	movhi	r3,130
  802dac:	18f1b304 	addi	r3,r3,-14644
  802db0:	1085883a 	add	r2,r2,r2
  802db4:	1085883a 	add	r2,r2,r2
  802db8:	10c5883a 	add	r2,r2,r3
  802dbc:	10800017 	ldw	r2,0(r2)
  802dc0:	e0bffc15 	stw	r2,-16(fp)
  data2return=data2return<<8;
  802dc4:	e0bffc17 	ldw	r2,-16(fp)
  802dc8:	1004923a 	slli	r2,r2,8
  802dcc:	e0bffc15 	stw	r2,-16(fp)
  data2return|=c2[ccode2];
  802dd0:	e0bfff17 	ldw	r2,-4(fp)
  802dd4:	00c020b4 	movhi	r3,130
  802dd8:	18e9b304 	addi	r3,r3,-22836
  802ddc:	1085883a 	add	r2,r2,r2
  802de0:	1085883a 	add	r2,r2,r2
  802de4:	10c5883a 	add	r2,r2,r3
  802de8:	10c00017 	ldw	r3,0(r2)
  802dec:	e0bffc17 	ldw	r2,-16(fp)
  802df0:	10c4b03a 	or	r2,r2,r3
  802df4:	e0bffc15 	stw	r2,-16(fp)
 }

 if(mode=='C')
  802df8:	e0bffd07 	ldb	r2,-12(fp)
  802dfc:	108010d8 	cmpnei	r2,r2,67
  802e00:	1000021e 	bne	r2,zero,802e0c <error_recorder+0xf8>
 {
  data2return=cnt;
  802e04:	d0a01a17 	ldw	r2,-32664(gp)
  802e08:	e0bffc15 	stw	r2,-16(fp)
 }

 if(mode=='Z')
  802e0c:	e0bffd07 	ldb	r2,-12(fp)
  802e10:	10801698 	cmpnei	r2,r2,90
  802e14:	1000011e 	bne	r2,zero,802e1c <error_recorder+0x108>
 {
  cnt=0;
  802e18:	d0201a15 	stw	zero,-32664(gp)
 }

 return(data2return);
  802e1c:	e0bffc17 	ldw	r2,-16(fp)
}
  802e20:	e037883a 	mov	sp,fp
  802e24:	df000017 	ldw	fp,0(sp)
  802e28:	dec00104 	addi	sp,sp,4
  802e2c:	f800283a 	ret

00802e30 <addr_info>:

unsigned int addr_info(int addr,int mode,int dtype,int para)
{
  802e30:	defff804 	addi	sp,sp,-32
  802e34:	dfc00715 	stw	ra,28(sp)
  802e38:	df000615 	stw	fp,24(sp)
  802e3c:	df000604 	addi	fp,sp,24
  802e40:	e13ffc15 	stw	r4,-16(fp)
  802e44:	e17ffd15 	stw	r5,-12(fp)
  802e48:	e1bffe15 	stw	r6,-8(fp)
  802e4c:	e1ffff15 	stw	r7,-4(fp)
 static unsigned int ipro[8];

 unsigned int data2return;

 //Displaying data
 if(mode=='D')
  802e50:	e0bffd17 	ldw	r2,-12(fp)
  802e54:	10801118 	cmpnei	r2,r2,68
  802e58:	1000201e 	bne	r2,zero,802edc <addr_info+0xac>
 {
  printf("\nPort 1 : Speed[%2d] MPS[%4d] iMan[%2d] iPro[%2d]",speed[1],maxpac[1],iman[1],ipro[1]);
  802e5c:	008020b4 	movhi	r2,130
  802e60:	10b9cb04 	addi	r2,r2,-6356
  802e64:	11400117 	ldw	r5,4(r2)
  802e68:	008020b4 	movhi	r2,130
  802e6c:	10b9c304 	addi	r2,r2,-6388
  802e70:	11800117 	ldw	r6,4(r2)
  802e74:	008020b4 	movhi	r2,130
  802e78:	10b9bb04 	addi	r2,r2,-6420
  802e7c:	11c00117 	ldw	r7,4(r2)
  802e80:	008020b4 	movhi	r2,130
  802e84:	10b9b304 	addi	r2,r2,-6452
  802e88:	10800117 	ldw	r2,4(r2)
  802e8c:	d8800015 	stw	r2,0(sp)
  802e90:	010020b4 	movhi	r4,130
  802e94:	21206204 	addi	r4,r4,-32376
  802e98:	08068700 	call	806870 <printf>
  printf("\nPort 2 : Speed[%2d] MPS[%4d] iMan[%2d] iPro[%2d]",speed[2],maxpac[2],iman[2],ipro[2]);
  802e9c:	008020b4 	movhi	r2,130
  802ea0:	10b9cb04 	addi	r2,r2,-6356
  802ea4:	11400217 	ldw	r5,8(r2)
  802ea8:	008020b4 	movhi	r2,130
  802eac:	10b9c304 	addi	r2,r2,-6388
  802eb0:	11800217 	ldw	r6,8(r2)
  802eb4:	008020b4 	movhi	r2,130
  802eb8:	10b9bb04 	addi	r2,r2,-6420
  802ebc:	11c00217 	ldw	r7,8(r2)
  802ec0:	008020b4 	movhi	r2,130
  802ec4:	10b9b304 	addi	r2,r2,-6452
  802ec8:	10800217 	ldw	r2,8(r2)
  802ecc:	d8800015 	stw	r2,0(sp)
  802ed0:	010020b4 	movhi	r4,130
  802ed4:	21206f04 	addi	r4,r4,-32324
  802ed8:	08068700 	call	806870 <printf>
 }

 //Writing data
 if(mode=='W')
  802edc:	e0bffd17 	ldw	r2,-12(fp)
  802ee0:	108015d8 	cmpnei	r2,r2,87
  802ee4:	10002c1e 	bne	r2,zero,802f98 <addr_info+0x168>
 {
  if(dtype=='S')
  802ee8:	e0bffe17 	ldw	r2,-8(fp)
  802eec:	108014d8 	cmpnei	r2,r2,83
  802ef0:	1000081e 	bne	r2,zero,802f14 <addr_info+0xe4>
  {
   speed[addr]=para;
  802ef4:	e0bffc17 	ldw	r2,-16(fp)
  802ef8:	e13fff17 	ldw	r4,-4(fp)
  802efc:	00c020b4 	movhi	r3,130
  802f00:	18f9cb04 	addi	r3,r3,-6356
  802f04:	1085883a 	add	r2,r2,r2
  802f08:	1085883a 	add	r2,r2,r2
  802f0c:	10c5883a 	add	r2,r2,r3
  802f10:	11000015 	stw	r4,0(r2)
  }

  if(dtype=='M')
  802f14:	e0bffe17 	ldw	r2,-8(fp)
  802f18:	10801358 	cmpnei	r2,r2,77
  802f1c:	1000081e 	bne	r2,zero,802f40 <addr_info+0x110>
  {
   maxpac[addr]=para;
  802f20:	e0bffc17 	ldw	r2,-16(fp)
  802f24:	e13fff17 	ldw	r4,-4(fp)
  802f28:	00c020b4 	movhi	r3,130
  802f2c:	18f9c304 	addi	r3,r3,-6388
  802f30:	1085883a 	add	r2,r2,r2
  802f34:	1085883a 	add	r2,r2,r2
  802f38:	10c5883a 	add	r2,r2,r3
  802f3c:	11000015 	stw	r4,0(r2)
  }

  if(dtype=='O') //Manufaturer
  802f40:	e0bffe17 	ldw	r2,-8(fp)
  802f44:	108013d8 	cmpnei	r2,r2,79
  802f48:	1000081e 	bne	r2,zero,802f6c <addr_info+0x13c>
  {
   iman[addr]=para;
  802f4c:	e0bffc17 	ldw	r2,-16(fp)
  802f50:	e13fff17 	ldw	r4,-4(fp)
  802f54:	00c020b4 	movhi	r3,130
  802f58:	18f9bb04 	addi	r3,r3,-6420
  802f5c:	1085883a 	add	r2,r2,r2
  802f60:	1085883a 	add	r2,r2,r2
  802f64:	10c5883a 	add	r2,r2,r3
  802f68:	11000015 	stw	r4,0(r2)
  }

  if(dtype=='P') //Product
  802f6c:	e0bffe17 	ldw	r2,-8(fp)
  802f70:	10801418 	cmpnei	r2,r2,80
  802f74:	1000081e 	bne	r2,zero,802f98 <addr_info+0x168>
  {
   ipro[addr]=para;
  802f78:	e0bffc17 	ldw	r2,-16(fp)
  802f7c:	e13fff17 	ldw	r4,-4(fp)
  802f80:	00c020b4 	movhi	r3,130
  802f84:	18f9b304 	addi	r3,r3,-6452
  802f88:	1085883a 	add	r2,r2,r2
  802f8c:	1085883a 	add	r2,r2,r2
  802f90:	10c5883a 	add	r2,r2,r3
  802f94:	11000015 	stw	r4,0(r2)
  }
 }

 //Reading data
 if(mode=='R')
  802f98:	e0bffd17 	ldw	r2,-12(fp)
  802f9c:	10801498 	cmpnei	r2,r2,82
  802fa0:	10002c1e 	bne	r2,zero,803054 <addr_info+0x224>
 {
  if(dtype=='S')
  802fa4:	e0bffe17 	ldw	r2,-8(fp)
  802fa8:	108014d8 	cmpnei	r2,r2,83
  802fac:	1000081e 	bne	r2,zero,802fd0 <addr_info+0x1a0>
  {
   data2return=speed[addr];
  802fb0:	e0bffc17 	ldw	r2,-16(fp)
  802fb4:	00c020b4 	movhi	r3,130
  802fb8:	18f9cb04 	addi	r3,r3,-6356
  802fbc:	1085883a 	add	r2,r2,r2
  802fc0:	1085883a 	add	r2,r2,r2
  802fc4:	10c5883a 	add	r2,r2,r3
  802fc8:	10800017 	ldw	r2,0(r2)
  802fcc:	e0bffb15 	stw	r2,-20(fp)
  }

  if(dtype=='M')
  802fd0:	e0bffe17 	ldw	r2,-8(fp)
  802fd4:	10801358 	cmpnei	r2,r2,77
  802fd8:	1000081e 	bne	r2,zero,802ffc <addr_info+0x1cc>
  {
   data2return=maxpac[addr];
  802fdc:	e0bffc17 	ldw	r2,-16(fp)
  802fe0:	00c020b4 	movhi	r3,130
  802fe4:	18f9c304 	addi	r3,r3,-6388
  802fe8:	1085883a 	add	r2,r2,r2
  802fec:	1085883a 	add	r2,r2,r2
  802ff0:	10c5883a 	add	r2,r2,r3
  802ff4:	10800017 	ldw	r2,0(r2)
  802ff8:	e0bffb15 	stw	r2,-20(fp)
  }

  if(dtype=='O')
  802ffc:	e0bffe17 	ldw	r2,-8(fp)
  803000:	108013d8 	cmpnei	r2,r2,79
  803004:	1000081e 	bne	r2,zero,803028 <addr_info+0x1f8>
  {
   data2return=iman[addr];
  803008:	e0bffc17 	ldw	r2,-16(fp)
  80300c:	00c020b4 	movhi	r3,130
  803010:	18f9bb04 	addi	r3,r3,-6420
  803014:	1085883a 	add	r2,r2,r2
  803018:	1085883a 	add	r2,r2,r2
  80301c:	10c5883a 	add	r2,r2,r3
  803020:	10800017 	ldw	r2,0(r2)
  803024:	e0bffb15 	stw	r2,-20(fp)
  }

  if(dtype=='P')
  803028:	e0bffe17 	ldw	r2,-8(fp)
  80302c:	10801418 	cmpnei	r2,r2,80
  803030:	1000081e 	bne	r2,zero,803054 <addr_info+0x224>
  {
   data2return=ipro[addr];
  803034:	e0bffc17 	ldw	r2,-16(fp)
  803038:	00c020b4 	movhi	r3,130
  80303c:	18f9b304 	addi	r3,r3,-6452
  803040:	1085883a 	add	r2,r2,r2
  803044:	1085883a 	add	r2,r2,r2
  803048:	10c5883a 	add	r2,r2,r3
  80304c:	10800017 	ldw	r2,0(r2)
  803050:	e0bffb15 	stw	r2,-20(fp)
  }
 }

 return(data2return);
  803054:	e0bffb17 	ldw	r2,-20(fp)
}
  803058:	e037883a 	mov	sp,fp
  80305c:	dfc00117 	ldw	ra,4(sp)
  803060:	df000017 	ldw	fp,0(sp)
  803064:	dec00204 	addi	sp,sp,8
  803068:	f800283a 	ret

0080306c <get_port_speed>:

unsigned int get_port_speed(unsigned int port)
{
  80306c:	defffc04 	addi	sp,sp,-16
  803070:	df000315 	stw	fp,12(sp)
  803074:	df000304 	addi	fp,sp,12
  803078:	e13ffd15 	stw	r4,-12(fp)
 if(port==1) {return(port1speed);}
  80307c:	e0bffd17 	ldw	r2,-12(fp)
  803080:	10800058 	cmpnei	r2,r2,1
  803084:	1000031e 	bne	r2,zero,803094 <get_port_speed+0x28>
  803088:	d0a01717 	ldw	r2,-32676(gp)
  80308c:	e0bffe15 	stw	r2,-8(fp)
  803090:	00000706 	br	8030b0 <get_port_speed+0x44>
 if(port==2) {return(port2speed);}
  803094:	e0bffd17 	ldw	r2,-12(fp)
  803098:	10800098 	cmpnei	r2,r2,2
  80309c:	1000031e 	bne	r2,zero,8030ac <get_port_speed+0x40>
  8030a0:	d0a01817 	ldw	r2,-32672(gp)
  8030a4:	e0bffe15 	stw	r2,-8(fp)
  8030a8:	00000106 	br	8030b0 <get_port_speed+0x44>
}
  8030ac:	00000206 	br	8030b8 <get_port_speed+0x4c>
  8030b0:	e0bffe17 	ldw	r2,-8(fp)
  8030b4:	e0bfff15 	stw	r2,-4(fp)
  8030b8:	e0bfff17 	ldw	r2,-4(fp)
  8030bc:	e037883a 	mov	sp,fp
  8030c0:	df000017 	ldw	fp,0(sp)
  8030c4:	dec00104 	addi	sp,sp,4
  8030c8:	f800283a 	ret

008030cc <set_port_speed>:

void set_port_speed(unsigned int port, unsigned int speed)
{
  8030cc:	defffc04 	addi	sp,sp,-16
  8030d0:	dfc00315 	stw	ra,12(sp)
  8030d4:	df000215 	stw	fp,8(sp)
  8030d8:	df000204 	addi	fp,sp,8
  8030dc:	e13ffe15 	stw	r4,-8(fp)
  8030e0:	e17fff15 	stw	r5,-4(fp)
 if(port==1)
  8030e4:	e0bffe17 	ldw	r2,-8(fp)
  8030e8:	10800058 	cmpnei	r2,r2,1
  8030ec:	1000071e 	bne	r2,zero,80310c <set_port_speed+0x40>
 {
  port1speed=speed;
  8030f0:	e0bfff17 	ldw	r2,-4(fp)
  8030f4:	d0a01715 	stw	r2,-32676(gp)
  addr_info(1,'W','S',speed);
  8030f8:	e1ffff17 	ldw	r7,-4(fp)
  8030fc:	01000044 	movi	r4,1
  803100:	014015c4 	movi	r5,87
  803104:	018014c4 	movi	r6,83
  803108:	0802e300 	call	802e30 <addr_info>
 }

 if(port==2)
  80310c:	e0bffe17 	ldw	r2,-8(fp)
  803110:	10800098 	cmpnei	r2,r2,2
  803114:	1000071e 	bne	r2,zero,803134 <set_port_speed+0x68>
 {
  port2speed=speed;
  803118:	e0bfff17 	ldw	r2,-4(fp)
  80311c:	d0a01815 	stw	r2,-32672(gp)
  addr_info(2,'W','S',speed);
  803120:	e1ffff17 	ldw	r7,-4(fp)
  803124:	01000084 	movi	r4,2
  803128:	014015c4 	movi	r5,87
  80312c:	018014c4 	movi	r6,83
  803130:	0802e300 	call	802e30 <addr_info>
 }

 port_speed=speed;
  803134:	e0bfff17 	ldw	r2,-4(fp)
  803138:	d0a01915 	stw	r2,-32668(gp)
}
  80313c:	e037883a 	mov	sp,fp
  803140:	dfc00117 	ldw	ra,4(sp)
  803144:	df000017 	ldw	fp,0(sp)
  803148:	dec00204 	addi	sp,sp,8
  80314c:	f800283a 	ret

00803150 <poll>:



void poll(unsigned int poll_len)
{
  803150:	defffd04 	addi	sp,sp,-12
  803154:	df000215 	stw	fp,8(sp)
  803158:	df000204 	addi	fp,sp,8
  80315c:	e13fff15 	stw	r4,-4(fp)
 unsigned int temp=0;
  803160:	e03ffe15 	stw	zero,-8(fp)

 do
  {
   temp++;
  803164:	e0bffe17 	ldw	r2,-8(fp)
  803168:	10800044 	addi	r2,r2,1
  80316c:	e0bffe15 	stw	r2,-8(fp)
  }
 while(temp<poll_len);
  803170:	e0fffe17 	ldw	r3,-8(fp)
  803174:	e0bfff17 	ldw	r2,-4(fp)
  803178:	18bffa36 	bltu	r3,r2,803164 <poll+0x14>
}
  80317c:	e037883a 	mov	sp,fp
  803180:	df000017 	ldw	fp,0(sp)
  803184:	dec00104 	addi	sp,sp,4
  803188:	f800283a 	ret

0080318c <send_control>:
 unsigned char fm;
}
ptd2send;

unsigned int send_control(unsigned int *a_ptr,unsigned int *r_ptr)
{
  80318c:	deff7504 	addi	sp,sp,-556
  803190:	dfc08a15 	stw	ra,552(sp)
  803194:	df008915 	stw	fp,548(sp)
  803198:	df008904 	addi	fp,sp,548
  80319c:	e13ffe15 	stw	r4,-8(fp)
  8031a0:	e17fff15 	stw	r5,-4(fp)
 unsigned int cnt=retry;
  8031a4:	d0a00117 	ldw	r2,-32764(gp)
  8031a8:	e0bf7d15 	stw	r2,-524(fp)
 unsigned int active_bit;
 unsigned int abuf[128];
 unsigned int UpInt;
 unsigned int ccode;
 unsigned int timeout=9;
  8031ac:	00800244 	movi	r2,9
  8031b0:	e0bf7915 	stw	r2,-540(fp)
 unsigned int ccode1=0,ccode2=0;
  8031b4:	e03f7815 	stw	zero,-544(fp)
  8031b8:	e03f7715 	stw	zero,-548(fp)

 do
 {
  cnt=retry;
  8031bc:	d0a00117 	ldw	r2,-32764(gp)
  8031c0:	e0bf7d15 	stw	r2,-524(fp)

  write_atl(a_ptr,8);  //write 16 bytes
  8031c4:	e13ffe17 	ldw	r4,-8(fp)
  8031c8:	01400204 	movi	r5,8
  8031cc:	08003180 	call	800318 <write_atl>

  w16(HcUpInt,0x100);
  8031d0:	01000904 	movi	r4,36
  8031d4:	01404004 	movi	r5,256
  8031d8:	08046e00 	call	8046e0 <w16>
  r32(HcATLDone); //read and clear done map, enables ATL interrupt
  8031dc:	010006c4 	movi	r4,27
  8031e0:	08045780 	call	804578 <r32>
  r32(HcATLDone); //read and clear done map, enables ATL interrupt
  8031e4:	010006c4 	movi	r4,27
  8031e8:	08045780 	call	804578 <r32>
  w16(HcBufStatus,0x08);
  8031ec:	01000b04 	movi	r4,44
  8031f0:	01400204 	movi	r5,8
  8031f4:	08046e00 	call	8046e0 <w16>
  do
   {
	UpInt=r16(HcUpInt);
  8031f8:	01000904 	movi	r4,36
  8031fc:	080468c0 	call	80468c <r16>
  803200:	e0bf7b15 	stw	r2,-532(fp)
	if( (UpInt&0x100)!=0) {active_bit=0;}
  803204:	e0bf7b17 	ldw	r2,-532(fp)
  803208:	1080400c 	andi	r2,r2,256
  80320c:	1005003a 	cmpeq	r2,r2,zero
  803210:	1000021e 	bne	r2,zero,80321c <send_control+0x90>
  803214:	e03f7c15 	stw	zero,-528(fp)
  803218:	00000206 	br	803224 <send_control+0x98>
	else {active_bit=1;}
  80321c:	00800044 	movi	r2,1
  803220:	e0bf7c15 	stw	r2,-528(fp)

	poll(50);
  803224:	01000c84 	movi	r4,50
  803228:	08031500 	call	803150 <poll>
	cnt--;
  80322c:	e0bf7d17 	ldw	r2,-524(fp)
  803230:	10bfffc4 	addi	r2,r2,-1
  803234:	e0bf7d15 	stw	r2,-524(fp)
   }
  while((cnt!=0)   &&   (active_bit!=0));
  803238:	e0bf7d17 	ldw	r2,-524(fp)
  80323c:	1005003a 	cmpeq	r2,r2,zero
  803240:	1000031e 	bne	r2,zero,803250 <send_control+0xc4>
  803244:	e0bf7c17 	ldw	r2,-528(fp)
  803248:	1004c03a 	cmpne	r2,r2,zero
  80324c:	103fea1e 	bne	r2,zero,8031f8 <send_control+0x6c>
  w16(HcBufStatus,0x00);
  803250:	01000b04 	movi	r4,44
  803254:	000b883a 	mov	r5,zero
  803258:	08046e00 	call	8046e0 <w16>
  read_atl(r_ptr,72);
  80325c:	e13fff17 	ldw	r4,-4(fp)
  803260:	01401204 	movi	r5,72
  803264:	080027c0 	call	80027c <read_atl>

  //This part does 1 retry if ccode!=0, and records the errors
  ccode=((*r_ptr)&(0xF000))>>12;
  803268:	e0bfff17 	ldw	r2,-4(fp)
  80326c:	10800017 	ldw	r2,0(r2)
  803270:	10bc000c 	andi	r2,r2,61440
  803274:	1004d33a 	srli	r2,r2,12
  803278:	e0bf7a15 	stw	r2,-536(fp)
  if(timeout==9) {ccode1=ccode;}
  80327c:	e0bf7917 	ldw	r2,-540(fp)
  803280:	10800258 	cmpnei	r2,r2,9
  803284:	1000021e 	bne	r2,zero,803290 <send_control+0x104>
  803288:	e0bf7a17 	ldw	r2,-536(fp)
  80328c:	e0bf7815 	stw	r2,-544(fp)
  if(timeout==8) {ccode2=ccode;}
  803290:	e0bf7917 	ldw	r2,-540(fp)
  803294:	10800218 	cmpnei	r2,r2,8
  803298:	1000021e 	bne	r2,zero,8032a4 <send_control+0x118>
  80329c:	e0bf7a17 	ldw	r2,-536(fp)
  8032a0:	e0bf7715 	stw	r2,-548(fp)

  timeout--;
  8032a4:	e0bf7917 	ldw	r2,-540(fp)
  8032a8:	10bfffc4 	addi	r2,r2,-1
  8032ac:	e0bf7915 	stw	r2,-540(fp)
 }
 while(  (ccode!=0) && (timeout!=0)  );
  8032b0:	e0bf7a17 	ldw	r2,-536(fp)
  8032b4:	1005003a 	cmpeq	r2,r2,zero
  8032b8:	1000031e 	bne	r2,zero,8032c8 <send_control+0x13c>
  8032bc:	e0bf7917 	ldw	r2,-540(fp)
  8032c0:	1004c03a 	cmpne	r2,r2,zero
  8032c4:	103fbd1e 	bne	r2,zero,8031bc <send_control+0x30>

 if(ccode1!=0 && ccode2!=0)
  8032c8:	e0bf7817 	ldw	r2,-544(fp)
  8032cc:	1005003a 	cmpeq	r2,r2,zero
  8032d0:	1000071e 	bne	r2,zero,8032f0 <send_control+0x164>
  8032d4:	e0bf7717 	ldw	r2,-548(fp)
  8032d8:	1005003a 	cmpeq	r2,r2,zero
  8032dc:	1000041e 	bne	r2,zero,8032f0 <send_control+0x164>
 {
  error_recorder('W',ccode1,ccode2);
  8032e0:	e17f7817 	ldw	r5,-544(fp)
  8032e4:	e1bf7717 	ldw	r6,-548(fp)
  8032e8:	010015c4 	movi	r4,87
  8032ec:	0802d140 	call	802d14 <error_recorder>
 }
 return(cnt);
  8032f0:	e0bf7d17 	ldw	r2,-524(fp)
}
  8032f4:	e037883a 	mov	sp,fp
  8032f8:	dfc00117 	ldw	ra,4(sp)
  8032fc:	df000017 	ldw	fp,0(sp)
  803300:	dec00204 	addi	sp,sp,8
  803304:	f800283a 	ret

00803308 <send_int>:

unsigned int send_int(unsigned int *a_ptr,unsigned int *r_ptr)
{
  803308:	deff7804 	addi	sp,sp,-544
  80330c:	dfc08715 	stw	ra,540(sp)
  803310:	df008615 	stw	fp,536(sp)
  803314:	df008604 	addi	fp,sp,536
  803318:	e13ffe15 	stw	r4,-8(fp)
  80331c:	e17fff15 	stw	r5,-4(fp)
 unsigned int cnt=retry;
  803320:	d0a00117 	ldw	r2,-32764(gp)
  803324:	e0bf7d15 	stw	r2,-524(fp)
 unsigned int UpInt;

// unsigned int far *dptr;
 unsigned int  *dptr;

 dptr=a_ptr;
  803328:	e0bffe17 	ldw	r2,-8(fp)
  80332c:	e0bf7a15 	stw	r2,-536(fp)

 write_int(a_ptr,8);  //write 16 bytes
  803330:	e13ffe17 	ldw	r4,-8(fp)
  803334:	01400204 	movi	r5,8
  803338:	08004540 	call	800454 <write_int>

 w16(HcUpInt,0x0080);
  80333c:	01000904 	movi	r4,36
  803340:	01402004 	movi	r5,128
  803344:	08046e00 	call	8046e0 <w16>
 w16(HcBufStatus,0x04);
  803348:	01000b04 	movi	r4,44
  80334c:	01400104 	movi	r5,4
  803350:	08046e00 	call	8046e0 <w16>

 r32(HcIntDone); //read and clear done map, enables ATL interrupt
  803354:	010005c4 	movi	r4,23
  803358:	08045780 	call	804578 <r32>

 do
  {
   UpInt=r16(HcUpInt);
  80335c:	01000904 	movi	r4,36
  803360:	080468c0 	call	80468c <r16>
  803364:	e0bf7b15 	stw	r2,-532(fp)
   if( (UpInt&0x80)!=0) {active_bit=0;}
  803368:	e0bf7b17 	ldw	r2,-532(fp)
  80336c:	1080200c 	andi	r2,r2,128
  803370:	1005003a 	cmpeq	r2,r2,zero
  803374:	1000021e 	bne	r2,zero,803380 <send_int+0x78>
  803378:	e03f7c15 	stw	zero,-528(fp)
  80337c:	00000206 	br	803388 <send_int+0x80>
   else {active_bit=1;}
  803380:	00800044 	movi	r2,1
  803384:	e0bf7c15 	stw	r2,-528(fp)

   poll(50);
  803388:	01000c84 	movi	r4,50
  80338c:	08031500 	call	803150 <poll>
   cnt--;
  803390:	e0bf7d17 	ldw	r2,-524(fp)
  803394:	10bfffc4 	addi	r2,r2,-1
  803398:	e0bf7d15 	stw	r2,-524(fp)
  }
 while((cnt>0)   &&   (active_bit!=0));
  80339c:	e0bf7d17 	ldw	r2,-524(fp)
  8033a0:	1005003a 	cmpeq	r2,r2,zero
  8033a4:	1000031e 	bne	r2,zero,8033b4 <send_int+0xac>
  8033a8:	e0bf7c17 	ldw	r2,-528(fp)
  8033ac:	1004c03a 	cmpne	r2,r2,zero
  8033b0:	103fea1e 	bne	r2,zero,80335c <send_int+0x54>

 w16(HcBufStatus,0x00);
  8033b4:	01000b04 	movi	r4,44
  8033b8:	000b883a 	mov	r5,zero
  8033bc:	08046e00 	call	8046e0 <w16>

 read_int(r_ptr,72);
  8033c0:	e13fff17 	ldw	r4,-4(fp)
  8033c4:	01401204 	movi	r5,72
  8033c8:	08003b80 	call	8003b8 <read_int>

 return(cnt);
  8033cc:	e0bf7d17 	ldw	r2,-524(fp)
}
  8033d0:	e037883a 	mov	sp,fp
  8033d4:	dfc00117 	ldw	ra,4(sp)
  8033d8:	df000017 	ldw	fp,0(sp)
  8033dc:	dec00204 	addi	sp,sp,8
  8033e0:	f800283a 	ret

008033e4 <full_ptd>:

void full_ptd(int *rptr,char token,char ep,int max,int total,char tog,char addr,char port)
{
  8033e4:	defff804 	addi	sp,sp,-32
  8033e8:	df000715 	stw	fp,28(sp)
  8033ec:	df000704 	addi	fp,sp,28
  8033f0:	e13ff915 	stw	r4,-28(fp)
  8033f4:	e1fffc15 	stw	r7,-16(fp)
  8033f8:	e0800217 	ldw	r2,8(fp)
  8033fc:	e0c00317 	ldw	r3,12(fp)
  803400:	e1000417 	ldw	r4,16(fp)
  803404:	e17ffa05 	stb	r5,-24(fp)
  803408:	e1bffb05 	stb	r6,-20(fp)
  80340c:	e0bffd05 	stb	r2,-12(fp)
  803410:	e0fffe05 	stb	r3,-8(fp)
  803414:	e13fff05 	stb	r4,-4(fp)
 ptd2send.c_code=0x0F;
  803418:	00c020b4 	movhi	r3,130
  80341c:	18f9dd04 	addi	r3,r3,-6284
  803420:	008003c4 	movi	r2,15
  803424:	18800015 	stw	r2,0(r3)
 ptd2send.active_bit=1;
  803428:	00c020b4 	movhi	r3,130
  80342c:	18f9dd04 	addi	r3,r3,-6284
  803430:	00800044 	movi	r2,1
  803434:	18800115 	stw	r2,4(r3)
 ptd2send.toggle=tog;
  803438:	e0fffd07 	ldb	r3,-12(fp)
  80343c:	008020b4 	movhi	r2,130
  803440:	10b9dd04 	addi	r2,r2,-6284
  803444:	10c00215 	stw	r3,8(r2)
 ptd2send.actual_size=0;
  803448:	008020b4 	movhi	r2,130
  80344c:	10b9dd04 	addi	r2,r2,-6284
  803450:	10000315 	stw	zero,12(r2)
 ptd2send.endpoint=ep;
  803454:	e0fffb07 	ldb	r3,-20(fp)
  803458:	008020b4 	movhi	r2,130
  80345c:	10b9dd04 	addi	r2,r2,-6284
  803460:	10c00415 	stw	r3,16(r2)
 ptd2send.last_ptd=0;
  803464:	008020b4 	movhi	r2,130
  803468:	10b9dd04 	addi	r2,r2,-6284
  80346c:	10000515 	stw	zero,20(r2)

 ptd2send.speed=port_speed;
  803470:	d0e01917 	ldw	r3,-32668(gp)
  803474:	008020b4 	movhi	r2,130
  803478:	10b9dd04 	addi	r2,r2,-6284
  80347c:	10c00615 	stw	r3,24(r2)
 if(port==1) {ptd2send.speed=port1speed;}
  803480:	e0bfff07 	ldb	r2,-4(fp)
  803484:	10800058 	cmpnei	r2,r2,1
  803488:	1000041e 	bne	r2,zero,80349c <full_ptd+0xb8>
  80348c:	d0e01717 	ldw	r3,-32676(gp)
  803490:	008020b4 	movhi	r2,130
  803494:	10b9dd04 	addi	r2,r2,-6284
  803498:	10c00615 	stw	r3,24(r2)
 if(port==2) {ptd2send.speed=port2speed;}
  80349c:	e0bfff07 	ldb	r2,-4(fp)
  8034a0:	10800098 	cmpnei	r2,r2,2
  8034a4:	1000041e 	bne	r2,zero,8034b8 <full_ptd+0xd4>
  8034a8:	d0e01817 	ldw	r3,-32672(gp)
  8034ac:	008020b4 	movhi	r2,130
  8034b0:	10b9dd04 	addi	r2,r2,-6284
  8034b4:	10c00615 	stw	r3,24(r2)

 ptd2send.max_size=max;
  8034b8:	e0fffc17 	ldw	r3,-16(fp)
  8034bc:	008020b4 	movhi	r2,130
  8034c0:	10b9dd04 	addi	r2,r2,-6284
  8034c4:	10c00715 	stw	r3,28(r2)
 ptd2send.total_size=total;
  8034c8:	e0c00117 	ldw	r3,4(fp)
  8034cc:	008020b4 	movhi	r2,130
  8034d0:	10b9dd04 	addi	r2,r2,-6284
  8034d4:	10c00915 	stw	r3,36(r2)
 ptd2send.pid= token;
  8034d8:	e0fffa07 	ldb	r3,-24(fp)
  8034dc:	008020b4 	movhi	r2,130
  8034e0:	10b9dd04 	addi	r2,r2,-6284
  8034e4:	10c00815 	stw	r3,32(r2)
 ptd2send.format=0;
  8034e8:	008020b4 	movhi	r2,130
  8034ec:	10b9dd04 	addi	r2,r2,-6284
  8034f0:	10000a15 	stw	zero,40(r2)
 ptd2send.fm=0;
  8034f4:	008020b4 	movhi	r2,130
  8034f8:	10b9dd04 	addi	r2,r2,-6284
  8034fc:	10000c05 	stb	zero,48(r2)
 ptd2send.func_addr=addr;
  803500:	e0fffe07 	ldb	r3,-8(fp)
  803504:	008020b4 	movhi	r2,130
  803508:	10b9dd04 	addi	r2,r2,-6284
  80350c:	10c00b15 	stw	r3,44(r2)

 *(rptr+0)=	(ptd2send.c_code     	&0x0000)<<12
  803510:	008020b4 	movhi	r2,130
  803514:	10b9dd04 	addi	r2,r2,-6284
  803518:	10800117 	ldw	r2,4(r2)
  80351c:	1080004c 	andi	r2,r2,1
  803520:	100692fa 	slli	r3,r2,11
  803524:	008020b4 	movhi	r2,130
  803528:	10b9dd04 	addi	r2,r2,-6284
  80352c:	10800217 	ldw	r2,8(r2)
  803530:	1080004c 	andi	r2,r2,1
  803534:	100492ba 	slli	r2,r2,10
  803538:	1886b03a 	or	r3,r3,r2
  80353c:	008020b4 	movhi	r2,130
  803540:	10b9dd04 	addi	r2,r2,-6284
  803544:	10800317 	ldw	r2,12(r2)
  803548:	1080ffcc 	andi	r2,r2,1023
  80354c:	1884b03a 	or	r2,r3,r2
  803550:	1007883a 	mov	r3,r2
  803554:	e0bff917 	ldw	r2,-28(fp)
  803558:	10c00015 	stw	r3,0(r2)
		   |(ptd2send.active_bit 	&0x0001)<<11
		   |(ptd2send.toggle		&0x0001)<<10
		   |(ptd2send.actual_size   &0x03FF);

 *(rptr+1)=  (ptd2send.endpoint		&0x000F)<<12
  80355c:	e0bff917 	ldw	r2,-28(fp)
  803560:	11000104 	addi	r4,r2,4
  803564:	008020b4 	movhi	r2,130
  803568:	10b9dd04 	addi	r2,r2,-6284
  80356c:	10800417 	ldw	r2,16(r2)
  803570:	108003cc 	andi	r2,r2,15
  803574:	1006933a 	slli	r3,r2,12
  803578:	008020b4 	movhi	r2,130
  80357c:	10b9dd04 	addi	r2,r2,-6284
  803580:	10800517 	ldw	r2,20(r2)
  803584:	1080004c 	andi	r2,r2,1
  803588:	100492fa 	slli	r2,r2,11
  80358c:	1886b03a 	or	r3,r3,r2
  803590:	008020b4 	movhi	r2,130
  803594:	10b9dd04 	addi	r2,r2,-6284
  803598:	10800617 	ldw	r2,24(r2)
  80359c:	1080004c 	andi	r2,r2,1
  8035a0:	100492ba 	slli	r2,r2,10
  8035a4:	1886b03a 	or	r3,r3,r2
  8035a8:	008020b4 	movhi	r2,130
  8035ac:	10b9dd04 	addi	r2,r2,-6284
  8035b0:	10800717 	ldw	r2,28(r2)
  8035b4:	1080ffcc 	andi	r2,r2,1023
  8035b8:	1884b03a 	or	r2,r3,r2
  8035bc:	20800015 	stw	r2,0(r4)
		   |(ptd2send.last_ptd		&0x0001)<<11
		   |(ptd2send.speed			&0x0001)<<10
		   |(ptd2send.max_size		&0x03FF);

 *(rptr+2)=  (0x0000             	&0x000F)<<12
  8035c0:	e0bff917 	ldw	r2,-28(fp)
  8035c4:	11000204 	addi	r4,r2,8
  8035c8:	008020b4 	movhi	r2,130
  8035cc:	10b9dd04 	addi	r2,r2,-6284
  8035d0:	10800817 	ldw	r2,32(r2)
  8035d4:	108000cc 	andi	r2,r2,3
  8035d8:	100692ba 	slli	r3,r2,10
  8035dc:	008020b4 	movhi	r2,130
  8035e0:	10b9dd04 	addi	r2,r2,-6284
  8035e4:	10800917 	ldw	r2,36(r2)
  8035e8:	1080ffcc 	andi	r2,r2,1023
  8035ec:	1884b03a 	or	r2,r3,r2
  8035f0:	20800015 	stw	r2,0(r4)
		   |(ptd2send.pid     		&0x0003)<<10
		   |(ptd2send.total_size	&0x03FF);

 *(rptr+3)=  (ptd2send.fm            &0x00FF)<<8
  8035f4:	e0bff917 	ldw	r2,-28(fp)
  8035f8:	11000304 	addi	r4,r2,12
  8035fc:	008020b4 	movhi	r2,130
  803600:	10b9dd04 	addi	r2,r2,-6284
  803604:	10800c03 	ldbu	r2,48(r2)
  803608:	10803fcc 	andi	r2,r2,255
  80360c:	1004923a 	slli	r2,r2,8
  803610:	1007883a 	mov	r3,r2
  803614:	008020b4 	movhi	r2,130
  803618:	10b9dd04 	addi	r2,r2,-6284
  80361c:	10800a17 	ldw	r2,40(r2)
  803620:	1080004c 	andi	r2,r2,1
  803624:	100491fa 	slli	r2,r2,7
  803628:	1886b03a 	or	r3,r3,r2
  80362c:	008020b4 	movhi	r2,130
  803630:	10b9dd04 	addi	r2,r2,-6284
  803634:	10800b17 	ldw	r2,44(r2)
  803638:	10801fcc 	andi	r2,r2,127
  80363c:	1884b03a 	or	r2,r3,r2
  803640:	20800015 	stw	r2,0(r4)
		   |(ptd2send.format		&0x0001)<<7
		   |(ptd2send.func_addr     &0x007F);
}
  803644:	e037883a 	mov	sp,fp
  803648:	df000017 	ldw	fp,0(sp)
  80364c:	dec00104 	addi	sp,sp,4
  803650:	f800283a 	ret

00803654 <make_ptd>:

void make_ptd(int *rptr,char token,char ep,int max,char tog,char addr,char port)
{
  803654:	defff804 	addi	sp,sp,-32
  803658:	df000715 	stw	fp,28(sp)
  80365c:	df000704 	addi	fp,sp,28
  803660:	e13ff915 	stw	r4,-28(fp)
  803664:	e1fffc15 	stw	r7,-16(fp)
  803668:	e0800117 	ldw	r2,4(fp)
  80366c:	e0c00217 	ldw	r3,8(fp)
  803670:	e1000317 	ldw	r4,12(fp)
  803674:	e17ffa05 	stb	r5,-24(fp)
  803678:	e1bffb05 	stb	r6,-20(fp)
  80367c:	e0bffd05 	stb	r2,-12(fp)
  803680:	e0fffe05 	stb	r3,-8(fp)
  803684:	e13fff05 	stb	r4,-4(fp)
 ptd2send.c_code=0x0F;
  803688:	00c020b4 	movhi	r3,130
  80368c:	18f9dd04 	addi	r3,r3,-6284
  803690:	008003c4 	movi	r2,15
  803694:	18800015 	stw	r2,0(r3)
 ptd2send.active_bit=1;
  803698:	00c020b4 	movhi	r3,130
  80369c:	18f9dd04 	addi	r3,r3,-6284
  8036a0:	00800044 	movi	r2,1
  8036a4:	18800115 	stw	r2,4(r3)
 ptd2send.toggle=tog;
  8036a8:	e0fffd07 	ldb	r3,-12(fp)
  8036ac:	008020b4 	movhi	r2,130
  8036b0:	10b9dd04 	addi	r2,r2,-6284
  8036b4:	10c00215 	stw	r3,8(r2)
 ptd2send.actual_size=0;
  8036b8:	008020b4 	movhi	r2,130
  8036bc:	10b9dd04 	addi	r2,r2,-6284
  8036c0:	10000315 	stw	zero,12(r2)
 ptd2send.endpoint=ep;
  8036c4:	e0fffb07 	ldb	r3,-20(fp)
  8036c8:	008020b4 	movhi	r2,130
  8036cc:	10b9dd04 	addi	r2,r2,-6284
  8036d0:	10c00415 	stw	r3,16(r2)
 ptd2send.last_ptd=0;
  8036d4:	008020b4 	movhi	r2,130
  8036d8:	10b9dd04 	addi	r2,r2,-6284
  8036dc:	10000515 	stw	zero,20(r2)

 ptd2send.speed=port_speed;
  8036e0:	d0e01917 	ldw	r3,-32668(gp)
  8036e4:	008020b4 	movhi	r2,130
  8036e8:	10b9dd04 	addi	r2,r2,-6284
  8036ec:	10c00615 	stw	r3,24(r2)
 if(port==1) {ptd2send.speed=port1speed;}
  8036f0:	e0bfff07 	ldb	r2,-4(fp)
  8036f4:	10800058 	cmpnei	r2,r2,1
  8036f8:	1000041e 	bne	r2,zero,80370c <make_ptd+0xb8>
  8036fc:	d0e01717 	ldw	r3,-32676(gp)
  803700:	008020b4 	movhi	r2,130
  803704:	10b9dd04 	addi	r2,r2,-6284
  803708:	10c00615 	stw	r3,24(r2)
 if(port==2) {ptd2send.speed=port2speed;}
  80370c:	e0bfff07 	ldb	r2,-4(fp)
  803710:	10800098 	cmpnei	r2,r2,2
  803714:	1000041e 	bne	r2,zero,803728 <make_ptd+0xd4>
  803718:	d0e01817 	ldw	r3,-32672(gp)
  80371c:	008020b4 	movhi	r2,130
  803720:	10b9dd04 	addi	r2,r2,-6284
  803724:	10c00615 	stw	r3,24(r2)

 ptd2send.max_size=max;
  803728:	e0fffc17 	ldw	r3,-16(fp)
  80372c:	008020b4 	movhi	r2,130
  803730:	10b9dd04 	addi	r2,r2,-6284
  803734:	10c00715 	stw	r3,28(r2)
 ptd2send.total_size=max;
  803738:	e0fffc17 	ldw	r3,-16(fp)
  80373c:	008020b4 	movhi	r2,130
  803740:	10b9dd04 	addi	r2,r2,-6284
  803744:	10c00915 	stw	r3,36(r2)
 ptd2send.pid= token;
  803748:	e0fffa07 	ldb	r3,-24(fp)
  80374c:	008020b4 	movhi	r2,130
  803750:	10b9dd04 	addi	r2,r2,-6284
  803754:	10c00815 	stw	r3,32(r2)
 ptd2send.format=0;
  803758:	008020b4 	movhi	r2,130
  80375c:	10b9dd04 	addi	r2,r2,-6284
  803760:	10000a15 	stw	zero,40(r2)
 ptd2send.fm=0;
  803764:	008020b4 	movhi	r2,130
  803768:	10b9dd04 	addi	r2,r2,-6284
  80376c:	10000c05 	stb	zero,48(r2)
 ptd2send.func_addr=addr;
  803770:	e0fffe07 	ldb	r3,-8(fp)
  803774:	008020b4 	movhi	r2,130
  803778:	10b9dd04 	addi	r2,r2,-6284
  80377c:	10c00b15 	stw	r3,44(r2)

 *(rptr+0)=	(ptd2send.c_code     	&0x0000)<<12
  803780:	008020b4 	movhi	r2,130
  803784:	10b9dd04 	addi	r2,r2,-6284
  803788:	10800117 	ldw	r2,4(r2)
  80378c:	1080004c 	andi	r2,r2,1
  803790:	100692fa 	slli	r3,r2,11
  803794:	008020b4 	movhi	r2,130
  803798:	10b9dd04 	addi	r2,r2,-6284
  80379c:	10800217 	ldw	r2,8(r2)
  8037a0:	1080004c 	andi	r2,r2,1
  8037a4:	100492ba 	slli	r2,r2,10
  8037a8:	1886b03a 	or	r3,r3,r2
  8037ac:	008020b4 	movhi	r2,130
  8037b0:	10b9dd04 	addi	r2,r2,-6284
  8037b4:	10800317 	ldw	r2,12(r2)
  8037b8:	1080ffcc 	andi	r2,r2,1023
  8037bc:	1884b03a 	or	r2,r3,r2
  8037c0:	1007883a 	mov	r3,r2
  8037c4:	e0bff917 	ldw	r2,-28(fp)
  8037c8:	10c00015 	stw	r3,0(r2)
		   |(ptd2send.active_bit 	&0x0001)<<11
		   |(ptd2send.toggle		&0x0001)<<10
		   |(ptd2send.actual_size   &0x03FF);

 *(rptr+1)=  (ptd2send.endpoint		&0x000F)<<12
  8037cc:	e0bff917 	ldw	r2,-28(fp)
  8037d0:	11000104 	addi	r4,r2,4
  8037d4:	008020b4 	movhi	r2,130
  8037d8:	10b9dd04 	addi	r2,r2,-6284
  8037dc:	10800417 	ldw	r2,16(r2)
  8037e0:	108003cc 	andi	r2,r2,15
  8037e4:	1006933a 	slli	r3,r2,12
  8037e8:	008020b4 	movhi	r2,130
  8037ec:	10b9dd04 	addi	r2,r2,-6284
  8037f0:	10800517 	ldw	r2,20(r2)
  8037f4:	1080004c 	andi	r2,r2,1
  8037f8:	100492fa 	slli	r2,r2,11
  8037fc:	1886b03a 	or	r3,r3,r2
  803800:	008020b4 	movhi	r2,130
  803804:	10b9dd04 	addi	r2,r2,-6284
  803808:	10800617 	ldw	r2,24(r2)
  80380c:	1080004c 	andi	r2,r2,1
  803810:	100492ba 	slli	r2,r2,10
  803814:	1886b03a 	or	r3,r3,r2
  803818:	008020b4 	movhi	r2,130
  80381c:	10b9dd04 	addi	r2,r2,-6284
  803820:	10800717 	ldw	r2,28(r2)
  803824:	1080ffcc 	andi	r2,r2,1023
  803828:	1884b03a 	or	r2,r3,r2
  80382c:	20800015 	stw	r2,0(r4)
		   |(ptd2send.last_ptd		&0x0001)<<11
		   |(ptd2send.speed			&0x0001)<<10
		   |(ptd2send.max_size		&0x03FF);

 *(rptr+2)=  (0x0000             	&0x000F)<<12
  803830:	e0bff917 	ldw	r2,-28(fp)
  803834:	11000204 	addi	r4,r2,8
  803838:	008020b4 	movhi	r2,130
  80383c:	10b9dd04 	addi	r2,r2,-6284
  803840:	10800817 	ldw	r2,32(r2)
  803844:	108000cc 	andi	r2,r2,3
  803848:	100692ba 	slli	r3,r2,10
  80384c:	008020b4 	movhi	r2,130
  803850:	10b9dd04 	addi	r2,r2,-6284
  803854:	10800917 	ldw	r2,36(r2)
  803858:	1080ffcc 	andi	r2,r2,1023
  80385c:	1884b03a 	or	r2,r3,r2
  803860:	20800015 	stw	r2,0(r4)
		   |(ptd2send.pid     		&0x0003)<<10
		   |(ptd2send.total_size	&0x03FF);

 *(rptr+3)=  (ptd2send.fm            &0x00FF)<<8
  803864:	e0bff917 	ldw	r2,-28(fp)
  803868:	11000304 	addi	r4,r2,12
  80386c:	008020b4 	movhi	r2,130
  803870:	10b9dd04 	addi	r2,r2,-6284
  803874:	10800c03 	ldbu	r2,48(r2)
  803878:	10803fcc 	andi	r2,r2,255
  80387c:	1004923a 	slli	r2,r2,8
  803880:	1007883a 	mov	r3,r2
  803884:	008020b4 	movhi	r2,130
  803888:	10b9dd04 	addi	r2,r2,-6284
  80388c:	10800a17 	ldw	r2,40(r2)
  803890:	1080004c 	andi	r2,r2,1
  803894:	100491fa 	slli	r2,r2,7
  803898:	1886b03a 	or	r3,r3,r2
  80389c:	008020b4 	movhi	r2,130
  8038a0:	10b9dd04 	addi	r2,r2,-6284
  8038a4:	10800b17 	ldw	r2,44(r2)
  8038a8:	10801fcc 	andi	r2,r2,127
  8038ac:	1884b03a 	or	r2,r3,r2
  8038b0:	20800015 	stw	r2,0(r4)
		   |(ptd2send.format		&0x0001)<<7
		   |(ptd2send.func_addr     &0x007F);
}
  8038b4:	e037883a 	mov	sp,fp
  8038b8:	df000017 	ldw	fp,0(sp)
  8038bc:	dec00104 	addi	sp,sp,4
  8038c0:	f800283a 	ret

008038c4 <new_make_ptd>:

void new_make_ptd(int *rptr,char token,char ep,int max,char tog,char addr,char port, unsigned int total)
{
  8038c4:	defff804 	addi	sp,sp,-32
  8038c8:	df000715 	stw	fp,28(sp)
  8038cc:	df000704 	addi	fp,sp,28
  8038d0:	e13ff915 	stw	r4,-28(fp)
  8038d4:	e1fffc15 	stw	r7,-16(fp)
  8038d8:	e0800117 	ldw	r2,4(fp)
  8038dc:	e0c00217 	ldw	r3,8(fp)
  8038e0:	e1000317 	ldw	r4,12(fp)
  8038e4:	e17ffa05 	stb	r5,-24(fp)
  8038e8:	e1bffb05 	stb	r6,-20(fp)
  8038ec:	e0bffd05 	stb	r2,-12(fp)
  8038f0:	e0fffe05 	stb	r3,-8(fp)
  8038f4:	e13fff05 	stb	r4,-4(fp)
 ptd2send.c_code=0x0F;
  8038f8:	00c020b4 	movhi	r3,130
  8038fc:	18f9dd04 	addi	r3,r3,-6284
  803900:	008003c4 	movi	r2,15
  803904:	18800015 	stw	r2,0(r3)
 ptd2send.active_bit=1;
  803908:	00c020b4 	movhi	r3,130
  80390c:	18f9dd04 	addi	r3,r3,-6284
  803910:	00800044 	movi	r2,1
  803914:	18800115 	stw	r2,4(r3)
 ptd2send.toggle=tog;
  803918:	e0fffd07 	ldb	r3,-12(fp)
  80391c:	008020b4 	movhi	r2,130
  803920:	10b9dd04 	addi	r2,r2,-6284
  803924:	10c00215 	stw	r3,8(r2)
 ptd2send.actual_size=0;
  803928:	008020b4 	movhi	r2,130
  80392c:	10b9dd04 	addi	r2,r2,-6284
  803930:	10000315 	stw	zero,12(r2)
 ptd2send.endpoint=ep;
  803934:	e0fffb07 	ldb	r3,-20(fp)
  803938:	008020b4 	movhi	r2,130
  80393c:	10b9dd04 	addi	r2,r2,-6284
  803940:	10c00415 	stw	r3,16(r2)
 ptd2send.last_ptd=0;
  803944:	008020b4 	movhi	r2,130
  803948:	10b9dd04 	addi	r2,r2,-6284
  80394c:	10000515 	stw	zero,20(r2)

 ptd2send.speed=port_speed;
  803950:	d0e01917 	ldw	r3,-32668(gp)
  803954:	008020b4 	movhi	r2,130
  803958:	10b9dd04 	addi	r2,r2,-6284
  80395c:	10c00615 	stw	r3,24(r2)
 if(port==1) {ptd2send.speed=port1speed;}
  803960:	e0bfff07 	ldb	r2,-4(fp)
  803964:	10800058 	cmpnei	r2,r2,1
  803968:	1000041e 	bne	r2,zero,80397c <new_make_ptd+0xb8>
  80396c:	d0e01717 	ldw	r3,-32676(gp)
  803970:	008020b4 	movhi	r2,130
  803974:	10b9dd04 	addi	r2,r2,-6284
  803978:	10c00615 	stw	r3,24(r2)
 if(port==2) {ptd2send.speed=port2speed;}
  80397c:	e0bfff07 	ldb	r2,-4(fp)
  803980:	10800098 	cmpnei	r2,r2,2
  803984:	1000041e 	bne	r2,zero,803998 <new_make_ptd+0xd4>
  803988:	d0e01817 	ldw	r3,-32672(gp)
  80398c:	008020b4 	movhi	r2,130
  803990:	10b9dd04 	addi	r2,r2,-6284
  803994:	10c00615 	stw	r3,24(r2)

 ptd2send.max_size=max;
  803998:	e0fffc17 	ldw	r3,-16(fp)
  80399c:	008020b4 	movhi	r2,130
  8039a0:	10b9dd04 	addi	r2,r2,-6284
  8039a4:	10c00715 	stw	r3,28(r2)
 ptd2send.total_size=total;
  8039a8:	00c020b4 	movhi	r3,130
  8039ac:	18f9dd04 	addi	r3,r3,-6284
  8039b0:	e0800417 	ldw	r2,16(fp)
  8039b4:	18800915 	stw	r2,36(r3)
 ptd2send.pid= token;
  8039b8:	e0fffa07 	ldb	r3,-24(fp)
  8039bc:	008020b4 	movhi	r2,130
  8039c0:	10b9dd04 	addi	r2,r2,-6284
  8039c4:	10c00815 	stw	r3,32(r2)
 ptd2send.format=0;
  8039c8:	008020b4 	movhi	r2,130
  8039cc:	10b9dd04 	addi	r2,r2,-6284
  8039d0:	10000a15 	stw	zero,40(r2)
 ptd2send.fm=0;
  8039d4:	008020b4 	movhi	r2,130
  8039d8:	10b9dd04 	addi	r2,r2,-6284
  8039dc:	10000c05 	stb	zero,48(r2)
 ptd2send.func_addr=addr;
  8039e0:	e0fffe07 	ldb	r3,-8(fp)
  8039e4:	008020b4 	movhi	r2,130
  8039e8:	10b9dd04 	addi	r2,r2,-6284
  8039ec:	10c00b15 	stw	r3,44(r2)

 *(rptr+0)=	(ptd2send.c_code     	&0x0000)<<12
  8039f0:	008020b4 	movhi	r2,130
  8039f4:	10b9dd04 	addi	r2,r2,-6284
  8039f8:	10800117 	ldw	r2,4(r2)
  8039fc:	1080004c 	andi	r2,r2,1
  803a00:	100692fa 	slli	r3,r2,11
  803a04:	008020b4 	movhi	r2,130
  803a08:	10b9dd04 	addi	r2,r2,-6284
  803a0c:	10800217 	ldw	r2,8(r2)
  803a10:	1080004c 	andi	r2,r2,1
  803a14:	100492ba 	slli	r2,r2,10
  803a18:	1886b03a 	or	r3,r3,r2
  803a1c:	008020b4 	movhi	r2,130
  803a20:	10b9dd04 	addi	r2,r2,-6284
  803a24:	10800317 	ldw	r2,12(r2)
  803a28:	1080ffcc 	andi	r2,r2,1023
  803a2c:	1884b03a 	or	r2,r3,r2
  803a30:	1007883a 	mov	r3,r2
  803a34:	e0bff917 	ldw	r2,-28(fp)
  803a38:	10c00015 	stw	r3,0(r2)
		   |(ptd2send.active_bit 	&0x0001)<<11
		   |(ptd2send.toggle		&0x0001)<<10
		   |(ptd2send.actual_size   &0x03FF);

 *(rptr+1)=  (ptd2send.endpoint		&0x000F)<<12
  803a3c:	e0bff917 	ldw	r2,-28(fp)
  803a40:	11000104 	addi	r4,r2,4
  803a44:	008020b4 	movhi	r2,130
  803a48:	10b9dd04 	addi	r2,r2,-6284
  803a4c:	10800417 	ldw	r2,16(r2)
  803a50:	108003cc 	andi	r2,r2,15
  803a54:	1006933a 	slli	r3,r2,12
  803a58:	008020b4 	movhi	r2,130
  803a5c:	10b9dd04 	addi	r2,r2,-6284
  803a60:	10800517 	ldw	r2,20(r2)
  803a64:	1080004c 	andi	r2,r2,1
  803a68:	100492fa 	slli	r2,r2,11
  803a6c:	1886b03a 	or	r3,r3,r2
  803a70:	008020b4 	movhi	r2,130
  803a74:	10b9dd04 	addi	r2,r2,-6284
  803a78:	10800617 	ldw	r2,24(r2)
  803a7c:	1080004c 	andi	r2,r2,1
  803a80:	100492ba 	slli	r2,r2,10
  803a84:	1886b03a 	or	r3,r3,r2
  803a88:	008020b4 	movhi	r2,130
  803a8c:	10b9dd04 	addi	r2,r2,-6284
  803a90:	10800717 	ldw	r2,28(r2)
  803a94:	1080ffcc 	andi	r2,r2,1023
  803a98:	1884b03a 	or	r2,r3,r2
  803a9c:	20800015 	stw	r2,0(r4)
		   |(ptd2send.last_ptd		&0x0001)<<11
		   |(ptd2send.speed			&0x0001)<<10
		   |(ptd2send.max_size		&0x03FF);

 *(rptr+2)=  (0x0000             	&0x000F)<<12
  803aa0:	e0bff917 	ldw	r2,-28(fp)
  803aa4:	11000204 	addi	r4,r2,8
  803aa8:	008020b4 	movhi	r2,130
  803aac:	10b9dd04 	addi	r2,r2,-6284
  803ab0:	10800817 	ldw	r2,32(r2)
  803ab4:	108000cc 	andi	r2,r2,3
  803ab8:	100692ba 	slli	r3,r2,10
  803abc:	008020b4 	movhi	r2,130
  803ac0:	10b9dd04 	addi	r2,r2,-6284
  803ac4:	10800917 	ldw	r2,36(r2)
  803ac8:	1080ffcc 	andi	r2,r2,1023
  803acc:	1884b03a 	or	r2,r3,r2
  803ad0:	20800015 	stw	r2,0(r4)
		   |(ptd2send.pid     		&0x0003)<<10
		   |(ptd2send.total_size	&0x03FF);

 *(rptr+3)=  (ptd2send.fm            &0x00FF)<<8
  803ad4:	e0bff917 	ldw	r2,-28(fp)
  803ad8:	11000304 	addi	r4,r2,12
  803adc:	008020b4 	movhi	r2,130
  803ae0:	10b9dd04 	addi	r2,r2,-6284
  803ae4:	10800c03 	ldbu	r2,48(r2)
  803ae8:	10803fcc 	andi	r2,r2,255
  803aec:	1004923a 	slli	r2,r2,8
  803af0:	1007883a 	mov	r3,r2
  803af4:	008020b4 	movhi	r2,130
  803af8:	10b9dd04 	addi	r2,r2,-6284
  803afc:	10800a17 	ldw	r2,40(r2)
  803b00:	1080004c 	andi	r2,r2,1
  803b04:	100491fa 	slli	r2,r2,7
  803b08:	1886b03a 	or	r3,r3,r2
  803b0c:	008020b4 	movhi	r2,130
  803b10:	10b9dd04 	addi	r2,r2,-6284
  803b14:	10800b17 	ldw	r2,44(r2)
  803b18:	10801fcc 	andi	r2,r2,127
  803b1c:	1884b03a 	or	r2,r3,r2
  803b20:	20800015 	stw	r2,0(r4)
		   |(ptd2send.format		&0x0001)<<7
		   |(ptd2send.func_addr     &0x007F);
}
  803b24:	e037883a 	mov	sp,fp
  803b28:	df000017 	ldw	fp,0(sp)
  803b2c:	dec00104 	addi	sp,sp,4
  803b30:	f800283a 	ret

00803b34 <make_int_ptd>:



void make_int_ptd(int *rptr,char token,char ep,int max,char tog,char addr,char port,int freq)
{
  803b34:	defff804 	addi	sp,sp,-32
  803b38:	df000715 	stw	fp,28(sp)
  803b3c:	df000704 	addi	fp,sp,28
  803b40:	e13ff915 	stw	r4,-28(fp)
  803b44:	e1fffc15 	stw	r7,-16(fp)
  803b48:	e0800117 	ldw	r2,4(fp)
  803b4c:	e0c00217 	ldw	r3,8(fp)
  803b50:	e1000317 	ldw	r4,12(fp)
  803b54:	e17ffa05 	stb	r5,-24(fp)
  803b58:	e1bffb05 	stb	r6,-20(fp)
  803b5c:	e0bffd05 	stb	r2,-12(fp)
  803b60:	e0fffe05 	stb	r3,-8(fp)
  803b64:	e13fff05 	stb	r4,-4(fp)
 ptd2send.c_code=0x0F;
  803b68:	00c020b4 	movhi	r3,130
  803b6c:	18f9dd04 	addi	r3,r3,-6284
  803b70:	008003c4 	movi	r2,15
  803b74:	18800015 	stw	r2,0(r3)
 ptd2send.active_bit=1;
  803b78:	00c020b4 	movhi	r3,130
  803b7c:	18f9dd04 	addi	r3,r3,-6284
  803b80:	00800044 	movi	r2,1
  803b84:	18800115 	stw	r2,4(r3)
 ptd2send.toggle=tog;
  803b88:	e0fffd07 	ldb	r3,-12(fp)
  803b8c:	008020b4 	movhi	r2,130
  803b90:	10b9dd04 	addi	r2,r2,-6284
  803b94:	10c00215 	stw	r3,8(r2)
 ptd2send.actual_size=0;
  803b98:	008020b4 	movhi	r2,130
  803b9c:	10b9dd04 	addi	r2,r2,-6284
  803ba0:	10000315 	stw	zero,12(r2)
 ptd2send.endpoint=ep;
  803ba4:	e0fffb07 	ldb	r3,-20(fp)
  803ba8:	008020b4 	movhi	r2,130
  803bac:	10b9dd04 	addi	r2,r2,-6284
  803bb0:	10c00415 	stw	r3,16(r2)
 ptd2send.last_ptd=0;
  803bb4:	008020b4 	movhi	r2,130
  803bb8:	10b9dd04 	addi	r2,r2,-6284
  803bbc:	10000515 	stw	zero,20(r2)

 ptd2send.speed=port_speed;
  803bc0:	d0e01917 	ldw	r3,-32668(gp)
  803bc4:	008020b4 	movhi	r2,130
  803bc8:	10b9dd04 	addi	r2,r2,-6284
  803bcc:	10c00615 	stw	r3,24(r2)
 if(port==1) {ptd2send.speed=port1speed;}
  803bd0:	e0bfff07 	ldb	r2,-4(fp)
  803bd4:	10800058 	cmpnei	r2,r2,1
  803bd8:	1000041e 	bne	r2,zero,803bec <make_int_ptd+0xb8>
  803bdc:	d0e01717 	ldw	r3,-32676(gp)
  803be0:	008020b4 	movhi	r2,130
  803be4:	10b9dd04 	addi	r2,r2,-6284
  803be8:	10c00615 	stw	r3,24(r2)
 if(port==2) {ptd2send.speed=port2speed;}
  803bec:	e0bfff07 	ldb	r2,-4(fp)
  803bf0:	10800098 	cmpnei	r2,r2,2
  803bf4:	1000041e 	bne	r2,zero,803c08 <make_int_ptd+0xd4>
  803bf8:	d0e01817 	ldw	r3,-32672(gp)
  803bfc:	008020b4 	movhi	r2,130
  803c00:	10b9dd04 	addi	r2,r2,-6284
  803c04:	10c00615 	stw	r3,24(r2)

 ptd2send.max_size=max;
  803c08:	e0fffc17 	ldw	r3,-16(fp)
  803c0c:	008020b4 	movhi	r2,130
  803c10:	10b9dd04 	addi	r2,r2,-6284
  803c14:	10c00715 	stw	r3,28(r2)
 ptd2send.total_size=max;
  803c18:	e0fffc17 	ldw	r3,-16(fp)
  803c1c:	008020b4 	movhi	r2,130
  803c20:	10b9dd04 	addi	r2,r2,-6284
  803c24:	10c00915 	stw	r3,36(r2)
 ptd2send.pid= token;
  803c28:	e0fffa07 	ldb	r3,-24(fp)
  803c2c:	008020b4 	movhi	r2,130
  803c30:	10b9dd04 	addi	r2,r2,-6284
  803c34:	10c00815 	stw	r3,32(r2)
 ptd2send.format=0;
  803c38:	008020b4 	movhi	r2,130
  803c3c:	10b9dd04 	addi	r2,r2,-6284
  803c40:	10000a15 	stw	zero,40(r2)
 ptd2send.fm=freq;
  803c44:	e0800417 	ldw	r2,16(fp)
  803c48:	1007883a 	mov	r3,r2
  803c4c:	008020b4 	movhi	r2,130
  803c50:	10b9dd04 	addi	r2,r2,-6284
  803c54:	10c00c05 	stb	r3,48(r2)
 ptd2send.func_addr=addr;
  803c58:	e0fffe07 	ldb	r3,-8(fp)
  803c5c:	008020b4 	movhi	r2,130
  803c60:	10b9dd04 	addi	r2,r2,-6284
  803c64:	10c00b15 	stw	r3,44(r2)

 *(rptr+0)=	(ptd2send.c_code     	&0x0000)<<12
  803c68:	008020b4 	movhi	r2,130
  803c6c:	10b9dd04 	addi	r2,r2,-6284
  803c70:	10800117 	ldw	r2,4(r2)
  803c74:	1080004c 	andi	r2,r2,1
  803c78:	100692fa 	slli	r3,r2,11
  803c7c:	008020b4 	movhi	r2,130
  803c80:	10b9dd04 	addi	r2,r2,-6284
  803c84:	10800217 	ldw	r2,8(r2)
  803c88:	1080004c 	andi	r2,r2,1
  803c8c:	100492ba 	slli	r2,r2,10
  803c90:	1886b03a 	or	r3,r3,r2
  803c94:	008020b4 	movhi	r2,130
  803c98:	10b9dd04 	addi	r2,r2,-6284
  803c9c:	10800317 	ldw	r2,12(r2)
  803ca0:	1080ffcc 	andi	r2,r2,1023
  803ca4:	1884b03a 	or	r2,r3,r2
  803ca8:	1007883a 	mov	r3,r2
  803cac:	e0bff917 	ldw	r2,-28(fp)
  803cb0:	10c00015 	stw	r3,0(r2)
		   |(ptd2send.active_bit 	&0x0001)<<11
		   |(ptd2send.toggle		&0x0001)<<10
		   |(ptd2send.actual_size   &0x03FF);

 *(rptr+1)=  (ptd2send.endpoint		&0x000F)<<12
  803cb4:	e0bff917 	ldw	r2,-28(fp)
  803cb8:	11000104 	addi	r4,r2,4
  803cbc:	008020b4 	movhi	r2,130
  803cc0:	10b9dd04 	addi	r2,r2,-6284
  803cc4:	10800417 	ldw	r2,16(r2)
  803cc8:	108003cc 	andi	r2,r2,15
  803ccc:	1006933a 	slli	r3,r2,12
  803cd0:	008020b4 	movhi	r2,130
  803cd4:	10b9dd04 	addi	r2,r2,-6284
  803cd8:	10800517 	ldw	r2,20(r2)
  803cdc:	1080004c 	andi	r2,r2,1
  803ce0:	100492fa 	slli	r2,r2,11
  803ce4:	1886b03a 	or	r3,r3,r2
  803ce8:	008020b4 	movhi	r2,130
  803cec:	10b9dd04 	addi	r2,r2,-6284
  803cf0:	10800617 	ldw	r2,24(r2)
  803cf4:	1080004c 	andi	r2,r2,1
  803cf8:	100492ba 	slli	r2,r2,10
  803cfc:	1886b03a 	or	r3,r3,r2
  803d00:	008020b4 	movhi	r2,130
  803d04:	10b9dd04 	addi	r2,r2,-6284
  803d08:	10800717 	ldw	r2,28(r2)
  803d0c:	1080ffcc 	andi	r2,r2,1023
  803d10:	1884b03a 	or	r2,r3,r2
  803d14:	20800015 	stw	r2,0(r4)
		   |(ptd2send.last_ptd		&0x0001)<<11
		   |(ptd2send.speed			&0x0001)<<10
		   |(ptd2send.max_size		&0x03FF);

 *(rptr+2)=  (0x0000             	&0x000F)<<12
  803d18:	e0bff917 	ldw	r2,-28(fp)
  803d1c:	11000204 	addi	r4,r2,8
  803d20:	008020b4 	movhi	r2,130
  803d24:	10b9dd04 	addi	r2,r2,-6284
  803d28:	10800817 	ldw	r2,32(r2)
  803d2c:	108000cc 	andi	r2,r2,3
  803d30:	100692ba 	slli	r3,r2,10
  803d34:	008020b4 	movhi	r2,130
  803d38:	10b9dd04 	addi	r2,r2,-6284
  803d3c:	10800917 	ldw	r2,36(r2)
  803d40:	1080ffcc 	andi	r2,r2,1023
  803d44:	1884b03a 	or	r2,r3,r2
  803d48:	20800015 	stw	r2,0(r4)
		   |(ptd2send.pid     		&0x0003)<<10
		   |(ptd2send.total_size	&0x03FF);

 *(rptr+3)=  (ptd2send.fm            &0x00FF)<<8
  803d4c:	e0bff917 	ldw	r2,-28(fp)
  803d50:	11000304 	addi	r4,r2,12
  803d54:	008020b4 	movhi	r2,130
  803d58:	10b9dd04 	addi	r2,r2,-6284
  803d5c:	10800c03 	ldbu	r2,48(r2)
  803d60:	10803fcc 	andi	r2,r2,255
  803d64:	1004923a 	slli	r2,r2,8
  803d68:	1007883a 	mov	r3,r2
  803d6c:	008020b4 	movhi	r2,130
  803d70:	10b9dd04 	addi	r2,r2,-6284
  803d74:	10800a17 	ldw	r2,40(r2)
  803d78:	1080004c 	andi	r2,r2,1
  803d7c:	100491fa 	slli	r2,r2,7
  803d80:	1886b03a 	or	r3,r3,r2
  803d84:	008020b4 	movhi	r2,130
  803d88:	10b9dd04 	addi	r2,r2,-6284
  803d8c:	10800b17 	ldw	r2,44(r2)
  803d90:	10801fcc 	andi	r2,r2,127
  803d94:	1884b03a 	or	r2,r3,r2
  803d98:	20800015 	stw	r2,0(r4)
		   |(ptd2send.format		&0x0001)<<7
		   |(ptd2send.func_addr     &0x007F);
}
  803d9c:	e037883a 	mov	sp,fp
  803da0:	df000017 	ldw	fp,0(sp)
  803da4:	dec00104 	addi	sp,sp,4
  803da8:	f800283a 	ret

00803dac <make_xbulk>:


//This PTD is used to simple bulk test to check the mechanism of Skip/Last
void make_xbulk(char ep,char addr,int *rptr)
{
  803dac:	defffb04 	addi	sp,sp,-20
  803db0:	df000415 	stw	fp,16(sp)
  803db4:	df000404 	addi	fp,sp,16
  803db8:	e1bfff15 	stw	r6,-4(fp)
  803dbc:	e13ffd05 	stb	r4,-12(fp)
  803dc0:	e17ffe05 	stb	r5,-8(fp)
 unsigned int *ptd_ptr;

 ptd2send.c_code=0x0F;
  803dc4:	00c020b4 	movhi	r3,130
  803dc8:	18f9dd04 	addi	r3,r3,-6284
  803dcc:	008003c4 	movi	r2,15
  803dd0:	18800015 	stw	r2,0(r3)
 ptd2send.active_bit=1;
  803dd4:	00c020b4 	movhi	r3,130
  803dd8:	18f9dd04 	addi	r3,r3,-6284
  803ddc:	00800044 	movi	r2,1
  803de0:	18800115 	stw	r2,4(r3)
 ptd2send.toggle=0;
  803de4:	008020b4 	movhi	r2,130
  803de8:	10b9dd04 	addi	r2,r2,-6284
  803dec:	10000215 	stw	zero,8(r2)
 ptd2send.actual_size=0;
  803df0:	008020b4 	movhi	r2,130
  803df4:	10b9dd04 	addi	r2,r2,-6284
  803df8:	10000315 	stw	zero,12(r2)
 ptd2send.endpoint=ep;
  803dfc:	e0fffd07 	ldb	r3,-12(fp)
  803e00:	008020b4 	movhi	r2,130
  803e04:	10b9dd04 	addi	r2,r2,-6284
  803e08:	10c00415 	stw	r3,16(r2)
 ptd2send.last_ptd=0;
  803e0c:	008020b4 	movhi	r2,130
  803e10:	10b9dd04 	addi	r2,r2,-6284
  803e14:	10000515 	stw	zero,20(r2)
 ptd2send.speed=0;
  803e18:	008020b4 	movhi	r2,130
  803e1c:	10b9dd04 	addi	r2,r2,-6284
  803e20:	10000615 	stw	zero,24(r2)
 ptd2send.max_size=128;
  803e24:	00c020b4 	movhi	r3,130
  803e28:	18f9dd04 	addi	r3,r3,-6284
  803e2c:	00802004 	movi	r2,128
  803e30:	18800715 	stw	r2,28(r3)
 ptd2send.total_size=128;
  803e34:	00c020b4 	movhi	r3,130
  803e38:	18f9dd04 	addi	r3,r3,-6284
  803e3c:	00802004 	movi	r2,128
  803e40:	18800915 	stw	r2,36(r3)
 ptd2send.pid= OUT;
  803e44:	00c020b4 	movhi	r3,130
  803e48:	18f9dd04 	addi	r3,r3,-6284
  803e4c:	00800044 	movi	r2,1
  803e50:	18800815 	stw	r2,32(r3)
 ptd2send.format=0;
  803e54:	008020b4 	movhi	r2,130
  803e58:	10b9dd04 	addi	r2,r2,-6284
  803e5c:	10000a15 	stw	zero,40(r2)
 ptd2send.fm=0;
  803e60:	008020b4 	movhi	r2,130
  803e64:	10b9dd04 	addi	r2,r2,-6284
  803e68:	10000c05 	stb	zero,48(r2)
 ptd2send.func_addr=addr;
  803e6c:	e0fffe07 	ldb	r3,-8(fp)
  803e70:	008020b4 	movhi	r2,130
  803e74:	10b9dd04 	addi	r2,r2,-6284
  803e78:	10c00b15 	stw	r3,44(r2)

 *(rptr+0)=	(ptd2send.c_code     	&0x0000)<<12
  803e7c:	008020b4 	movhi	r2,130
  803e80:	10b9dd04 	addi	r2,r2,-6284
  803e84:	10800117 	ldw	r2,4(r2)
  803e88:	1080004c 	andi	r2,r2,1
  803e8c:	100692fa 	slli	r3,r2,11
  803e90:	008020b4 	movhi	r2,130
  803e94:	10b9dd04 	addi	r2,r2,-6284
  803e98:	10800217 	ldw	r2,8(r2)
  803e9c:	1080004c 	andi	r2,r2,1
  803ea0:	100492ba 	slli	r2,r2,10
  803ea4:	1886b03a 	or	r3,r3,r2
  803ea8:	008020b4 	movhi	r2,130
  803eac:	10b9dd04 	addi	r2,r2,-6284
  803eb0:	10800317 	ldw	r2,12(r2)
  803eb4:	1080ffcc 	andi	r2,r2,1023
  803eb8:	1884b03a 	or	r2,r3,r2
  803ebc:	1007883a 	mov	r3,r2
  803ec0:	e0bfff17 	ldw	r2,-4(fp)
  803ec4:	10c00015 	stw	r3,0(r2)
		   |(ptd2send.active_bit 	&0x0001)<<11
		   |(ptd2send.toggle		&0x0001)<<10
		   |(ptd2send.actual_size   &0x03FF);

 *(rptr+1)= (ptd2send.endpoint		&0x000F)<<12
  803ec8:	e0bfff17 	ldw	r2,-4(fp)
  803ecc:	11000104 	addi	r4,r2,4
  803ed0:	008020b4 	movhi	r2,130
  803ed4:	10b9dd04 	addi	r2,r2,-6284
  803ed8:	10800417 	ldw	r2,16(r2)
  803edc:	108003cc 	andi	r2,r2,15
  803ee0:	1006933a 	slli	r3,r2,12
  803ee4:	008020b4 	movhi	r2,130
  803ee8:	10b9dd04 	addi	r2,r2,-6284
  803eec:	10800517 	ldw	r2,20(r2)
  803ef0:	1080004c 	andi	r2,r2,1
  803ef4:	100492fa 	slli	r2,r2,11
  803ef8:	1886b03a 	or	r3,r3,r2
  803efc:	008020b4 	movhi	r2,130
  803f00:	10b9dd04 	addi	r2,r2,-6284
  803f04:	10800617 	ldw	r2,24(r2)
  803f08:	1080004c 	andi	r2,r2,1
  803f0c:	100492ba 	slli	r2,r2,10
  803f10:	1886b03a 	or	r3,r3,r2
  803f14:	008020b4 	movhi	r2,130
  803f18:	10b9dd04 	addi	r2,r2,-6284
  803f1c:	10800717 	ldw	r2,28(r2)
  803f20:	1080ffcc 	andi	r2,r2,1023
  803f24:	1884b03a 	or	r2,r3,r2
  803f28:	20800015 	stw	r2,0(r4)
		   |(ptd2send.last_ptd		&0x0001)<<11
		   |(ptd2send.speed			&0x0001)<<10
		   |(ptd2send.max_size		&0x03FF);

 *(rptr+2)= (0x0002                 &0x000F)<<12
  803f2c:	e0bfff17 	ldw	r2,-4(fp)
  803f30:	11000204 	addi	r4,r2,8
  803f34:	008020b4 	movhi	r2,130
  803f38:	10b9dd04 	addi	r2,r2,-6284
  803f3c:	10800817 	ldw	r2,32(r2)
  803f40:	108000cc 	andi	r2,r2,3
  803f44:	100692ba 	slli	r3,r2,10
  803f48:	008020b4 	movhi	r2,130
  803f4c:	10b9dd04 	addi	r2,r2,-6284
  803f50:	10800917 	ldw	r2,36(r2)
  803f54:	1080ffcc 	andi	r2,r2,1023
  803f58:	1884b03a 	or	r2,r3,r2
  803f5c:	10880014 	ori	r2,r2,8192
  803f60:	20800015 	stw	r2,0(r4)
		   |(ptd2send.pid     		&0x0003)<<10
		   |(ptd2send.total_size	&0x03FF);

 *(rptr+3)= (ptd2send.fm            &0x00FF)<<8
  803f64:	e0bfff17 	ldw	r2,-4(fp)
  803f68:	11000304 	addi	r4,r2,12
  803f6c:	008020b4 	movhi	r2,130
  803f70:	10b9dd04 	addi	r2,r2,-6284
  803f74:	10800c03 	ldbu	r2,48(r2)
  803f78:	10803fcc 	andi	r2,r2,255
  803f7c:	1004923a 	slli	r2,r2,8
  803f80:	1007883a 	mov	r3,r2
  803f84:	008020b4 	movhi	r2,130
  803f88:	10b9dd04 	addi	r2,r2,-6284
  803f8c:	10800a17 	ldw	r2,40(r2)
  803f90:	1080004c 	andi	r2,r2,1
  803f94:	100491fa 	slli	r2,r2,7
  803f98:	1886b03a 	or	r3,r3,r2
  803f9c:	008020b4 	movhi	r2,130
  803fa0:	10b9dd04 	addi	r2,r2,-6284
  803fa4:	10800b17 	ldw	r2,44(r2)
  803fa8:	10801fcc 	andi	r2,r2,127
  803fac:	1884b03a 	or	r2,r3,r2
  803fb0:	20800015 	stw	r2,0(r4)
		   |(ptd2send.format		&0x0001)<<7
		   |(ptd2send.func_addr     &0x007F);
}
  803fb4:	e037883a 	mov	sp,fp
  803fb8:	df000017 	ldw	fp,0(sp)
  803fbc:	dec00104 	addi	sp,sp,4
  803fc0:	f800283a 	ret

00803fc4 <send_ptl>:

void send_ptl(unsigned int *a_ptr,unsigned int bytesize,unsigned int ptl,unsigned int addr)
{
  803fc4:	defff204 	addi	sp,sp,-56
  803fc8:	dfc00d15 	stw	ra,52(sp)
  803fcc:	df000c15 	stw	fp,48(sp)
  803fd0:	df000c04 	addi	fp,sp,48
  803fd4:	e13ffc15 	stw	r4,-16(fp)
  803fd8:	e17ffd15 	stw	r5,-12(fp)
  803fdc:	e1bffe15 	stw	r6,-8(fp)
  803fe0:	e1ffff15 	stw	r7,-4(fp)
 unsigned int abuf[8];

 abuf[0]=*(a_ptr+0);
  803fe4:	e0bffc17 	ldw	r2,-16(fp)
  803fe8:	10800017 	ldw	r2,0(r2)
  803fec:	e0bff415 	stw	r2,-48(fp)
 abuf[1]=*(a_ptr+1);
  803ff0:	e0bffc17 	ldw	r2,-16(fp)
  803ff4:	10800104 	addi	r2,r2,4
  803ff8:	10800017 	ldw	r2,0(r2)
  803ffc:	e0bff515 	stw	r2,-44(fp)
 abuf[2]=*(a_ptr+2);
  804000:	e0bffc17 	ldw	r2,-16(fp)
  804004:	10800204 	addi	r2,r2,8
  804008:	10800017 	ldw	r2,0(r2)
  80400c:	e0bff615 	stw	r2,-40(fp)
 abuf[3]=*(a_ptr+3);
  804010:	e0bffc17 	ldw	r2,-16(fp)
  804014:	10800304 	addi	r2,r2,12
  804018:	10800017 	ldw	r2,0(r2)
  80401c:	e0bff715 	stw	r2,-36(fp)

 random_write(abuf,addr,176);
  804020:	e13ff404 	addi	r4,fp,-48
  804024:	e17fff17 	ldw	r5,-4(fp)
  804028:	01802c04 	movi	r6,176
  80402c:	08008580 	call	800858 <random_write>
}
  804030:	e037883a 	mov	sp,fp
  804034:	dfc00117 	ldw	ra,4(sp)
  804038:	df000017 	ldw	fp,0(sp)
  80403c:	dec00204 	addi	sp,sp,8
  804040:	f800283a 	ret

00804044 <ptl_ptd>:

unsigned int ptl_ptd(char type_ptd,char last,char ep,unsigned int max,char tog,char addr,unsigned char frame_no)
{
  804044:	defff704 	addi	sp,sp,-36
  804048:	df000815 	stw	fp,32(sp)
  80404c:	df000804 	addi	fp,sp,32
  804050:	e1fffc15 	stw	r7,-16(fp)
  804054:	e0800117 	ldw	r2,4(fp)
  804058:	e0c00217 	ldw	r3,8(fp)
  80405c:	e1c00317 	ldw	r7,12(fp)
  804060:	e13ff905 	stb	r4,-28(fp)
  804064:	e17ffa05 	stb	r5,-24(fp)
  804068:	e1bffb05 	stb	r6,-20(fp)
  80406c:	e0bffd05 	stb	r2,-12(fp)
  804070:	e0fffe05 	stb	r3,-8(fp)
  804074:	e1ffff05 	stb	r7,-4(fp)
 unsigned int *ptd_ptr;

 ptd2send.c_code=0x0F;
  804078:	00c020b4 	movhi	r3,130
  80407c:	18f9dd04 	addi	r3,r3,-6284
  804080:	008003c4 	movi	r2,15
  804084:	18800015 	stw	r2,0(r3)
 ptd2send.active_bit=1;
  804088:	00c020b4 	movhi	r3,130
  80408c:	18f9dd04 	addi	r3,r3,-6284
  804090:	00800044 	movi	r2,1
  804094:	18800115 	stw	r2,4(r3)
 ptd2send.toggle=tog;
  804098:	e0fffd07 	ldb	r3,-12(fp)
  80409c:	008020b4 	movhi	r2,130
  8040a0:	10b9dd04 	addi	r2,r2,-6284
  8040a4:	10c00215 	stw	r3,8(r2)
 ptd2send.actual_size=0;
  8040a8:	008020b4 	movhi	r2,130
  8040ac:	10b9dd04 	addi	r2,r2,-6284
  8040b0:	10000315 	stw	zero,12(r2)
 ptd2send.endpoint=ep;
  8040b4:	e0fffb07 	ldb	r3,-20(fp)
  8040b8:	008020b4 	movhi	r2,130
  8040bc:	10b9dd04 	addi	r2,r2,-6284
  8040c0:	10c00415 	stw	r3,16(r2)
 ptd2send.last_ptd=last;
  8040c4:	e0fffa07 	ldb	r3,-24(fp)
  8040c8:	008020b4 	movhi	r2,130
  8040cc:	10b9dd04 	addi	r2,r2,-6284
  8040d0:	10c00515 	stw	r3,20(r2)
 ptd2send.speed=port1speed;
  8040d4:	d0e01717 	ldw	r3,-32676(gp)
  8040d8:	008020b4 	movhi	r2,130
  8040dc:	10b9dd04 	addi	r2,r2,-6284
  8040e0:	10c00615 	stw	r3,24(r2)
 ptd2send.max_size=max;
  8040e4:	00c020b4 	movhi	r3,130
  8040e8:	18f9dd04 	addi	r3,r3,-6284
  8040ec:	e0bffc17 	ldw	r2,-16(fp)
  8040f0:	18800715 	stw	r2,28(r3)
 ptd2send.total_size=max;
  8040f4:	00c020b4 	movhi	r3,130
  8040f8:	18f9dd04 	addi	r3,r3,-6284
  8040fc:	e0bffc17 	ldw	r2,-16(fp)
  804100:	18800915 	stw	r2,36(r3)
 ptd2send.pid= type_ptd;
  804104:	e0fff907 	ldb	r3,-28(fp)
  804108:	008020b4 	movhi	r2,130
  80410c:	10b9dd04 	addi	r2,r2,-6284
  804110:	10c00815 	stw	r3,32(r2)
 ptd2send.format=1;
  804114:	00c020b4 	movhi	r3,130
  804118:	18f9dd04 	addi	r3,r3,-6284
  80411c:	00800044 	movi	r2,1
  804120:	18800a15 	stw	r2,40(r3)
 ptd2send.fm=frame_no;
  804124:	00c020b4 	movhi	r3,130
  804128:	18f9dd04 	addi	r3,r3,-6284
  80412c:	e0bfff03 	ldbu	r2,-4(fp)
  804130:	18800c05 	stb	r2,48(r3)
 ptd2send.func_addr=addr;
  804134:	e0fffe07 	ldb	r3,-8(fp)
  804138:	008020b4 	movhi	r2,130
  80413c:	10b9dd04 	addi	r2,r2,-6284
  804140:	10c00b15 	stw	r3,44(r2)

 c_ptd[0]= 	(ptd2send.c_code     	&0x0000)<<12
  804144:	008020b4 	movhi	r2,130
  804148:	10b9dd04 	addi	r2,r2,-6284
  80414c:	10800117 	ldw	r2,4(r2)
  804150:	1080004c 	andi	r2,r2,1
  804154:	100692fa 	slli	r3,r2,11
  804158:	008020b4 	movhi	r2,130
  80415c:	10b9dd04 	addi	r2,r2,-6284
  804160:	10800217 	ldw	r2,8(r2)
  804164:	1080004c 	andi	r2,r2,1
  804168:	100492ba 	slli	r2,r2,10
  80416c:	1886b03a 	or	r3,r3,r2
  804170:	008020b4 	movhi	r2,130
  804174:	10b9dd04 	addi	r2,r2,-6284
  804178:	10800317 	ldw	r2,12(r2)
  80417c:	1080ffcc 	andi	r2,r2,1023
  804180:	1886b03a 	or	r3,r3,r2
  804184:	008020b4 	movhi	r2,130
  804188:	10b9ea04 	addi	r2,r2,-6232
  80418c:	10c00015 	stw	r3,0(r2)
		   |(ptd2send.active_bit 	&0x0001)<<11
		   |(ptd2send.toggle		&0x0001)<<10
		   |(ptd2send.actual_size   &0x03FF);

 c_ptd[1]=  (ptd2send.endpoint		&0x000F)<<12
  804190:	008020b4 	movhi	r2,130
  804194:	10b9dd04 	addi	r2,r2,-6284
  804198:	10800417 	ldw	r2,16(r2)
  80419c:	108003cc 	andi	r2,r2,15
  8041a0:	1006933a 	slli	r3,r2,12
  8041a4:	008020b4 	movhi	r2,130
  8041a8:	10b9dd04 	addi	r2,r2,-6284
  8041ac:	10800517 	ldw	r2,20(r2)
  8041b0:	1080004c 	andi	r2,r2,1
  8041b4:	100492fa 	slli	r2,r2,11
  8041b8:	1886b03a 	or	r3,r3,r2
  8041bc:	008020b4 	movhi	r2,130
  8041c0:	10b9dd04 	addi	r2,r2,-6284
  8041c4:	10800617 	ldw	r2,24(r2)
  8041c8:	1080004c 	andi	r2,r2,1
  8041cc:	100492ba 	slli	r2,r2,10
  8041d0:	1886b03a 	or	r3,r3,r2
  8041d4:	008020b4 	movhi	r2,130
  8041d8:	10b9dd04 	addi	r2,r2,-6284
  8041dc:	10800717 	ldw	r2,28(r2)
  8041e0:	1080ffcc 	andi	r2,r2,1023
  8041e4:	1886b03a 	or	r3,r3,r2
  8041e8:	008020b4 	movhi	r2,130
  8041ec:	10b9ea04 	addi	r2,r2,-6232
  8041f0:	10c00115 	stw	r3,4(r2)
		   |(ptd2send.last_ptd		&0x0001)<<11
		   |(ptd2send.speed			&0x0001)<<10
		   |(ptd2send.max_size		&0x03FF);

 c_ptd[2]=  (0x0000             	&0x000F)<<12
  8041f4:	008020b4 	movhi	r2,130
  8041f8:	10b9dd04 	addi	r2,r2,-6284
  8041fc:	10800817 	ldw	r2,32(r2)
  804200:	108000cc 	andi	r2,r2,3
  804204:	100692ba 	slli	r3,r2,10
  804208:	008020b4 	movhi	r2,130
  80420c:	10b9dd04 	addi	r2,r2,-6284
  804210:	10800917 	ldw	r2,36(r2)
  804214:	1080ffcc 	andi	r2,r2,1023
  804218:	1886b03a 	or	r3,r3,r2
  80421c:	008020b4 	movhi	r2,130
  804220:	10b9ea04 	addi	r2,r2,-6232
  804224:	10c00215 	stw	r3,8(r2)
		   |(ptd2send.pid     		&0x0003)<<10
		   |(ptd2send.total_size	&0x03FF);

 c_ptd[3]=  (ptd2send.fm            &0x00FF)<<8
  804228:	008020b4 	movhi	r2,130
  80422c:	10b9dd04 	addi	r2,r2,-6284
  804230:	10800c03 	ldbu	r2,48(r2)
  804234:	10803fcc 	andi	r2,r2,255
  804238:	1004923a 	slli	r2,r2,8
  80423c:	1007883a 	mov	r3,r2
  804240:	008020b4 	movhi	r2,130
  804244:	10b9dd04 	addi	r2,r2,-6284
  804248:	10800a17 	ldw	r2,40(r2)
  80424c:	1080004c 	andi	r2,r2,1
  804250:	100491fa 	slli	r2,r2,7
  804254:	1886b03a 	or	r3,r3,r2
  804258:	008020b4 	movhi	r2,130
  80425c:	10b9dd04 	addi	r2,r2,-6284
  804260:	10800b17 	ldw	r2,44(r2)
  804264:	10801fcc 	andi	r2,r2,127
  804268:	1886b03a 	or	r3,r3,r2
  80426c:	008020b4 	movhi	r2,130
  804270:	10b9ea04 	addi	r2,r2,-6232
  804274:	10c00315 	stw	r3,12(r2)
		   |(ptd2send.format		&0x0001)<<7
		   |(ptd2send.func_addr     &0x007F);

 ptd_ptr=c_ptd;
  804278:	008020b4 	movhi	r2,130
  80427c:	10b9ea04 	addi	r2,r2,-6232
  804280:	e0bff815 	stw	r2,-32(fp)

 return(ptd_ptr);
  804284:	e0bff817 	ldw	r2,-32(fp)
}
  804288:	e037883a 	mov	sp,fp
  80428c:	df000017 	ldw	fp,0(sp)
  804290:	dec00104 	addi	sp,sp,4
  804294:	f800283a 	ret

00804298 <iso_ptd>:

void iso_ptd(unsigned int *iso,char type_ptd,char last,char ep,unsigned int max,char tog,char addr,unsigned char frame_no)
{
  804298:	defff804 	addi	sp,sp,-32
  80429c:	df000715 	stw	fp,28(sp)
  8042a0:	df000704 	addi	fp,sp,28
  8042a4:	e13ff915 	stw	r4,-28(fp)
  8042a8:	e0800217 	ldw	r2,8(fp)
  8042ac:	e0c00317 	ldw	r3,12(fp)
  8042b0:	e1000417 	ldw	r4,16(fp)
  8042b4:	e17ffa05 	stb	r5,-24(fp)
  8042b8:	e1bffb05 	stb	r6,-20(fp)
  8042bc:	e1fffc05 	stb	r7,-16(fp)
  8042c0:	e0bffd05 	stb	r2,-12(fp)
  8042c4:	e0fffe05 	stb	r3,-8(fp)
  8042c8:	e13fff05 	stb	r4,-4(fp)
 ptd2send.c_code=0x0F;
  8042cc:	00c020b4 	movhi	r3,130
  8042d0:	18f9dd04 	addi	r3,r3,-6284
  8042d4:	008003c4 	movi	r2,15
  8042d8:	18800015 	stw	r2,0(r3)
 ptd2send.active_bit=1;
  8042dc:	00c020b4 	movhi	r3,130
  8042e0:	18f9dd04 	addi	r3,r3,-6284
  8042e4:	00800044 	movi	r2,1
  8042e8:	18800115 	stw	r2,4(r3)
 ptd2send.toggle=tog;
  8042ec:	e0fffd07 	ldb	r3,-12(fp)
  8042f0:	008020b4 	movhi	r2,130
  8042f4:	10b9dd04 	addi	r2,r2,-6284
  8042f8:	10c00215 	stw	r3,8(r2)
 ptd2send.actual_size=0;
  8042fc:	008020b4 	movhi	r2,130
  804300:	10b9dd04 	addi	r2,r2,-6284
  804304:	10000315 	stw	zero,12(r2)
 ptd2send.endpoint=ep;
  804308:	e0fffc07 	ldb	r3,-16(fp)
  80430c:	008020b4 	movhi	r2,130
  804310:	10b9dd04 	addi	r2,r2,-6284
  804314:	10c00415 	stw	r3,16(r2)
 ptd2send.last_ptd=last;
  804318:	e0fffb07 	ldb	r3,-20(fp)
  80431c:	008020b4 	movhi	r2,130
  804320:	10b9dd04 	addi	r2,r2,-6284
  804324:	10c00515 	stw	r3,20(r2)
 ptd2send.speed=port1speed;
  804328:	d0e01717 	ldw	r3,-32676(gp)
  80432c:	008020b4 	movhi	r2,130
  804330:	10b9dd04 	addi	r2,r2,-6284
  804334:	10c00615 	stw	r3,24(r2)
 ptd2send.max_size=max;
  804338:	00c020b4 	movhi	r3,130
  80433c:	18f9dd04 	addi	r3,r3,-6284
  804340:	e0800117 	ldw	r2,4(fp)
  804344:	18800715 	stw	r2,28(r3)
 ptd2send.total_size=max;
  804348:	00c020b4 	movhi	r3,130
  80434c:	18f9dd04 	addi	r3,r3,-6284
  804350:	e0800117 	ldw	r2,4(fp)
  804354:	18800915 	stw	r2,36(r3)
 ptd2send.pid= type_ptd;
  804358:	e0fffa07 	ldb	r3,-24(fp)
  80435c:	008020b4 	movhi	r2,130
  804360:	10b9dd04 	addi	r2,r2,-6284
  804364:	10c00815 	stw	r3,32(r2)
 ptd2send.format=1;
  804368:	00c020b4 	movhi	r3,130
  80436c:	18f9dd04 	addi	r3,r3,-6284
  804370:	00800044 	movi	r2,1
  804374:	18800a15 	stw	r2,40(r3)
 ptd2send.fm=frame_no;
  804378:	00c020b4 	movhi	r3,130
  80437c:	18f9dd04 	addi	r3,r3,-6284
  804380:	e0bfff03 	ldbu	r2,-4(fp)
  804384:	18800c05 	stb	r2,48(r3)
 ptd2send.func_addr=addr;
  804388:	e0fffe07 	ldb	r3,-8(fp)
  80438c:	008020b4 	movhi	r2,130
  804390:	10b9dd04 	addi	r2,r2,-6284
  804394:	10c00b15 	stw	r3,44(r2)

 *(iso+0)= 	(ptd2send.c_code     	&0x0000)<<12
  804398:	008020b4 	movhi	r2,130
  80439c:	10b9dd04 	addi	r2,r2,-6284
  8043a0:	10800117 	ldw	r2,4(r2)
  8043a4:	1080004c 	andi	r2,r2,1
  8043a8:	100692fa 	slli	r3,r2,11
  8043ac:	008020b4 	movhi	r2,130
  8043b0:	10b9dd04 	addi	r2,r2,-6284
  8043b4:	10800217 	ldw	r2,8(r2)
  8043b8:	1080004c 	andi	r2,r2,1
  8043bc:	100492ba 	slli	r2,r2,10
  8043c0:	1886b03a 	or	r3,r3,r2
  8043c4:	008020b4 	movhi	r2,130
  8043c8:	10b9dd04 	addi	r2,r2,-6284
  8043cc:	10800317 	ldw	r2,12(r2)
  8043d0:	1080ffcc 	andi	r2,r2,1023
  8043d4:	1886b03a 	or	r3,r3,r2
  8043d8:	e0bff917 	ldw	r2,-28(fp)
  8043dc:	10c00015 	stw	r3,0(r2)
		   |(ptd2send.active_bit 	&0x0001)<<11
		   |(ptd2send.toggle		&0x0001)<<10
		   |(ptd2send.actual_size   &0x03FF);

 *(iso+1)=  (ptd2send.endpoint		&0x000F)<<12
  8043e0:	e0bff917 	ldw	r2,-28(fp)
  8043e4:	11000104 	addi	r4,r2,4
  8043e8:	008020b4 	movhi	r2,130
  8043ec:	10b9dd04 	addi	r2,r2,-6284
  8043f0:	10800417 	ldw	r2,16(r2)
  8043f4:	108003cc 	andi	r2,r2,15
  8043f8:	1006933a 	slli	r3,r2,12
  8043fc:	008020b4 	movhi	r2,130
  804400:	10b9dd04 	addi	r2,r2,-6284
  804404:	10800517 	ldw	r2,20(r2)
  804408:	1080004c 	andi	r2,r2,1
  80440c:	100492fa 	slli	r2,r2,11
  804410:	1886b03a 	or	r3,r3,r2
  804414:	008020b4 	movhi	r2,130
  804418:	10b9dd04 	addi	r2,r2,-6284
  80441c:	10800617 	ldw	r2,24(r2)
  804420:	1080004c 	andi	r2,r2,1
  804424:	100492ba 	slli	r2,r2,10
  804428:	1886b03a 	or	r3,r3,r2
  80442c:	008020b4 	movhi	r2,130
  804430:	10b9dd04 	addi	r2,r2,-6284
  804434:	10800717 	ldw	r2,28(r2)
  804438:	1080ffcc 	andi	r2,r2,1023
  80443c:	1884b03a 	or	r2,r3,r2
  804440:	20800015 	stw	r2,0(r4)
		   |(ptd2send.last_ptd		&0x0001)<<11
		   |(ptd2send.speed			&0x0001)<<10
		   |(ptd2send.max_size		&0x03FF);

 *(iso+2)=  (0x0000             	&0x000F)<<12
  804444:	e0bff917 	ldw	r2,-28(fp)
  804448:	11000204 	addi	r4,r2,8
  80444c:	008020b4 	movhi	r2,130
  804450:	10b9dd04 	addi	r2,r2,-6284
  804454:	10800817 	ldw	r2,32(r2)
  804458:	108000cc 	andi	r2,r2,3
  80445c:	100692ba 	slli	r3,r2,10
  804460:	008020b4 	movhi	r2,130
  804464:	10b9dd04 	addi	r2,r2,-6284
  804468:	10800917 	ldw	r2,36(r2)
  80446c:	1080ffcc 	andi	r2,r2,1023
  804470:	1884b03a 	or	r2,r3,r2
  804474:	20800015 	stw	r2,0(r4)
		   |(ptd2send.pid     		&0x0003)<<10
		   |(ptd2send.total_size	&0x03FF);

 *(iso+3)=  (ptd2send.fm            &0x00FF)<<8
  804478:	e0bff917 	ldw	r2,-28(fp)
  80447c:	11000304 	addi	r4,r2,12
  804480:	008020b4 	movhi	r2,130
  804484:	10b9dd04 	addi	r2,r2,-6284
  804488:	10800c03 	ldbu	r2,48(r2)
  80448c:	10803fcc 	andi	r2,r2,255
  804490:	1004923a 	slli	r2,r2,8
  804494:	1007883a 	mov	r3,r2
  804498:	008020b4 	movhi	r2,130
  80449c:	10b9dd04 	addi	r2,r2,-6284
  8044a0:	10800a17 	ldw	r2,40(r2)
  8044a4:	1080004c 	andi	r2,r2,1
  8044a8:	100491fa 	slli	r2,r2,7
  8044ac:	1886b03a 	or	r3,r3,r2
  8044b0:	008020b4 	movhi	r2,130
  8044b4:	10b9dd04 	addi	r2,r2,-6284
  8044b8:	10800b17 	ldw	r2,44(r2)
  8044bc:	10801fcc 	andi	r2,r2,127
  8044c0:	1884b03a 	or	r2,r3,r2
  8044c4:	20800015 	stw	r2,0(r4)
		   |(ptd2send.format		&0x0001)<<7
		   |(ptd2send.func_addr     &0x007F);
}
  8044c8:	e037883a 	mov	sp,fp
  8044cc:	df000017 	ldw	fp,0(sp)
  8044d0:	dec00104 	addi	sp,sp,4
  8044d4:	f800283a 	ret

008044d8 <OneuSDelay>:
#include "basic_io.h"
#include "isa290.h"
#include "ISP1362_HAL.h"

void OneuSDelay(void)
 {
  8044d8:	defffd04 	addi	sp,sp,-12
  8044dc:	df000215 	stw	fp,8(sp)
  8044e0:	df000204 	addi	fp,sp,8
  unsigned j;
  unsigned i;

  for (i=0;i<0xd0;i++)
  8044e4:	e03ffe15 	stw	zero,-8(fp)
  8044e8:	00000606 	br	804504 <OneuSDelay+0x2c>
   {
	j++;
  8044ec:	e0bfff17 	ldw	r2,-4(fp)
  8044f0:	10800044 	addi	r2,r2,1
  8044f4:	e0bfff15 	stw	r2,-4(fp)
void OneuSDelay(void)
 {
  unsigned j;
  unsigned i;

  for (i=0;i<0xd0;i++)
  8044f8:	e0bffe17 	ldw	r2,-8(fp)
  8044fc:	10800044 	addi	r2,r2,1
  804500:	e0bffe15 	stw	r2,-8(fp)
  804504:	e0bffe17 	ldw	r2,-8(fp)
  804508:	10803430 	cmpltui	r2,r2,208
  80450c:	103ff71e 	bne	r2,zero,8044ec <OneuSDelay+0x14>
   {
	j++;
   };
 }
  804510:	e037883a 	mov	sp,fp
  804514:	df000017 	ldw	fp,0(sp)
  804518:	dec00104 	addi	sp,sp,4
  80451c:	f800283a 	ret

00804520 <uSDelay>:

void uSDelay(unsigned wDlyTime)
 {
  804520:	defffb04 	addi	sp,sp,-20
  804524:	dfc00415 	stw	ra,16(sp)
  804528:	df000315 	stw	fp,12(sp)
  80452c:	df000304 	addi	fp,sp,12
  804530:	e13fff15 	stw	r4,-4(fp)
  unsigned j;
  unsigned i;

  for (i=0;i<wDlyTime;i++)
  804534:	e03ffd15 	stw	zero,-12(fp)
  804538:	00000706 	br	804558 <uSDelay+0x38>
   {
	OneuSDelay();
  80453c:	08044d80 	call	8044d8 <OneuSDelay>
	j++;
  804540:	e0bffe17 	ldw	r2,-8(fp)
  804544:	10800044 	addi	r2,r2,1
  804548:	e0bffe15 	stw	r2,-8(fp)
void uSDelay(unsigned wDlyTime)
 {
  unsigned j;
  unsigned i;

  for (i=0;i<wDlyTime;i++)
  80454c:	e0bffd17 	ldw	r2,-12(fp)
  804550:	10800044 	addi	r2,r2,1
  804554:	e0bffd15 	stw	r2,-12(fp)
  804558:	e0fffd17 	ldw	r3,-12(fp)
  80455c:	e0bfff17 	ldw	r2,-4(fp)
  804560:	18bff636 	bltu	r3,r2,80453c <uSDelay+0x1c>
   {
	OneuSDelay();
	j++;
   };
 }
  804564:	e037883a 	mov	sp,fp
  804568:	dfc00117 	ldw	ra,4(sp)
  80456c:	df000017 	ldw	fp,0(sp)
  804570:	dec00204 	addi	sp,sp,8
  804574:	f800283a 	ret

00804578 <r32>:


unsigned long r32(unsigned char reg_no)
{
  804578:	defffa04 	addi	sp,sp,-24
  80457c:	dfc00515 	stw	ra,20(sp)
  804580:	df000415 	stw	fp,16(sp)
  804584:	df000404 	addi	fp,sp,16
  804588:	e13fff05 	stb	r4,-4(fp)
 unsigned int result_l,result_h;
 unsigned long result;

 USB_HC_CMD_WRITE(reg_no);//IOWR(ISP1362_BASE,HC_COMMAND_PORT, reg_no);
  80458c:	e0ffff03 	ldbu	r3,-4(fp)
  804590:	00806c34 	movhi	r2,432
  804594:	10883d04 	addi	r2,r2,8436
  804598:	10c00035 	stwio	r3,0(r2)
 uSDelay(10);
  80459c:	01000284 	movi	r4,10
  8045a0:	08045200 	call	804520 <uSDelay>
 result_l=USB_HC_DATA_READ();//IORD(ISP1362_BASE,HC_DATA_PORT);
  8045a4:	00806c34 	movhi	r2,432
  8045a8:	10883c04 	addi	r2,r2,8432
  8045ac:	10800037 	ldwio	r2,0(r2)
  8045b0:	e0bffe15 	stw	r2,-8(fp)
 result_h=USB_HC_DATA_READ();//IORD(ISP1362_BASE,HC_DATA_PORT);
  8045b4:	00806c34 	movhi	r2,432
  8045b8:	10883c04 	addi	r2,r2,8432
  8045bc:	10800037 	ldwio	r2,0(r2)
  8045c0:	e0bffd15 	stw	r2,-12(fp)

 result = result_h;
  8045c4:	e0bffd17 	ldw	r2,-12(fp)
  8045c8:	e0bffc15 	stw	r2,-16(fp)
 result = result<<16;
  8045cc:	e0bffc17 	ldw	r2,-16(fp)
  8045d0:	1004943a 	slli	r2,r2,16
  8045d4:	e0bffc15 	stw	r2,-16(fp)
 result = result+result_l;
  8045d8:	e0fffc17 	ldw	r3,-16(fp)
  8045dc:	e0bffe17 	ldw	r2,-8(fp)
  8045e0:	1885883a 	add	r2,r3,r2
  8045e4:	e0bffc15 	stw	r2,-16(fp)

 return(result);
  8045e8:	e0bffc17 	ldw	r2,-16(fp)
}
  8045ec:	e037883a 	mov	sp,fp
  8045f0:	dfc00117 	ldw	ra,4(sp)
  8045f4:	df000017 	ldw	fp,0(sp)
  8045f8:	dec00204 	addi	sp,sp,8
  8045fc:	f800283a 	ret

00804600 <w32>:

void w32(unsigned char reg_no, unsigned long data2write)
{
  804600:	defffa04 	addi	sp,sp,-24
  804604:	dfc00515 	stw	ra,20(sp)
  804608:	df000415 	stw	fp,16(sp)
  80460c:	df000404 	addi	fp,sp,16
  804610:	e17fff15 	stw	r5,-4(fp)
  804614:	e13ffe05 	stb	r4,-8(fp)
 unsigned int low_word;
 unsigned int hi_word;

 low_word=(data2write)&0x0000FFFF;
  804618:	e0bfff17 	ldw	r2,-4(fp)
  80461c:	10bfffcc 	andi	r2,r2,65535
  804620:	e0bffd15 	stw	r2,-12(fp)
 hi_word=((data2write)&0xFFFF0000)>>16;
  804624:	e0bfff17 	ldw	r2,-4(fp)
  804628:	10bfffec 	andhi	r2,r2,65535
  80462c:	1004d43a 	srli	r2,r2,16
  804630:	e0bffc15 	stw	r2,-16(fp)

 USB_HC_CMD_WRITE(reg_no|0x80); //IOWR(ISP1362_BASE,HC_COMMAND_PORT,reg_no|0x80);
  804634:	e0fffe03 	ldbu	r3,-8(fp)
  804638:	00bfe004 	movi	r2,-128
  80463c:	1884b03a 	or	r2,r3,r2
  804640:	10c03fcc 	andi	r3,r2,255
  804644:	00806c34 	movhi	r2,432
  804648:	10883d04 	addi	r2,r2,8436
  80464c:	10c00035 	stwio	r3,0(r2)
 uSDelay(10);
  804650:	01000284 	movi	r4,10
  804654:	08045200 	call	804520 <uSDelay>
 USB_HC_DATA_WRITE(low_word);//IOWR(ISP1362_BASE,HC_DATA_PORT,low_word);
  804658:	e0fffd17 	ldw	r3,-12(fp)
  80465c:	00806c34 	movhi	r2,432
  804660:	10883c04 	addi	r2,r2,8432
  804664:	10c00035 	stwio	r3,0(r2)
 USB_HC_DATA_WRITE(hi_word);//IOWR(ISP1362_BASE,HC_DATA_PORT,hi_word);
  804668:	e0fffc17 	ldw	r3,-16(fp)
  80466c:	00806c34 	movhi	r2,432
  804670:	10883c04 	addi	r2,r2,8432
  804674:	10c00035 	stwio	r3,0(r2)
}
  804678:	e037883a 	mov	sp,fp
  80467c:	dfc00117 	ldw	ra,4(sp)
  804680:	df000017 	ldw	fp,0(sp)
  804684:	dec00204 	addi	sp,sp,8
  804688:	f800283a 	ret

0080468c <r16>:

unsigned int r16(unsigned char reg_no)
{
  80468c:	defffc04 	addi	sp,sp,-16
  804690:	dfc00315 	stw	ra,12(sp)
  804694:	df000215 	stw	fp,8(sp)
  804698:	df000204 	addi	fp,sp,8
  80469c:	e13fff05 	stb	r4,-4(fp)
 unsigned int result;

 USB_HC_CMD_WRITE(reg_no);//IOWR(ISP1362_BASE,HC_COMMAND_PORT, reg_no);
  8046a0:	e0ffff03 	ldbu	r3,-4(fp)
  8046a4:	00806c34 	movhi	r2,432
  8046a8:	10883d04 	addi	r2,r2,8436
  8046ac:	10c00035 	stwio	r3,0(r2)
 uSDelay(10);
  8046b0:	01000284 	movi	r4,10
  8046b4:	08045200 	call	804520 <uSDelay>
 result=USB_HC_DATA_READ();//IORD(ISP1362_BASE,HC_DATA_PORT);
  8046b8:	00806c34 	movhi	r2,432
  8046bc:	10883c04 	addi	r2,r2,8432
  8046c0:	10800037 	ldwio	r2,0(r2)
  8046c4:	e0bffe15 	stw	r2,-8(fp)

 return(result);
  8046c8:	e0bffe17 	ldw	r2,-8(fp)
}
  8046cc:	e037883a 	mov	sp,fp
  8046d0:	dfc00117 	ldw	ra,4(sp)
  8046d4:	df000017 	ldw	fp,0(sp)
  8046d8:	dec00204 	addi	sp,sp,8
  8046dc:	f800283a 	ret

008046e0 <w16>:

void w16(unsigned char reg_no, unsigned int data2write)
{
  8046e0:	defffc04 	addi	sp,sp,-16
  8046e4:	dfc00315 	stw	ra,12(sp)
  8046e8:	df000215 	stw	fp,8(sp)
  8046ec:	df000204 	addi	fp,sp,8
  8046f0:	e17fff15 	stw	r5,-4(fp)
  8046f4:	e13ffe05 	stb	r4,-8(fp)
 USB_HC_CMD_WRITE(reg_no|0x80);//IOWR(ISP1362_BASE,HC_COMMAND_PORT,reg_no|0x80);
  8046f8:	e0fffe03 	ldbu	r3,-8(fp)
  8046fc:	00bfe004 	movi	r2,-128
  804700:	1884b03a 	or	r2,r3,r2
  804704:	10c03fcc 	andi	r3,r2,255
  804708:	00806c34 	movhi	r2,432
  80470c:	10883d04 	addi	r2,r2,8436
  804710:	10c00035 	stwio	r3,0(r2)
 uSDelay(10);
  804714:	01000284 	movi	r4,10
  804718:	08045200 	call	804520 <uSDelay>
 USB_HC_DATA_WRITE(data2write);//IOWR(ISP1362_BASE,HC_DATA_PORT,data2write);
  80471c:	e0ffff17 	ldw	r3,-4(fp)
  804720:	00806c34 	movhi	r2,432
  804724:	10883c04 	addi	r2,r2,8432
  804728:	10c00035 	stwio	r3,0(r2)
}
  80472c:	e037883a 	mov	sp,fp
  804730:	dfc00117 	ldw	ra,4(sp)
  804734:	df000017 	ldw	fp,0(sp)
  804738:	dec00204 	addi	sp,sp,8
  80473c:	f800283a 	ret

00804740 <dc_r32>:

unsigned long dc_r32(unsigned char reg_no)
{
  804740:	defffa04 	addi	sp,sp,-24
  804744:	dfc00515 	stw	ra,20(sp)
  804748:	df000415 	stw	fp,16(sp)
  80474c:	df000404 	addi	fp,sp,16
  804750:	e13fff05 	stb	r4,-4(fp)
 unsigned int result_l,result_h;
 unsigned long result;

 outport(dc_com, reg_no);
  804754:	008020b4 	movhi	r2,130
  804758:	10a9a404 	addi	r2,r2,-22896
  80475c:	10800017 	ldw	r2,0(r2)
  804760:	e0ffff03 	ldbu	r3,-4(fp)
  804764:	10c00035 	stwio	r3,0(r2)
 uSDelay(10);
  804768:	01000284 	movi	r4,10
  80476c:	08045200 	call	804520 <uSDelay>
 result_l=inport(dc_data);
  804770:	008020b4 	movhi	r2,130
  804774:	10a9a204 	addi	r2,r2,-22904
  804778:	10800017 	ldw	r2,0(r2)
  80477c:	10800037 	ldwio	r2,0(r2)
  804780:	e0bffe15 	stw	r2,-8(fp)
 result_h=inport(dc_data);
  804784:	008020b4 	movhi	r2,130
  804788:	10a9a204 	addi	r2,r2,-22904
  80478c:	10800017 	ldw	r2,0(r2)
  804790:	10800037 	ldwio	r2,0(r2)
  804794:	e0bffd15 	stw	r2,-12(fp)

 result = result_h;
  804798:	e0bffd17 	ldw	r2,-12(fp)
  80479c:	e0bffc15 	stw	r2,-16(fp)
